

Microchip MPLAB XC8 Assembler V2.10 build 88905656 
                                                                                               Thu Sep 30 11:07:56 2021

Microchip MPLAB XC8 C Compiler v2.10 (Free license) build 20190730164152 Og1 
     1                           	processor	18F26K22
     2                           	fnconf	rparam,??,?,0
     3                           	opt	pw 120
     4                           	opt	flic
     5                           	psect	idataBANK0,global,class=CODE,delta=1,noexec
     6                           	psect	idataBANK1,global,class=CODE,delta=1,noexec
     7                           	psect	cinit,global,reloc=2,class=CODE,delta=1
     8                           	psect	bssCOMRAM,global,class=COMRAM,space=1,delta=1,noexec
     9                           	psect	bssBANK0,global,class=BANK0,space=1,delta=1,lowdata,noexec
    10                           	psect	dataBANK0,global,class=BANK0,space=1,delta=1,lowdata,noexec
    11                           	psect	bssBANK1,global,class=BANK1,space=1,delta=1,lowdata,noexec
    12                           	psect	dataBANK1,global,class=BANK1,space=1,delta=1,lowdata,noexec
    13                           	psect	cstackBANK1,global,class=BANK1,space=1,delta=1,noexec
    14                           	psect	cstackBANK0,global,class=BANK0,space=1,delta=1,noexec
    15                           	psect	cstackCOMRAM,global,class=COMRAM,space=1,delta=1,noexec
    16                           	psect	text0,global,reloc=2,class=CODE,delta=1
    17                           	psect	text1,global,reloc=2,class=CODE,delta=1
    18                           	psect	text2,global,reloc=2,class=CODE,delta=1
    19                           	psect	text3,global,reloc=2,class=CODE,delta=1,group=1
    20                           	psect	text4,global,reloc=2,class=CODE,delta=1
    21                           	psect	text5,global,reloc=2,class=CODE,delta=1
    22                           	psect	text6,global,reloc=2,class=CODE,delta=1,group=1
    23                           	psect	text7,global,reloc=2,class=CODE,delta=1,group=1
    24                           	psect	text8,global,reloc=2,class=CODE,delta=1
    25                           	psect	text9,global,reloc=2,class=CODE,delta=1,group=1
    26                           	psect	text10,global,reloc=2,class=CODE,delta=1,group=1
    27                           	psect	text11,global,reloc=2,class=CODE,delta=1,group=1
    28                           	psect	text12,global,reloc=2,class=CODE,delta=1,group=1
    29                           	psect	text13,global,reloc=2,class=CODE,delta=1,group=1
    30                           	psect	text14,global,reloc=2,class=CODE,delta=1,group=1
    31                           	psect	text15,global,reloc=2,class=CODE,delta=1
    32                           	psect	text16,global,reloc=2,class=CODE,delta=1
    33                           	psect	text17,global,reloc=2,class=CODE,delta=1
    34                           	psect	text18,global,reloc=2,class=CODE,delta=1
    35                           	psect	text19,global,reloc=2,class=CODE,delta=1
    36                           	psect	text20,global,reloc=2,class=CODE,delta=1
    37                           	psect	text21,global,reloc=2,class=CODE,delta=1,group=1
    38                           	psect	text22,global,reloc=2,class=CODE,delta=1
    39                           	psect	text23,global,reloc=2,class=CODE,delta=1
    40                           	psect	text24,global,reloc=2,class=CODE,delta=1
    41                           	psect	text25,global,reloc=2,class=CODE,delta=1
    42                           	psect	text26,global,reloc=2,class=CODE,delta=1
    43                           	psect	text27,global,reloc=2,class=CODE,delta=1
    44                           	psect	text28,global,reloc=2,class=CODE,delta=1
    45                           	psect	text29,global,reloc=2,class=CODE,delta=1
    46                           	psect	text30,global,reloc=2,class=CODE,delta=1
    47                           	psect	text31,global,reloc=2,class=CODE,delta=1
    48                           	psect	text32,global,reloc=2,class=CODE,delta=1
    49                           	psect	text33,global,reloc=2,class=CODE,delta=1
    50                           	psect	text34,global,reloc=2,class=CODE,delta=1
    51                           	psect	text35,global,reloc=2,class=CODE,delta=1
    52                           	psect	text36,global,reloc=2,class=CODE,delta=1
    53                           	psect	text37,global,reloc=2,class=CODE,delta=1
    54                           	psect	text38,global,reloc=2,class=CODE,delta=1
    55                           	psect	text39,global,reloc=2,class=CODE,delta=1
    56                           	psect	intcode,global,reloc=2,class=CODE,delta=1
    57                           	psect	text41,global,reloc=2,class=CODE,delta=1
    58                           	psect	text42,global,reloc=2,class=CODE,delta=1
    59                           	psect	text43,global,reloc=2,class=CODE,delta=1
    60                           	psect	text44,global,reloc=2,class=CODE,delta=1
    61                           	psect	intsave_regs,global,class=BIGRAM,space=1,delta=1,noexec
    62                           	psect	text45,global,reloc=2,class=CODE,delta=1
    63                           	psect	rparam,global,class=COMRAM,space=1,delta=1,noexec
    64                           	psect	temp,global,ovrld,common,class=COMRAM,space=1,delta=1
    65  0000                     
    66                           ; Version 2.10
    67                           ; Generated 31/07/2019 GMT
    68                           ; 
    69                           ; Copyright © 2019, Microchip Technology Inc. and its subsidiaries ("Microchip")
    70                           ; All rights reserved.
    71                           ; 
    72                           ; This software is developed by Microchip Technology Inc. and its subsidiaries ("Microch
      +                          ip").
    73                           ; 
    74                           ; Redistribution and use in source and binary forms, with or without modification, are
    75                           ; permitted provided that the following conditions are met:
    76                           ; 
    77                           ;     1. Redistributions of source code must retain the above copyright notice, this lis
      +                          t of
    78                           ;        conditions and the following disclaimer.
    79                           ; 
    80                           ;     2. Redistributions in binary form must reproduce the above copyright notice, this 
      +                          list
    81                           ;        of conditions and the following disclaimer in the documentation and/or other
    82                           ;        materials provided with the distribution.
    83                           ; 
    84                           ;     3. Microchip's name may not be used to endorse or promote products derived from th
      +                          is
    85                           ;        software without specific prior written permission.
    86                           ; 
    87                           ; THIS SOFTWARE IS PROVIDED BY MICROCHIP "AS IS" AND ANY EXPRESS OR IMPLIED WARRANTIES,
    88                           ; INCLUDING, BUT NOT LIMITED TO, THE IMPLIED WARRANTIES OF MERCHANTABILITY AND FITNESS F
      +                          OR
    89                           ; PURPOSE ARE DISCLAIMED.  IN NO EVENT SHALL MICROCHIP BE LIABLE FOR ANY DIRECT, INDIREC
      +                          T,
    90                           ; INCIDENTAL, SPECIAL, EXEMPLARY, OR CONSEQUENTIAL DAMAGES (INCLUDING BUT NOT LIMITED TO
    91                           ; PROCUREMENT OF SUBSTITUTE GOODS OR SERVICES; LOSS OF USE, DATA OR PROFITS; OR BUSINESS
    92                           ; INTERRUPTION) HOWSOEVER CAUSED AND ON ANY THEORY OF LIABILITY, WHETHER IN CONTRACT, ST
      +                          RICT
    93                           ; LIABILITY, OR TORT (INCLUDING NEGLIGENCE OR OTHERWISE) ARISING IN ANY WAY OUT OF THE U
      +                          SE OF
    94                           ; THIS SOFTWARE, EVEN IF ADVISED OF THE POSSIBILITY OF SUCH DAMAGE.
    95                           ; 
    96                           ; 
    97                           ; Code-generator required, PIC18F26K22 Definitions
    98                           ; 
    99                           ; SFR Addresses
   100  0000                     
   101                           	psect	idataBANK0
   102  003F9E                     __pidataBANK0:
   103                           	opt callstack 0
   104                           
   105                           ;initializer for _ki
   106  003F9E  126F               	dw	4719
   107  003FA0  3A03               	dw	14851
   108                           
   109                           ;initializer for _kp
   110                           
   111                           	psect	idataBANK1
   112  003FA2                     __pidataBANK1:
   113                           	opt callstack 0
   114  003FA2  0000               	dw	0
   115  003FA4  41F0               	dw	16880
   116  0000                     _CCPR5H	set	3926
   117  0000                     _CCPR5L	set	3925
   118  0000                     _CCP5CON	set	3924
   119  0000                     _ANSELA	set	3896
   120  0000                     _ANSELB	set	3897
   121  0000                     _ANSELC	set	3898
   122  0000                     _TMR3	set	4018
   123  0000                     _TMR1	set	4046
   124  0000                     _LATBbits	set	3978
   125  0000                     _PORTBbits	set	3969
   126  0000                     _PORTAbits	set	3968
   127  0000                     _LATCbits	set	3979
   128  0000                     _T3GCONbits	set	4020
   129  0000                     _T3CONbits	set	4017
   130  0000                     _T3CON	set	4017
   131  0000                     _TMR3L	set	4018
   132  0000                     _TMR3H	set	4019
   133  0000                     _T3GCON	set	4020
   134  0000                     _RCONbits	set	4048
   135  0000                     _T1GCONbits	set	4044
   136  0000                     _T1CONbits	set	4045
   137  0000                     _T1CON	set	4045
   138  0000                     _PIE1bits	set	3997
   139  0000                     _PIR1bits	set	3998
   140  0000                     _TMR1L	set	4046
   141  0000                     _TMR1H	set	4047
   142  0000                     _T1GCON	set	4044
   143  0000                     _PIR2bits	set	4001
   144  0000                     _EEDATA	set	4008
   145  0000                     _EEADR	set	4009
   146  0000                     _EEADRH	set	4010
   147  0000                     _EECON2	set	4007
   148  0000                     _EECON1bits	set	4006
   149  0000                     _TABLAT	set	4085
   150  0000                     _TBLPTRL	set	4086
   151  0000                     _TBLPTRH	set	4087
   152  0000                     _TBLPTRU	set	4088
   153  0000                     _ADCON0bits	set	4034
   154  0000                     _ADRESH	set	4036
   155  0000                     _ADRESL	set	4035
   156  0000                     _ADCON2	set	4032
   157  0000                     _ADCON1	set	4033
   158  0000                     _ADCON0	set	4034
   159  0000                     _T0CONbits	set	4053
   160  0000                     _T0CON	set	4053
   161  0000                     _TMR0L	set	4054
   162  0000                     _TMR0H	set	4055
   163  0000                     _INTCONbits	set	4082
   164  0000                     _INTCON2bits	set	4081
   165  0000                     _WPUB	set	3937
   166  0000                     _TRISC	set	3988
   167  0000                     _TRISB	set	3987
   168  0000                     _TRISA	set	3986
   169  0000                     _LATC	set	3979
   170  0000                     _LATB	set	3978
   171  0000                     _LATA	set	3977
   172  0000                     _OSCTUNE	set	3995
   173  0000                     _OSCCON2	set	4050
   174  0000                     _OSCCON	set	4051
   175  0000                     _PLLRDY	set	32407
   176                           
   177                           ; #config settings
   178  0000                     
   179                           	psect	cinit
   180  003BC6                     __pcinit:
   181                           	opt callstack 0
   182  003BC6                     start_initialization:
   183                           	opt callstack 0
   184  003BC6                     __initialization:
   185                           	opt callstack 0
   186                           
   187                           ; Initialize objects allocated to BANK1 (4 bytes)
   188                           ; load TBLPTR registers with __pidataBANK1
   189  003BC6  0EA2               	movlw	low __pidataBANK1
   190  003BC8  6EF6               	movwf	tblptrl,c
   191  003BCA  0E3F               	movlw	high __pidataBANK1
   192  003BCC  6EF7               	movwf	tblptrh,c
   193  003BCE  0E00               	movlw	low (__pidataBANK1 shr (0+16))
   194  003BD0  6EF8               	movwf	tblptru,c
   195  003BD2  EE01  F054         	lfsr	0,__pdataBANK1
   196  003BD6  EE10 F004          	lfsr	1,4
   197  003BDA                     copy_data0:
   198  003BDA  0009               	tblrd		*+
   199  003BDC  CFF5 FFEE          	movff	tablat,postinc0
   200  003BE0  50E5               	movf	postdec1,w,c
   201  003BE2  50E1               	movf	fsr1l,w,c
   202  003BE4  E1FA               	bnz	copy_data0
   203                           
   204                           ; Initialize objects allocated to BANK0 (4 bytes)
   205                           ; load TBLPTR registers with __pidataBANK0
   206  003BE6  0E9E               	movlw	low __pidataBANK0
   207  003BE8  6EF6               	movwf	tblptrl,c
   208  003BEA  0E3F               	movlw	high __pidataBANK0
   209  003BEC  6EF7               	movwf	tblptrh,c
   210  003BEE  0E00               	movlw	low (__pidataBANK0 shr (0+16))
   211  003BF0  6EF8               	movwf	tblptru,c
   212  003BF2  EE00  F0F4         	lfsr	0,__pdataBANK0
   213  003BF6  EE10 F004          	lfsr	1,4
   214  003BFA                     copy_data1:
   215  003BFA  0009               	tblrd		*+
   216  003BFC  CFF5 FFEE          	movff	tablat,postinc0
   217  003C00  50E5               	movf	postdec1,w,c
   218  003C02  50E1               	movf	fsr1l,w,c
   219  003C04  E1FA               	bnz	copy_data1
   220                           
   221                           ; Clear objects allocated to BANK1 (72 bytes)
   222  003C06  EE01  F000         	lfsr	0,__pbssBANK1
   223  003C0A  0E48               	movlw	72
   224  003C0C                     clear_0:
   225  003C0C  6AEE               	clrf	postinc0,c
   226  003C0E  06E8               	decf	wreg,f,c
   227  003C10  E1FD               	bnz	clear_0
   228                           
   229                           ; Clear objects allocated to BANK0 (116 bytes)
   230  003C12  EE00  F060         	lfsr	0,__pbssBANK0
   231  003C16  0E74               	movlw	116
   232  003C18                     clear_1:
   233  003C18  6AEE               	clrf	postinc0,c
   234  003C1A  06E8               	decf	wreg,f,c
   235  003C1C  E1FD               	bnz	clear_1
   236                           
   237                           ; Clear objects allocated to COMRAM (6 bytes)
   238  003C1E  6A5A               	clrf	(__pbssCOMRAM+5)& (0+255),c
   239  003C20  6A59               	clrf	(__pbssCOMRAM+4)& (0+255),c
   240  003C22  6A58               	clrf	(__pbssCOMRAM+3)& (0+255),c
   241  003C24  6A57               	clrf	(__pbssCOMRAM+2)& (0+255),c
   242  003C26  6A56               	clrf	(__pbssCOMRAM+1)& (0+255),c
   243  003C28  6A55               	clrf	__pbssCOMRAM& (0+255),c
   244  003C2A                     end_of_initialization:
   245                           	opt callstack 0
   246  003C2A                     __end_of__initialization:
   247                           	opt callstack 0
   248  003C2A  905B               	bcf	int$flags,0,c	;clear compiler interrupt flag (level 1)
   249  003C2C  925B               	bcf	int$flags,1,c	;clear compiler interrupt flag (level 2)
   250  003C2E  0E00               	movlw	low (__Lmediumconst shr (0+16))
   251  003C30  6EF8               	movwf	tblptru,c
   252  003C32  0100               	movlb	0
   253  003C34  EF28  F000         	goto	_main	;jump to C main() function
   254                           
   255                           	psect	bssCOMRAM
   256  000055                     __pbssCOMRAM:
   257                           	opt callstack 0
   258  000055                     _u8_digit:
   259                           	opt callstack 0
   260  000055                     	ds	4
   261  000059                     _u16_displyfirstcnt:
   262                           	opt callstack 0
   263  000059                     	ds	2
   264                           
   265                           	psect	bssBANK0
   266  000060                     __pbssBANK0:
   267                           	opt callstack 0
   268  000060                     low_pass_filter@result:
   269                           	opt callstack 0
   270  000060                     	ds	4
   271  000064                     _flt_adc1:
   272                           	opt callstack 0
   273  000064                     	ds	4
   274  000068                     _flt_adcavg2:
   275                           	opt callstack 0
   276  000068                     	ds	4
   277  00006C                     _flt_adcavg1:
   278                           	opt callstack 0
   279  00006C                     	ds	4
   280  000070                     _PID_i:
   281                           	opt callstack 0
   282  000070                     	ds	4
   283  000074                     _PID_value:
   284                           	opt callstack 0
   285  000074                     	ds	4
   286  000078                     _PID_error:
   287                           	opt callstack 0
   288  000078                     	ds	4
   289  00007C                     _flt_gain1:
   290                           	opt callstack 0
   291  00007C                     	ds	4
   292  000080                     _flt_Temp2:
   293                           	opt callstack 0
   294  000080                     	ds	4
   295  000084                     _flt_Temp:
   296                           	opt callstack 0
   297  000084                     	ds	4
   298  000088                     Sring_7segdisplay@uint_blinkcnt:
   299                           	opt callstack 0
   300  000088                     	ds	2
   301  00008A                     Int_7segdisplay@uint_blinkcnt:
   302                           	opt callstack 0
   303  00008A                     	ds	2
   304  00008C                     low_pass_filter@j:
   305                           	opt callstack 0
   306  00008C                     	ds	2
   307  00008E                     _uint_adccnt:
   308                           	opt callstack 0
   309  00008E                     	ds	2
   310  000090                     _u8_sw_microEN:
   311                           	opt callstack 0
   312  000090                     	ds	2
   313  000092                     _uint_count2:
   314                           	opt callstack 0
   315  000092                     	ds	2
   316  000094                     _uint_count:
   317                           	opt callstack 0
   318  000094                     	ds	2
   319  000096                     _u16_Tempvalue:
   320                           	opt callstack 0
   321  000096                     	ds	2
   322  000098                     _u16_mde:
   323                           	opt callstack 0
   324  000098                     	ds	2
   325  00009A                     _u16_cof:
   326                           	opt callstack 0
   327  00009A                     	ds	2
   328  00009C                     _u16_cg2:
   329                           	opt callstack 0
   330  00009C                     	ds	2
   331  00009E                     _u16_cg1:
   332                           	opt callstack 0
   333  00009E                     	ds	2
   334  0000A0                     _u16_hys:
   335                           	opt callstack 0
   336  0000A0                     	ds	2
   337  0000A2                     _u16_ib:
   338                           	opt callstack 0
   339  0000A2                     	ds	2
   340  0000A4                     _u16_pb:
   341                           	opt callstack 0
   342  0000A4                     	ds	2
   343  0000A6                     _u16_off:
   344                           	opt callstack 0
   345  0000A6                     	ds	2
   346  0000A8                     _u16_timesec:
   347                           	opt callstack 0
   348  0000A8                     	ds	2
   349  0000AA                     _u16_SETtime:
   350                           	opt callstack 0
   351  0000AA                     	ds	2
   352  0000AC                     _u16_SETtemp:
   353                           	opt callstack 0
   354  0000AC                     	ds	2
   355  0000AE                     _uint_updatEN:
   356                           	opt callstack 0
   357  0000AE                     	ds	2
   358  0000B0                     _timer3ReloadVal:
   359                           	opt callstack 0
   360  0000B0                     	ds	2
   361  0000B2                     _TMR1_InterruptHandler:
   362                           	opt callstack 0
   363  0000B2                     	ds	2
   364  0000B4                     _timer1ReloadVal:
   365                           	opt callstack 0
   366  0000B4                     	ds	2
   367  0000B6                     Key_Service@fastincrcnt:
   368                           	opt callstack 0
   369  0000B6                     	ds	1
   370  0000B7                     myTimer1ISR@timemili:
   371                           	opt callstack 0
   372  0000B7                     	ds	1
   373  0000B8                     myTimer1ISR@timecycle:
   374                           	opt callstack 0
   375  0000B8                     	ds	1
   376  0000B9                     _uchr_LED2:
   377                           	opt callstack 0
   378  0000B9                     	ds	1
   379  0000BA                     _uchr_LED1:
   380                           	opt callstack 0
   381  0000BA                     	ds	1
   382  0000BB                     _u8_powerduty:
   383                           	opt callstack 0
   384  0000BB                     	ds	1
   385  0000BC                     _u8_calisetEN:
   386                           	opt callstack 0
   387  0000BC                     	ds	1
   388  0000BD                     _menu:
   389                           	opt callstack 0
   390  0000BD                     	ds	1
   391  0000BE                     _uchr_blinkdigit3:
   392                           	opt callstack 0
   393  0000BE                     	ds	1
   394  0000BF                     _uchr_blinkdigit2:
   395                           	opt callstack 0
   396  0000BF                     	ds	1
   397  0000C0                     _uchr_blinkdigit1:
   398                           	opt callstack 0
   399  0000C0                     	ds	1
   400  0000C1                     _uchr_blinkdigit0:
   401                           	opt callstack 0
   402  0000C1                     	ds	1
   403  0000C2                     _u8_led3:
   404                           	opt callstack 0
   405  0000C2                     	ds	1
   406  0000C3                     _u8_led2:
   407                           	opt callstack 0
   408  0000C3                     	ds	1
   409  0000C4                     _u8_led1:
   410                           	opt callstack 0
   411  0000C4                     	ds	1
   412  0000C5                     _u8_ledvalue:
   413                           	opt callstack 0
   414  0000C5                     	ds	1
   415  0000C6                     _u8_loadONfirst:
   416                           	opt callstack 0
   417  0000C6                     	ds	1
   418  0000C7                     _u8_loadON:
   419                           	opt callstack 0
   420  0000C7                     	ds	1
   421  0000C8                     _uchr_maxcurser:
   422                           	opt callstack 0
   423  0000C8                     	ds	1
   424  0000C9                     _uchr_mincurser:
   425                           	opt callstack 0
   426  0000C9                     	ds	1
   427  0000CA                     _uchr_valuemodified:
   428                           	opt callstack 0
   429  0000CA                     	ds	1
   430  0000CB                     _uchr_Curser:
   431                           	opt callstack 0
   432  0000CB                     	ds	1
   433  0000CC                     _uchr_dly:
   434                           	opt callstack 0
   435  0000CC                     	ds	1
   436  0000CD                     _uchr_restmode:
   437                           	opt callstack 0
   438  0000CD                     	ds	1
   439  0000CE                     _uchr_DebounceCnt:
   440                           	opt callstack 0
   441  0000CE                     	ds	1
   442  0000CF                     _uchr_PreviousKey:
   443                           	opt callstack 0
   444  0000CF                     	ds	1
   445  0000D0                     _uchr_PresentKey:
   446                           	opt callstack 0
   447  0000D0                     	ds	1
   448  0000D1                     _timer0ReloadVal:
   449                           	opt callstack 0
   450  0000D1                     	ds	1
   451  0000D2                     _u16_plm:
   452                           	opt callstack 0
   453  0000D2                     	ds	2
   454                           
   455                           	psect	dataBANK0
   456  0000F4                     __pdataBANK0:
   457                           	opt callstack 0
   458  0000F4                     _ki:
   459                           	opt callstack 0
   460  0000F4                     	ds	4
   461                           
   462                           	psect	bssBANK1
   463  000100                     __pbssBANK1:
   464                           	opt callstack 0
   465  000100                     _uint_data:
   466                           	opt callstack 0
   467  000100                     	ds	8
   468  000108                     lowPassExponential@oldvalue:
   469                           	opt callstack 0
   470  000108                     	ds	4
   471  00010C                     _flt_adc2:
   472                           	opt callstack 0
   473  00010C                     	ds	4
   474  000110                     _PID_d:
   475                           	opt callstack 0
   476  000110                     	ds	4
   477  000114                     _PID_p:
   478                           	opt callstack 0
   479  000114                     	ds	4
   480  000118                     _timePrev:
   481                           	opt callstack 0
   482  000118                     	ds	4
   483  00011C                     _Time:
   484                           	opt callstack 0
   485  00011C                     	ds	4
   486  000120                     _elapsedTime:
   487                           	opt callstack 0
   488  000120                     	ds	4
   489  000124                     _previous_error:
   490                           	opt callstack 0
   491  000124                     	ds	4
   492  000128                     _flt_gain2:
   493                           	opt callstack 0
   494  000128                     	ds	4
   495  00012C                     _flt_offset:
   496                           	opt callstack 0
   497  00012C                     	ds	4
   498  000130                     _flt_Temp1:
   499                           	opt callstack 0
   500  000130                     	ds	4
   501  000134                     	ds	2
   502  000136                     _convertedValue:
   503                           	opt callstack 0
   504  000136                     	ds	2
   505  000138                     _u16_gain2:
   506                           	opt callstack 0
   507  000138                     	ds	2
   508  00013A                     _u16_gain1:
   509                           	opt callstack 0
   510  00013A                     	ds	2
   511  00013C                     _u16_offset:
   512                           	opt callstack 0
   513  00013C                     	ds	2
   514  00013E                     _u16_Temp2:
   515                           	opt callstack 0
   516  00013E                     	ds	2
   517  000140                     _u16_Temp1:
   518                           	opt callstack 0
   519  000140                     	ds	2
   520  000142                     _u16_Temp:
   521                           	opt callstack 0
   522  000142                     	ds	2
   523  000144                     _uint_resetcnt:
   524                           	opt callstack 0
   525  000144                     	ds	2
   526  000146                     _ADC_InterruptHandler:
   527                           	opt callstack 0
   528  000146                     	ds	2
   529                           
   530                           	psect	dataBANK1
   531  000154                     __pdataBANK1:
   532                           	opt callstack 0
   533  000154                     _kp:
   534                           	opt callstack 0
   535  000154                     	ds	4
   536                           
   537                           	psect	cstackBANK1
   538  000148                     __pcstackBANK1:
   539                           	opt callstack 0
   540  000148                     _main$2493:
   541                           	opt callstack 0
   542                           
   543                           ; 4 bytes @ 0x0
   544  000148                     	ds	4
   545  00014C                     _main$2494:
   546                           	opt callstack 0
   547                           
   548                           ; 4 bytes @ 0x4
   549  00014C                     	ds	4
   550  000150                     _main$2496:
   551                           	opt callstack 0
   552                           
   553                           ; 4 bytes @ 0x8
   554  000150                     	ds	4
   555                           
   556                           	psect	cstackBANK0
   557  0000D4                     __pcstackBANK0:
   558                           	opt callstack 0
   559  0000D4                     _lowPassExponential$2499:
   560                           	opt callstack 0
   561                           
   562                           ; 4 bytes @ 0x0
   563  0000D4                     	ds	4
   564  0000D8                     lowPassExponential@Result:
   565                           	opt callstack 0
   566                           
   567                           ; 4 bytes @ 0x4
   568  0000D8                     	ds	4
   569  0000DC                     lowPassExponential@weighting:
   570                           	opt callstack 0
   571                           
   572                           ; 4 bytes @ 0x8
   573  0000DC                     	ds	4
   574  0000E0                     ?_low_pass_filter:
   575                           	opt callstack 0
   576  0000E0                     low_pass_filter@x:
   577                           	opt callstack 0
   578                           
   579                           ; 4 bytes @ 0xC
   580  0000E0                     	ds	4
   581  0000E4                     low_pass_filter@LPF_Beta:
   582                           	opt callstack 0
   583                           
   584                           ; 4 bytes @ 0x10
   585  0000E4                     	ds	4
   586  0000E8                     _low_pass_filter$2497:
   587                           	opt callstack 0
   588                           
   589                           ; 4 bytes @ 0x14
   590  0000E8                     	ds	4
   591  0000EC                     _low_pass_filter$2498:
   592                           	opt callstack 0
   593                           
   594                           ; 4 bytes @ 0x18
   595  0000EC                     	ds	4
   596  0000F0                     ??_main:
   597                           
   598                           ; 1 bytes @ 0x1C
   599  0000F0                     	ds	4
   600                           
   601                           	psect	cstackCOMRAM
   602  000001                     __pcstackCOMRAM:
   603                           	opt callstack 0
   604  000001                     TMR1_WriteTimer@timerVal:
   605                           	opt callstack 0
   606                           
   607                           ; 2 bytes @ 0x0
   608  000001                     	ds	2
   609  000003                     ??_INTERRUPT_InterruptManager:
   610                           
   611                           ; 1 bytes @ 0x2
   612  000003                     	ds	2
   613  000005                     ?_ADC_GetConversion:
   614                           	opt callstack 0
   615  000005                     ?_mask:
   616                           	opt callstack 0
   617  000005                     ?___awdiv:
   618                           	opt callstack 0
   619  000005                     ?___lwdiv:
   620                           	opt callstack 0
   621  000005                     ?___lwmod:
   622                           	opt callstack 0
   623  000005                     ?___fltol:
   624                           	opt callstack 0
   625  000005                     display7seg@data:
   626                           	opt callstack 0
   627  000005                     display7seg2@data:
   628                           	opt callstack 0
   629  000005                     DATAEE_WriteByte@bAdd:
   630                           	opt callstack 0
   631  000005                     DATAEE_ReadByte@bAdd:
   632                           	opt callstack 0
   633  000005                     TMR1_SetInterruptHandler@InterruptHandler:
   634                           	opt callstack 0
   635  000005                     mask@num:
   636                           	opt callstack 0
   637  000005                     ___awdiv@dividend:
   638                           	opt callstack 0
   639  000005                     ___lwdiv@dividend:
   640                           	opt callstack 0
   641  000005                     ___lwmod@dividend:
   642                           	opt callstack 0
   643  000005                     ___fltol@f1:
   644                           	opt callstack 0
   645                           
   646                           ; 4 bytes @ 0x4
   647  000005                     	ds	1
   648  000006                     display7seg@mask:
   649                           	opt callstack 0
   650  000006                     display7seg2@mask:
   651                           	opt callstack 0
   652                           
   653                           ; 1 bytes @ 0x5
   654  000006                     	ds	1
   655  000007                     ??_ADC_GetConversion:
   656  000007                     ??_mask:
   657  000007                     DATAEE_WriteByte@bData:
   658                           	opt callstack 0
   659  000007                     TMR3_ReadTimer@readValHigh:
   660                           	opt callstack 0
   661  000007                     ___awdiv@divisor:
   662                           	opt callstack 0
   663  000007                     ___lwdiv@divisor:
   664                           	opt callstack 0
   665  000007                     ___lwmod@divisor:
   666                           	opt callstack 0
   667                           
   668                           ; 2 bytes @ 0x6
   669  000007                     	ds	1
   670  000008                     DATAEE_WriteByte@GIEBitValue:
   671                           	opt callstack 0
   672  000008                     TMR3_ReadTimer@readValLow:
   673                           	opt callstack 0
   674                           
   675                           ; 1 bytes @ 0x7
   676  000008                     	ds	1
   677  000009                     ??___fltol:
   678  000009                     ADC_GetConversion@channel:
   679                           	opt callstack 0
   680  000009                     sev_display1@DD1:
   681                           	opt callstack 0
   682  000009                     sev_display2@DD1:
   683                           	opt callstack 0
   684  000009                     ___awdiv@counter:
   685                           	opt callstack 0
   686  000009                     ___lwdiv@counter:
   687                           	opt callstack 0
   688  000009                     ___lwmod@counter:
   689                           	opt callstack 0
   690                           
   691                           ; 1 bytes @ 0x8
   692  000009                     	ds	1
   693  00000A                     ?___xxtofl:
   694                           	opt callstack 0
   695  00000A                     sev_display1@DD2:
   696                           	opt callstack 0
   697  00000A                     sev_display2@DD2:
   698                           	opt callstack 0
   699  00000A                     ___awdiv@sign:
   700                           	opt callstack 0
   701  00000A                     ___lwdiv@quotient:
   702                           	opt callstack 0
   703  00000A                     ___xxtofl@val:
   704                           	opt callstack 0
   705                           
   706                           ; 4 bytes @ 0x9
   707  00000A                     	ds	1
   708  00000B                     sev_display1@DD3:
   709                           	opt callstack 0
   710  00000B                     sev_display2@DD3:
   711                           	opt callstack 0
   712  00000B                     ___awdiv@quotient:
   713                           	opt callstack 0
   714                           
   715                           ; 2 bytes @ 0xA
   716  00000B                     	ds	1
   717  00000C                     ??_sev_display1:
   718  00000C                     ??_sev_display2:
   719  00000C                     write_2bytedata@data:
   720                           	opt callstack 0
   721                           
   722                           ; 2 bytes @ 0xB
   723  00000C                     	ds	1
   724  00000D                     sev_display1@DD0:
   725                           	opt callstack 0
   726  00000D                     sev_display2@DD0:
   727                           	opt callstack 0
   728  00000D                     ___fltol@sign1:
   729                           	opt callstack 0
   730                           
   731                           ; 1 bytes @ 0xC
   732  00000D                     	ds	1
   733  00000E                     ??___xxtofl:
   734  00000E                     write_2bytedata@uchr_dataL:
   735                           	opt callstack 0
   736  00000E                     Sring_7segdisplay@char3:
   737                           	opt callstack 0
   738  00000E                     ___fltol@exp1:
   739                           	opt callstack 0
   740                           
   741                           ; 1 bytes @ 0xD
   742  00000E                     	ds	1
   743  00000F                     write_2bytedata@uchr_dataH:
   744                           	opt callstack 0
   745  00000F                     Sring_7segdisplay@char2:
   746                           	opt callstack 0
   747                           
   748                           ; 1 bytes @ 0xE
   749  00000F                     	ds	1
   750  000010                     write_2bytedata@addr:
   751                           	opt callstack 0
   752  000010                     Sring_7segdisplay@char1:
   753                           	opt callstack 0
   754                           
   755                           ; 1 bytes @ 0xF
   756  000010                     	ds	1
   757  000011                     Sring_7segdisplay@char0:
   758                           	opt callstack 0
   759                           
   760                           ; 1 bytes @ 0x10
   761  000011                     	ds	1
   762  000012                     Sring_7segdisplay@line:
   763                           	opt callstack 0
   764  000012                     ___xxtofl@sign:
   765                           	opt callstack 0
   766                           
   767                           ; 1 bytes @ 0x11
   768  000012                     	ds	1
   769  000013                     ___xxtofl@exp:
   770                           	opt callstack 0
   771                           
   772                           ; 1 bytes @ 0x12
   773  000013                     	ds	1
   774  000014                     ___xxtofl@arg:
   775                           	opt callstack 0
   776                           
   777                           ; 4 bytes @ 0x13
   778  000014                     	ds	4
   779  000018                     ?___flmul:
   780                           	opt callstack 0
   781  000018                     ___flge@ff1:
   782                           	opt callstack 0
   783  000018                     ___flmul@b:
   784                           	opt callstack 0
   785                           
   786                           ; 4 bytes @ 0x17
   787  000018                     	ds	4
   788  00001C                     ___flge@ff2:
   789                           	opt callstack 0
   790  00001C                     ___flmul@a:
   791                           	opt callstack 0
   792                           
   793                           ; 4 bytes @ 0x1B
   794  00001C                     	ds	4
   795  000020                     ??___flmul:
   796  000020                     ??___flge:
   797                           
   798                           ; 1 bytes @ 0x1F
   799  000020                     	ds	4
   800  000024                     ___flmul@sign:
   801                           	opt callstack 0
   802                           
   803                           ; 1 bytes @ 0x23
   804  000024                     	ds	1
   805  000025                     ___flmul@aexp:
   806                           	opt callstack 0
   807                           
   808                           ; 1 bytes @ 0x24
   809  000025                     	ds	1
   810  000026                     ___flmul@grs:
   811                           	opt callstack 0
   812                           
   813                           ; 4 bytes @ 0x25
   814  000026                     	ds	4
   815  00002A                     ___flmul@bexp:
   816                           	opt callstack 0
   817                           
   818                           ; 1 bytes @ 0x29
   819  00002A                     	ds	1
   820  00002B                     ___flmul@prod:
   821                           	opt callstack 0
   822                           
   823                           ; 4 bytes @ 0x2A
   824  00002B                     	ds	4
   825  00002F                     ___flmul@temp:
   826                           	opt callstack 0
   827                           
   828                           ; 2 bytes @ 0x2E
   829  00002F                     	ds	2
   830  000031                     ?___fladd:
   831                           	opt callstack 0
   832  000031                     ?___fldiv:
   833                           	opt callstack 0
   834  000031                     ___fladd@b:
   835                           	opt callstack 0
   836  000031                     ___fldiv@b:
   837                           	opt callstack 0
   838                           
   839                           ; 4 bytes @ 0x30
   840  000031                     	ds	4
   841  000035                     ___fladd@a:
   842                           	opt callstack 0
   843  000035                     ___fldiv@a:
   844                           	opt callstack 0
   845                           
   846                           ; 4 bytes @ 0x34
   847  000035                     	ds	4
   848  000039                     ??___fladd:
   849  000039                     ??___fldiv:
   850                           
   851                           ; 1 bytes @ 0x38
   852  000039                     	ds	4
   853  00003D                     ___fladd@signs:
   854                           	opt callstack 0
   855  00003D                     ___fldiv@rem:
   856                           	opt callstack 0
   857                           
   858                           ; 4 bytes @ 0x3C
   859  00003D                     	ds	1
   860  00003E                     ___fladd@aexp:
   861                           	opt callstack 0
   862                           
   863                           ; 1 bytes @ 0x3D
   864  00003E                     	ds	1
   865  00003F                     ___fladd@bexp:
   866                           	opt callstack 0
   867                           
   868                           ; 1 bytes @ 0x3E
   869  00003F                     	ds	1
   870  000040                     ___fladd@grs:
   871                           	opt callstack 0
   872                           
   873                           ; 1 bytes @ 0x3F
   874  000040                     	ds	1
   875  000041                     ?___flsub:
   876                           	opt callstack 0
   877  000041                     ___fldiv@sign:
   878                           	opt callstack 0
   879  000041                     ___flsub@b:
   880                           	opt callstack 0
   881                           
   882                           ; 4 bytes @ 0x40
   883  000041                     	ds	1
   884  000042                     ___fldiv@new_exp:
   885                           	opt callstack 0
   886                           
   887                           ; 2 bytes @ 0x41
   888  000042                     	ds	2
   889  000044                     ___fldiv@grs:
   890                           	opt callstack 0
   891                           
   892                           ; 4 bytes @ 0x43
   893  000044                     	ds	1
   894  000045                     ___flsub@a:
   895                           	opt callstack 0
   896                           
   897                           ; 4 bytes @ 0x44
   898  000045                     	ds	3
   899  000048                     ___fldiv@bexp:
   900                           	opt callstack 0
   901                           
   902                           ; 1 bytes @ 0x47
   903  000048                     	ds	1
   904  000049                     ?_lowPassExponential:
   905                           	opt callstack 0
   906  000049                     ___fldiv@aexp:
   907                           	opt callstack 0
   908  000049                     lowPassExponential@input:
   909                           	opt callstack 0
   910                           
   911                           ; 4 bytes @ 0x48
   912  000049                     	ds	1
   913  00004A                     ??_ctrl_task:
   914                           
   915                           ; 1 bytes @ 0x49
   916  00004A                     	ds	3
   917  00004D                     lowPassExponential@average:
   918                           	opt callstack 0
   919                           
   920                           ; 4 bytes @ 0x4C
   921  00004D                     	ds	4
   922  000051                     lowPassExponential@factor:
   923                           	opt callstack 0
   924                           
   925                           ; 4 bytes @ 0x50
   926  000051                     	ds	4
   927  000055                     
   928                           ; 1 bytes @ 0x54
   929 ;;
   930 ;;Main: autosize = 0, tempsize = 4, incstack = 0, save=0
   931 ;;
   932 ;; *************** function _main *****************
   933 ;; Defined at:
   934 ;;		line 188 in file "main.c"
   935 ;; Parameters:    Size  Location     Type
   936 ;;		None
   937 ;; Auto vars:     Size  Location     Type
   938 ;;		None
   939 ;; Return value:  Size  Location     Type
   940 ;;                  1    wreg      void 
   941 ;; Registers used:
   942 ;;		wreg, status,2, status,0, prodl, prodh, cstack
   943 ;; Tracked objects:
   944 ;;		On entry : 0/0
   945 ;;		On exit  : 0/0
   946 ;;		Unchanged: 0/0
   947 ;; Data sizes:     COMRAM   BANK0   BANK1   BANK2   BANK3   BANK4   BANK5   BANK6   BANK7   BANK8   BANK9  BANK10  BANK1
      +1  BANK12  BANK13  BANK14  BANK15
   948 ;;      Params:         0       0       0       0       0       0       0       0       0       0       0       0       
      +0       0       0       0       0
   949 ;;      Locals:         0       0      12       0       0       0       0       0       0       0       0       0       
      +0       0       0       0       0
   950 ;;      Temps:          0       4       0       0       0       0       0       0       0       0       0       0       
      +0       0       0       0       0
   951 ;;      Totals:         0       4      12       0       0       0       0       0       0       0       0       0       
      +0       0       0       0       0
   952 ;;Total ram usage:       16 bytes
   953 ;; Hardware stack levels required when called:    7
   954 ;; This function calls:
   955 ;;		_ADC_GetConversion
   956 ;;		_DATAEE_ReadByte
   957 ;;		_Key_Service
   958 ;;		_SYSTEM_Initialize
   959 ;;		_TMR0_HasOverflowOccured
   960 ;;		_TMR0_ReadTimer
   961 ;;		_TMR1_SetInterruptHandler
   962 ;;		_TMR3_HasOverflowOccured
   963 ;;		_TMR3_ReadTimer
   964 ;;		___fladd
   965 ;;		___fldiv
   966 ;;		___flge
   967 ;;		___flmul
   968 ;;		___flsub
   969 ;;		___fltol
   970 ;;		___xxtofl
   971 ;;		_ctrl_task
   972 ;;		_low_pass_filter
   973 ;; This function is called by:
   974 ;;		Startup code after reset
   975 ;; This function uses a non-reentrant model
   976 ;;
   977                           
   978                           	psect	text0
   979  000050                     __ptext0:
   980                           	opt callstack 0
   981  000050                     _main:
   982                           	opt callstack 24
   983  000050                     
   984                           ;main.c: 190:     _delay((unsigned long)((1)*(32000000/4000.0)));
   985  000050  0E0B               	movlw	11
   986  000052  0100               	movlb	0	; () banked
   987  000054  6FF0               	movwf	??_main& (0+255),b
   988  000056  0E62               	movlw	98
   989  000058                     u7687:
   990  000058  2EE8               	decfsz	wreg,f,c
   991  00005A  D7FE               	bra	u7687
   992  00005C  2FF0               	decfsz	??_main& (0+255),f,b
   993  00005E  D7FC               	bra	u7687
   994  000060  F000               	nop	
   995  000062                     
   996                           ;main.c: 192:     SYSTEM_Initialize();
   997  000062  EC59  F01F         	call	_SYSTEM_Initialize	;wreg free
   998  000066  928B               	bcf	139,1,c	;volatile
   999  000068                     
  1000                           ;main.c: 197:     u8_led1 = 0;
  1001  000068  0E00               	movlw	0
  1002  00006A  0100               	movlb	0	; () banked
  1003  00006C  6FC4               	movwf	_u8_led1& (0+255),b
  1004  00006E                     
  1005                           ; BSR set to: 0
  1006  00006E  948B               	bcf	139,2,c	;volatile
  1007  000070                     
  1008                           ; BSR set to: 0
  1009                           ;main.c: 199:     u8_led2 = 0;
  1010  000070  0E00               	movlw	0
  1011  000072  6FC3               	movwf	_u8_led2& (0+255),b
  1012  000074                     
  1013                           ; BSR set to: 0
  1014                           ;main.c: 200:     _delay((unsigned long)((100)*(32000000/4000.0)));
  1015  000074  0E05               	movlw	5
  1016  000076  0100               	movlb	0	; () banked
  1017  000078  6FF1               	movwf	(??_main+1)& (0+255),b
  1018  00007A  0E0F               	movlw	15
  1019  00007C  6FF0               	movwf	??_main& (0+255),b
  1020  00007E  0EF1               	movlw	241
  1021  000080                     u7697:
  1022  000080  2EE8               	decfsz	wreg,f,c
  1023  000082  D7FE               	bra	u7697
  1024  000084  2FF0               	decfsz	??_main& (0+255),f,b
  1025  000086  D7FC               	bra	u7697
  1026  000088  2FF1               	decfsz	(??_main+1)& (0+255),f,b
  1027  00008A  D7FA               	bra	u7697
  1028  00008C                     
  1029                           ;main.c: 201:     _delay((unsigned long)((100)*(32000000/4000.0)));
  1030  00008C  0E05               	movlw	5
  1031  00008E  0100               	movlb	0	; () banked
  1032  000090  6FF1               	movwf	(??_main+1)& (0+255),b
  1033  000092  0E0F               	movlw	15
  1034  000094  6FF0               	movwf	??_main& (0+255),b
  1035  000096  0EF1               	movlw	241
  1036  000098                     u7707:
  1037  000098  2EE8               	decfsz	wreg,f,c
  1038  00009A  D7FE               	bra	u7707
  1039  00009C  2FF0               	decfsz	??_main& (0+255),f,b
  1040  00009E  D7FC               	bra	u7707
  1041  0000A0  2FF1               	decfsz	(??_main+1)& (0+255),f,b
  1042  0000A2  D7FA               	bra	u7707
  1043  0000A4                     
  1044                           ;main.c: 211:     u16_SETtemp = (unsigned int)((DATAEE_ReadByte(1)*100) + DATAEE_ReadByt
      +                          e(0));
  1045  0000A4  0E00               	movlw	0
  1046  0000A6  6E06               	movwf	(DATAEE_ReadByte@bAdd+1)^0,c
  1047  0000A8  0E00               	movlw	0
  1048  0000AA  6E05               	movwf	DATAEE_ReadByte@bAdd^0,c
  1049  0000AC  EC86  F01F         	call	_DATAEE_ReadByte	;wreg free
  1050  0000B0  0100               	movlb	0	; () banked
  1051  0000B2  6FF0               	movwf	??_main& (0+255),b
  1052  0000B4  0E00               	movlw	0
  1053  0000B6  6E06               	movwf	(DATAEE_ReadByte@bAdd+1)^0,c
  1054  0000B8  0E01               	movlw	1
  1055  0000BA  6E05               	movwf	DATAEE_ReadByte@bAdd^0,c
  1056  0000BC  EC86  F01F         	call	_DATAEE_ReadByte	;wreg free
  1057  0000C0  0100               	movlb	0	; () banked
  1058  0000C2  6FF1               	movwf	(??_main+1)& (0+255),b
  1059  0000C4  51F1               	movf	(??_main+1)& (0+255),w,b
  1060  0000C6  0D64               	mullw	100
  1061  0000C8  CFF3 F0F2          	movff	prodl,??_main+2
  1062  0000CC  CFF4 F0F3          	movff	prodh,??_main+3
  1063  0000D0  51F0               	movf	??_main& (0+255),w,b
  1064  0000D2  25F2               	addwf	(??_main+2)& (0+255),w,b
  1065  0000D4  6FAC               	movwf	_u16_SETtemp& (0+255),b
  1066  0000D6  0E00               	movlw	0
  1067  0000D8  21F3               	addwfc	(??_main+3)& (0+255),w,b
  1068  0000DA  6FAD               	movwf	(_u16_SETtemp+1)& (0+255),b
  1069  0000DC                     
  1070                           ; BSR set to: 0
  1071                           ;main.c: 212:     if(u16_SETtemp > 999)
  1072  0000DC  0EE8               	movlw	232
  1073  0000DE  5DAC               	subwf	_u16_SETtemp& (0+255),w,b
  1074  0000E0  0E03               	movlw	3
  1075  0000E2  59AD               	subwfb	(_u16_SETtemp+1)& (0+255),w,b
  1076  0000E4  A0D8               	btfss	status,0,c
  1077  0000E6  EF77  F000         	goto	u6921
  1078  0000EA  EF79  F000         	goto	u6920
  1079  0000EE                     u6921:
  1080  0000EE  EF7D  F000         	goto	l7690
  1081  0000F2                     u6920:
  1082  0000F2                     
  1083                           ; BSR set to: 0
  1084                           ;main.c: 213:         u16_SETtemp = 250;
  1085  0000F2  0E00               	movlw	0
  1086  0000F4  6FAD               	movwf	(_u16_SETtemp+1)& (0+255),b
  1087  0000F6  0EFA               	movlw	250
  1088  0000F8  6FAC               	movwf	_u16_SETtemp& (0+255),b
  1089  0000FA                     l7690:
  1090                           
  1091                           ; BSR set to: 0
  1092                           ;main.c: 214:     u16_SETtime = (unsigned int)((DATAEE_ReadByte(3)*100) + DATAEE_ReadByt
      +                          e(2));
  1093  0000FA  0E00               	movlw	0
  1094  0000FC  6E06               	movwf	(DATAEE_ReadByte@bAdd+1)^0,c
  1095  0000FE  0E02               	movlw	2
  1096  000100  6E05               	movwf	DATAEE_ReadByte@bAdd^0,c
  1097  000102  EC86  F01F         	call	_DATAEE_ReadByte	;wreg free
  1098  000106  0100               	movlb	0	; () banked
  1099  000108  6FF0               	movwf	??_main& (0+255),b
  1100  00010A  0E00               	movlw	0
  1101  00010C  6E06               	movwf	(DATAEE_ReadByte@bAdd+1)^0,c
  1102  00010E  0E03               	movlw	3
  1103  000110  6E05               	movwf	DATAEE_ReadByte@bAdd^0,c
  1104  000112  EC86  F01F         	call	_DATAEE_ReadByte	;wreg free
  1105  000116  0100               	movlb	0	; () banked
  1106  000118  6FF1               	movwf	(??_main+1)& (0+255),b
  1107  00011A  51F1               	movf	(??_main+1)& (0+255),w,b
  1108  00011C  0D64               	mullw	100
  1109  00011E  CFF3 F0F2          	movff	prodl,??_main+2
  1110  000122  CFF4 F0F3          	movff	prodh,??_main+3
  1111  000126  51F0               	movf	??_main& (0+255),w,b
  1112  000128  25F2               	addwf	(??_main+2)& (0+255),w,b
  1113  00012A  6FAA               	movwf	_u16_SETtime& (0+255),b
  1114  00012C  0E00               	movlw	0
  1115  00012E  21F3               	addwfc	(??_main+3)& (0+255),w,b
  1116  000130  6FAB               	movwf	(_u16_SETtime+1)& (0+255),b
  1117  000132                     
  1118                           ; BSR set to: 0
  1119                           ;main.c: 215:     if(u16_SETtime > 999)
  1120  000132  0EE8               	movlw	232
  1121  000134  5DAA               	subwf	_u16_SETtime& (0+255),w,b
  1122  000136  0E03               	movlw	3
  1123  000138  59AB               	subwfb	(_u16_SETtime+1)& (0+255),w,b
  1124  00013A  A0D8               	btfss	status,0,c
  1125  00013C  EFA2  F000         	goto	u6931
  1126  000140  EFA4  F000         	goto	u6930
  1127  000144                     u6931:
  1128  000144  EFA8  F000         	goto	l7696
  1129  000148                     u6930:
  1130  000148                     
  1131                           ; BSR set to: 0
  1132                           ;main.c: 216:         u16_SETtime = 20;
  1133  000148  0E00               	movlw	0
  1134  00014A  6FAB               	movwf	(_u16_SETtime+1)& (0+255),b
  1135  00014C  0E14               	movlw	20
  1136  00014E  6FAA               	movwf	_u16_SETtime& (0+255),b
  1137  000150                     l7696:
  1138                           
  1139                           ; BSR set to: 0
  1140                           ;main.c: 217:     u16_off = (unsigned int)((DATAEE_ReadByte(5)*100) + DATAEE_ReadByte(4)
      +                          );
  1141  000150  0E00               	movlw	0
  1142  000152  6E06               	movwf	(DATAEE_ReadByte@bAdd+1)^0,c
  1143  000154  0E04               	movlw	4
  1144  000156  6E05               	movwf	DATAEE_ReadByte@bAdd^0,c
  1145  000158  EC86  F01F         	call	_DATAEE_ReadByte	;wreg free
  1146  00015C  0100               	movlb	0	; () banked
  1147  00015E  6FF0               	movwf	??_main& (0+255),b
  1148  000160  0E00               	movlw	0
  1149  000162  6E06               	movwf	(DATAEE_ReadByte@bAdd+1)^0,c
  1150  000164  0E05               	movlw	5
  1151  000166  6E05               	movwf	DATAEE_ReadByte@bAdd^0,c
  1152  000168  EC86  F01F         	call	_DATAEE_ReadByte	;wreg free
  1153  00016C  0100               	movlb	0	; () banked
  1154  00016E  6FF1               	movwf	(??_main+1)& (0+255),b
  1155  000170  51F1               	movf	(??_main+1)& (0+255),w,b
  1156  000172  0D64               	mullw	100
  1157  000174  CFF3 F0F2          	movff	prodl,??_main+2
  1158  000178  CFF4 F0F3          	movff	prodh,??_main+3
  1159  00017C  51F0               	movf	??_main& (0+255),w,b
  1160  00017E  25F2               	addwf	(??_main+2)& (0+255),w,b
  1161  000180  6FA6               	movwf	_u16_off& (0+255),b
  1162  000182  0E00               	movlw	0
  1163  000184  21F3               	addwfc	(??_main+3)& (0+255),w,b
  1164  000186  6FA7               	movwf	(_u16_off+1)& (0+255),b
  1165  000188                     
  1166                           ; BSR set to: 0
  1167                           ;main.c: 218:     if(u16_off > 999)
  1168  000188  0EE8               	movlw	232
  1169  00018A  5DA6               	subwf	_u16_off& (0+255),w,b
  1170  00018C  0E03               	movlw	3
  1171  00018E  59A7               	subwfb	(_u16_off+1)& (0+255),w,b
  1172  000190  A0D8               	btfss	status,0,c
  1173  000192  EFCD  F000         	goto	u6941
  1174  000196  EFCF  F000         	goto	u6940
  1175  00019A                     u6941:
  1176  00019A  EFD3  F000         	goto	l7702
  1177  00019E                     u6940:
  1178  00019E                     
  1179                           ; BSR set to: 0
  1180                           ;main.c: 219:         u16_off = 0;
  1181  00019E  0E00               	movlw	0
  1182  0001A0  6FA7               	movwf	(_u16_off+1)& (0+255),b
  1183  0001A2  0E00               	movlw	0
  1184  0001A4  6FA6               	movwf	_u16_off& (0+255),b
  1185  0001A6                     l7702:
  1186                           
  1187                           ; BSR set to: 0
  1188                           ;main.c: 220:     u16_pb = (unsigned int)((DATAEE_ReadByte(7)*100) + DATAEE_ReadByte(6))
      +                          ;
  1189  0001A6  0E00               	movlw	0
  1190  0001A8  6E06               	movwf	(DATAEE_ReadByte@bAdd+1)^0,c
  1191  0001AA  0E06               	movlw	6
  1192  0001AC  6E05               	movwf	DATAEE_ReadByte@bAdd^0,c
  1193  0001AE  EC86  F01F         	call	_DATAEE_ReadByte	;wreg free
  1194  0001B2  0100               	movlb	0	; () banked
  1195  0001B4  6FF0               	movwf	??_main& (0+255),b
  1196  0001B6  0E00               	movlw	0
  1197  0001B8  6E06               	movwf	(DATAEE_ReadByte@bAdd+1)^0,c
  1198  0001BA  0E07               	movlw	7
  1199  0001BC  6E05               	movwf	DATAEE_ReadByte@bAdd^0,c
  1200  0001BE  EC86  F01F         	call	_DATAEE_ReadByte	;wreg free
  1201  0001C2  0100               	movlb	0	; () banked
  1202  0001C4  6FF1               	movwf	(??_main+1)& (0+255),b
  1203  0001C6  51F1               	movf	(??_main+1)& (0+255),w,b
  1204  0001C8  0D64               	mullw	100
  1205  0001CA  CFF3 F0F2          	movff	prodl,??_main+2
  1206  0001CE  CFF4 F0F3          	movff	prodh,??_main+3
  1207  0001D2  51F0               	movf	??_main& (0+255),w,b
  1208  0001D4  25F2               	addwf	(??_main+2)& (0+255),w,b
  1209  0001D6  6FA4               	movwf	_u16_pb& (0+255),b
  1210  0001D8  0E00               	movlw	0
  1211  0001DA  21F3               	addwfc	(??_main+3)& (0+255),w,b
  1212  0001DC  6FA5               	movwf	(_u16_pb+1)& (0+255),b
  1213  0001DE                     
  1214                           ; BSR set to: 0
  1215                           ;main.c: 221:     if(u16_pb > 999)
  1216  0001DE  0EE8               	movlw	232
  1217  0001E0  5DA4               	subwf	_u16_pb& (0+255),w,b
  1218  0001E2  0E03               	movlw	3
  1219  0001E4  59A5               	subwfb	(_u16_pb+1)& (0+255),w,b
  1220  0001E6  A0D8               	btfss	status,0,c
  1221  0001E8  EFF8  F000         	goto	u6951
  1222  0001EC  EFFA  F000         	goto	u6950
  1223  0001F0                     u6951:
  1224  0001F0  EFFE  F000         	goto	l7708
  1225  0001F4                     u6950:
  1226  0001F4                     
  1227                           ; BSR set to: 0
  1228                           ;main.c: 222:         u16_pb = 15;
  1229  0001F4  0E00               	movlw	0
  1230  0001F6  6FA5               	movwf	(_u16_pb+1)& (0+255),b
  1231  0001F8  0E0F               	movlw	15
  1232  0001FA  6FA4               	movwf	_u16_pb& (0+255),b
  1233  0001FC                     l7708:
  1234                           
  1235                           ; BSR set to: 0
  1236                           ;main.c: 223:     u16_ib = (unsigned int)((DATAEE_ReadByte(9)*100) + DATAEE_ReadByte(8))
      +                          ;
  1237  0001FC  0E00               	movlw	0
  1238  0001FE  6E06               	movwf	(DATAEE_ReadByte@bAdd+1)^0,c
  1239  000200  0E08               	movlw	8
  1240  000202  6E05               	movwf	DATAEE_ReadByte@bAdd^0,c
  1241  000204  EC86  F01F         	call	_DATAEE_ReadByte	;wreg free
  1242  000208  0100               	movlb	0	; () banked
  1243  00020A  6FF0               	movwf	??_main& (0+255),b
  1244  00020C  0E00               	movlw	0
  1245  00020E  6E06               	movwf	(DATAEE_ReadByte@bAdd+1)^0,c
  1246  000210  0E09               	movlw	9
  1247  000212  6E05               	movwf	DATAEE_ReadByte@bAdd^0,c
  1248  000214  EC86  F01F         	call	_DATAEE_ReadByte	;wreg free
  1249  000218  0100               	movlb	0	; () banked
  1250  00021A  6FF1               	movwf	(??_main+1)& (0+255),b
  1251  00021C  51F1               	movf	(??_main+1)& (0+255),w,b
  1252  00021E  0D64               	mullw	100
  1253  000220  CFF3 F0F2          	movff	prodl,??_main+2
  1254  000224  CFF4 F0F3          	movff	prodh,??_main+3
  1255  000228  51F0               	movf	??_main& (0+255),w,b
  1256  00022A  25F2               	addwf	(??_main+2)& (0+255),w,b
  1257  00022C  6FA2               	movwf	_u16_ib& (0+255),b
  1258  00022E  0E00               	movlw	0
  1259  000230  21F3               	addwfc	(??_main+3)& (0+255),w,b
  1260  000232  6FA3               	movwf	(_u16_ib+1)& (0+255),b
  1261  000234                     
  1262                           ; BSR set to: 0
  1263                           ;main.c: 224:     if(u16_ib > 999)
  1264  000234  0EE8               	movlw	232
  1265  000236  5DA2               	subwf	_u16_ib& (0+255),w,b
  1266  000238  0E03               	movlw	3
  1267  00023A  59A3               	subwfb	(_u16_ib+1)& (0+255),w,b
  1268  00023C  A0D8               	btfss	status,0,c
  1269  00023E  EF23  F001         	goto	u6961
  1270  000242  EF25  F001         	goto	u6960
  1271  000246                     u6961:
  1272  000246  EF29  F001         	goto	l7714
  1273  00024A                     u6960:
  1274  00024A                     
  1275                           ; BSR set to: 0
  1276                           ;main.c: 225:         u16_ib = 60;
  1277  00024A  0E00               	movlw	0
  1278  00024C  6FA3               	movwf	(_u16_ib+1)& (0+255),b
  1279  00024E  0E3C               	movlw	60
  1280  000250  6FA2               	movwf	_u16_ib& (0+255),b
  1281  000252                     l7714:
  1282                           
  1283                           ; BSR set to: 0
  1284                           ;main.c: 226:     u16_plm = (unsigned int)((DATAEE_ReadByte(11)*100) + DATAEE_ReadByte(1
      +                          0));
  1285  000252  0E00               	movlw	0
  1286  000254  6E06               	movwf	(DATAEE_ReadByte@bAdd+1)^0,c
  1287  000256  0E0A               	movlw	10
  1288  000258  6E05               	movwf	DATAEE_ReadByte@bAdd^0,c
  1289  00025A  EC86  F01F         	call	_DATAEE_ReadByte	;wreg free
  1290  00025E  0100               	movlb	0	; () banked
  1291  000260  6FF0               	movwf	??_main& (0+255),b
  1292  000262  0E00               	movlw	0
  1293  000264  6E06               	movwf	(DATAEE_ReadByte@bAdd+1)^0,c
  1294  000266  0E0B               	movlw	11
  1295  000268  6E05               	movwf	DATAEE_ReadByte@bAdd^0,c
  1296  00026A  EC86  F01F         	call	_DATAEE_ReadByte	;wreg free
  1297  00026E  0100               	movlb	0	; () banked
  1298  000270  6FF1               	movwf	(??_main+1)& (0+255),b
  1299  000272  51F1               	movf	(??_main+1)& (0+255),w,b
  1300  000274  0D64               	mullw	100
  1301  000276  CFF3 F0F2          	movff	prodl,??_main+2
  1302  00027A  CFF4 F0F3          	movff	prodh,??_main+3
  1303  00027E  51F0               	movf	??_main& (0+255),w,b
  1304  000280  25F2               	addwf	(??_main+2)& (0+255),w,b
  1305  000282  6FD2               	movwf	_u16_plm& (0+255),b
  1306  000284  0E00               	movlw	0
  1307  000286  21F3               	addwfc	(??_main+3)& (0+255),w,b
  1308  000288  6FD3               	movwf	(_u16_plm+1)& (0+255),b
  1309  00028A                     
  1310                           ; BSR set to: 0
  1311                           ;main.c: 227:     if(u16_plm > 999)
  1312  00028A  0EE8               	movlw	232
  1313  00028C  5DD2               	subwf	_u16_plm& (0+255),w,b
  1314  00028E  0E03               	movlw	3
  1315  000290  59D3               	subwfb	(_u16_plm+1)& (0+255),w,b
  1316  000292  A0D8               	btfss	status,0,c
  1317  000294  EF4E  F001         	goto	u6971
  1318  000298  EF50  F001         	goto	u6970
  1319  00029C                     u6971:
  1320  00029C  EF54  F001         	goto	l7720
  1321  0002A0                     u6970:
  1322  0002A0                     
  1323                           ; BSR set to: 0
  1324                           ;main.c: 228:         u16_plm = 50;
  1325  0002A0  0E00               	movlw	0
  1326  0002A2  6FD3               	movwf	(_u16_plm+1)& (0+255),b
  1327  0002A4  0E32               	movlw	50
  1328  0002A6  6FD2               	movwf	_u16_plm& (0+255),b
  1329  0002A8                     l7720:
  1330                           
  1331                           ; BSR set to: 0
  1332                           ;main.c: 229:     u16_hys = (unsigned int)((DATAEE_ReadByte(13)*100) + DATAEE_ReadByte(1
      +                          2));
  1333  0002A8  0E00               	movlw	0
  1334  0002AA  6E06               	movwf	(DATAEE_ReadByte@bAdd+1)^0,c
  1335  0002AC  0E0C               	movlw	12
  1336  0002AE  6E05               	movwf	DATAEE_ReadByte@bAdd^0,c
  1337  0002B0  EC86  F01F         	call	_DATAEE_ReadByte	;wreg free
  1338  0002B4  0100               	movlb	0	; () banked
  1339  0002B6  6FF0               	movwf	??_main& (0+255),b
  1340  0002B8  0E00               	movlw	0
  1341  0002BA  6E06               	movwf	(DATAEE_ReadByte@bAdd+1)^0,c
  1342  0002BC  0E0D               	movlw	13
  1343  0002BE  6E05               	movwf	DATAEE_ReadByte@bAdd^0,c
  1344  0002C0  EC86  F01F         	call	_DATAEE_ReadByte	;wreg free
  1345  0002C4  0100               	movlb	0	; () banked
  1346  0002C6  6FF1               	movwf	(??_main+1)& (0+255),b
  1347  0002C8  51F1               	movf	(??_main+1)& (0+255),w,b
  1348  0002CA  0D64               	mullw	100
  1349  0002CC  CFF3 F0F2          	movff	prodl,??_main+2
  1350  0002D0  CFF4 F0F3          	movff	prodh,??_main+3
  1351  0002D4  51F0               	movf	??_main& (0+255),w,b
  1352  0002D6  25F2               	addwf	(??_main+2)& (0+255),w,b
  1353  0002D8  6FA0               	movwf	_u16_hys& (0+255),b
  1354  0002DA  0E00               	movlw	0
  1355  0002DC  21F3               	addwfc	(??_main+3)& (0+255),w,b
  1356  0002DE  6FA1               	movwf	(_u16_hys+1)& (0+255),b
  1357  0002E0                     
  1358                           ; BSR set to: 0
  1359                           ;main.c: 230:     if(u16_hys > 999)
  1360  0002E0  0EE8               	movlw	232
  1361  0002E2  5DA0               	subwf	_u16_hys& (0+255),w,b
  1362  0002E4  0E03               	movlw	3
  1363  0002E6  59A1               	subwfb	(_u16_hys+1)& (0+255),w,b
  1364  0002E8  A0D8               	btfss	status,0,c
  1365  0002EA  EF79  F001         	goto	u6981
  1366  0002EE  EF7B  F001         	goto	u6980
  1367  0002F2                     u6981:
  1368  0002F2  EF7F  F001         	goto	l7726
  1369  0002F6                     u6980:
  1370  0002F6                     
  1371                           ; BSR set to: 0
  1372                           ;main.c: 231:         u16_hys = 10;
  1373  0002F6  0E00               	movlw	0
  1374  0002F8  6FA1               	movwf	(_u16_hys+1)& (0+255),b
  1375  0002FA  0E0A               	movlw	10
  1376  0002FC  6FA0               	movwf	_u16_hys& (0+255),b
  1377  0002FE                     l7726:
  1378                           
  1379                           ; BSR set to: 0
  1380                           ;main.c: 232:     u16_cg1 = (unsigned int)((DATAEE_ReadByte(15)*100) + DATAEE_ReadByte(1
      +                          4));
  1381  0002FE  0E00               	movlw	0
  1382  000300  6E06               	movwf	(DATAEE_ReadByte@bAdd+1)^0,c
  1383  000302  0E0E               	movlw	14
  1384  000304  6E05               	movwf	DATAEE_ReadByte@bAdd^0,c
  1385  000306  EC86  F01F         	call	_DATAEE_ReadByte	;wreg free
  1386  00030A  0100               	movlb	0	; () banked
  1387  00030C  6FF0               	movwf	??_main& (0+255),b
  1388  00030E  0E00               	movlw	0
  1389  000310  6E06               	movwf	(DATAEE_ReadByte@bAdd+1)^0,c
  1390  000312  0E0F               	movlw	15
  1391  000314  6E05               	movwf	DATAEE_ReadByte@bAdd^0,c
  1392  000316  EC86  F01F         	call	_DATAEE_ReadByte	;wreg free
  1393  00031A  0100               	movlb	0	; () banked
  1394  00031C  6FF1               	movwf	(??_main+1)& (0+255),b
  1395  00031E  51F1               	movf	(??_main+1)& (0+255),w,b
  1396  000320  0D64               	mullw	100
  1397  000322  CFF3 F0F2          	movff	prodl,??_main+2
  1398  000326  CFF4 F0F3          	movff	prodh,??_main+3
  1399  00032A  51F0               	movf	??_main& (0+255),w,b
  1400  00032C  25F2               	addwf	(??_main+2)& (0+255),w,b
  1401  00032E  6F9E               	movwf	_u16_cg1& (0+255),b
  1402  000330  0E00               	movlw	0
  1403  000332  21F3               	addwfc	(??_main+3)& (0+255),w,b
  1404  000334  6F9F               	movwf	(_u16_cg1+1)& (0+255),b
  1405  000336                     
  1406                           ; BSR set to: 0
  1407                           ;main.c: 233:     if(u16_cg1 > 999)
  1408  000336  0EE8               	movlw	232
  1409  000338  5D9E               	subwf	_u16_cg1& (0+255),w,b
  1410  00033A  0E03               	movlw	3
  1411  00033C  599F               	subwfb	(_u16_cg1+1)& (0+255),w,b
  1412  00033E  A0D8               	btfss	status,0,c
  1413  000340  EFA4  F001         	goto	u6991
  1414  000344  EFA6  F001         	goto	u6990
  1415  000348                     u6991:
  1416  000348  EFAA  F001         	goto	l7732
  1417  00034C                     u6990:
  1418  00034C                     
  1419                           ; BSR set to: 0
  1420                           ;main.c: 234:         u16_cg1 = 3;
  1421  00034C  0E00               	movlw	0
  1422  00034E  6F9F               	movwf	(_u16_cg1+1)& (0+255),b
  1423  000350  0E03               	movlw	3
  1424  000352  6F9E               	movwf	_u16_cg1& (0+255),b
  1425  000354                     l7732:
  1426                           
  1427                           ; BSR set to: 0
  1428                           ;main.c: 235:     u16_cg2 = (unsigned int)((DATAEE_ReadByte(17)*100) + DATAEE_ReadByte(1
      +                          6));
  1429  000354  0E00               	movlw	0
  1430  000356  6E06               	movwf	(DATAEE_ReadByte@bAdd+1)^0,c
  1431  000358  0E10               	movlw	16
  1432  00035A  6E05               	movwf	DATAEE_ReadByte@bAdd^0,c
  1433  00035C  EC86  F01F         	call	_DATAEE_ReadByte	;wreg free
  1434  000360  0100               	movlb	0	; () banked
  1435  000362  6FF0               	movwf	??_main& (0+255),b
  1436  000364  0E00               	movlw	0
  1437  000366  6E06               	movwf	(DATAEE_ReadByte@bAdd+1)^0,c
  1438  000368  0E11               	movlw	17
  1439  00036A  6E05               	movwf	DATAEE_ReadByte@bAdd^0,c
  1440  00036C  EC86  F01F         	call	_DATAEE_ReadByte	;wreg free
  1441  000370  0100               	movlb	0	; () banked
  1442  000372  6FF1               	movwf	(??_main+1)& (0+255),b
  1443  000374  51F1               	movf	(??_main+1)& (0+255),w,b
  1444  000376  0D64               	mullw	100
  1445  000378  CFF3 F0F2          	movff	prodl,??_main+2
  1446  00037C  CFF4 F0F3          	movff	prodh,??_main+3
  1447  000380  51F0               	movf	??_main& (0+255),w,b
  1448  000382  25F2               	addwf	(??_main+2)& (0+255),w,b
  1449  000384  6F9C               	movwf	_u16_cg2& (0+255),b
  1450  000386  0E00               	movlw	0
  1451  000388  21F3               	addwfc	(??_main+3)& (0+255),w,b
  1452  00038A  6F9D               	movwf	(_u16_cg2+1)& (0+255),b
  1453  00038C                     
  1454                           ; BSR set to: 0
  1455                           ;main.c: 236:     if(u16_cg2 > 999)
  1456  00038C  0EE8               	movlw	232
  1457  00038E  5D9C               	subwf	_u16_cg2& (0+255),w,b
  1458  000390  0E03               	movlw	3
  1459  000392  599D               	subwfb	(_u16_cg2+1)& (0+255),w,b
  1460  000394  A0D8               	btfss	status,0,c
  1461  000396  EFCF  F001         	goto	u7001
  1462  00039A  EFD1  F001         	goto	u7000
  1463  00039E                     u7001:
  1464  00039E  EFD5  F001         	goto	l7738
  1465  0003A2                     u7000:
  1466  0003A2                     
  1467                           ; BSR set to: 0
  1468                           ;main.c: 237:         u16_cg2 = 665;
  1469  0003A2  0E02               	movlw	2
  1470  0003A4  6F9D               	movwf	(_u16_cg2+1)& (0+255),b
  1471  0003A6  0E99               	movlw	153
  1472  0003A8  6F9C               	movwf	_u16_cg2& (0+255),b
  1473  0003AA                     l7738:
  1474                           
  1475                           ; BSR set to: 0
  1476                           ;main.c: 238:     u16_cof = (unsigned int)((DATAEE_ReadByte(19)*100) + DATAEE_ReadByte(1
      +                          8));
  1477  0003AA  0E00               	movlw	0
  1478  0003AC  6E06               	movwf	(DATAEE_ReadByte@bAdd+1)^0,c
  1479  0003AE  0E12               	movlw	18
  1480  0003B0  6E05               	movwf	DATAEE_ReadByte@bAdd^0,c
  1481  0003B2  EC86  F01F         	call	_DATAEE_ReadByte	;wreg free
  1482  0003B6  0100               	movlb	0	; () banked
  1483  0003B8  6FF0               	movwf	??_main& (0+255),b
  1484  0003BA  0E00               	movlw	0
  1485  0003BC  6E06               	movwf	(DATAEE_ReadByte@bAdd+1)^0,c
  1486  0003BE  0E13               	movlw	19
  1487  0003C0  6E05               	movwf	DATAEE_ReadByte@bAdd^0,c
  1488  0003C2  EC86  F01F         	call	_DATAEE_ReadByte	;wreg free
  1489  0003C6  0100               	movlb	0	; () banked
  1490  0003C8  6FF1               	movwf	(??_main+1)& (0+255),b
  1491  0003CA  51F1               	movf	(??_main+1)& (0+255),w,b
  1492  0003CC  0D64               	mullw	100
  1493  0003CE  CFF3 F0F2          	movff	prodl,??_main+2
  1494  0003D2  CFF4 F0F3          	movff	prodh,??_main+3
  1495  0003D6  51F0               	movf	??_main& (0+255),w,b
  1496  0003D8  25F2               	addwf	(??_main+2)& (0+255),w,b
  1497  0003DA  6F9A               	movwf	_u16_cof& (0+255),b
  1498  0003DC  0E00               	movlw	0
  1499  0003DE  21F3               	addwfc	(??_main+3)& (0+255),w,b
  1500  0003E0  6F9B               	movwf	(_u16_cof+1)& (0+255),b
  1501  0003E2                     
  1502                           ; BSR set to: 0
  1503                           ;main.c: 239:     if(u16_cof > 999)
  1504  0003E2  0EE8               	movlw	232
  1505  0003E4  5D9A               	subwf	_u16_cof& (0+255),w,b
  1506  0003E6  0E03               	movlw	3
  1507  0003E8  599B               	subwfb	(_u16_cof+1)& (0+255),w,b
  1508  0003EA  A0D8               	btfss	status,0,c
  1509  0003EC  EFFA  F001         	goto	u7011
  1510  0003F0  EFFC  F001         	goto	u7010
  1511  0003F4                     u7011:
  1512  0003F4  EF00  F002         	goto	l7744
  1513  0003F8                     u7010:
  1514  0003F8                     
  1515                           ; BSR set to: 0
  1516                           ;main.c: 240:         u16_cof = 134;
  1517  0003F8  0E00               	movlw	0
  1518  0003FA  6F9B               	movwf	(_u16_cof+1)& (0+255),b
  1519  0003FC  0E86               	movlw	134
  1520  0003FE  6F9A               	movwf	_u16_cof& (0+255),b
  1521  000400                     l7744:
  1522                           
  1523                           ; BSR set to: 0
  1524                           ;main.c: 241:     u16_mde = (unsigned int)((DATAEE_ReadByte(21)*100) + DATAEE_ReadByte(2
      +                          0));
  1525  000400  0E00               	movlw	0
  1526  000402  6E06               	movwf	(DATAEE_ReadByte@bAdd+1)^0,c
  1527  000404  0E14               	movlw	20
  1528  000406  6E05               	movwf	DATAEE_ReadByte@bAdd^0,c
  1529  000408  EC86  F01F         	call	_DATAEE_ReadByte	;wreg free
  1530  00040C  0100               	movlb	0	; () banked
  1531  00040E  6FF0               	movwf	??_main& (0+255),b
  1532  000410  0E00               	movlw	0
  1533  000412  6E06               	movwf	(DATAEE_ReadByte@bAdd+1)^0,c
  1534  000414  0E15               	movlw	21
  1535  000416  6E05               	movwf	DATAEE_ReadByte@bAdd^0,c
  1536  000418  EC86  F01F         	call	_DATAEE_ReadByte	;wreg free
  1537  00041C  0100               	movlb	0	; () banked
  1538  00041E  6FF1               	movwf	(??_main+1)& (0+255),b
  1539  000420  51F1               	movf	(??_main+1)& (0+255),w,b
  1540  000422  0D64               	mullw	100
  1541  000424  CFF3 F0F2          	movff	prodl,??_main+2
  1542  000428  CFF4 F0F3          	movff	prodh,??_main+3
  1543  00042C  51F0               	movf	??_main& (0+255),w,b
  1544  00042E  25F2               	addwf	(??_main+2)& (0+255),w,b
  1545  000430  6F98               	movwf	_u16_mde& (0+255),b
  1546  000432  0E00               	movlw	0
  1547  000434  21F3               	addwfc	(??_main+3)& (0+255),w,b
  1548  000436  6F99               	movwf	(_u16_mde+1)& (0+255),b
  1549  000438                     
  1550                           ; BSR set to: 0
  1551                           ;main.c: 242:     if(u16_mde > 999)
  1552  000438  0EE8               	movlw	232
  1553  00043A  5D98               	subwf	_u16_mde& (0+255),w,b
  1554  00043C  0E03               	movlw	3
  1555  00043E  5999               	subwfb	(_u16_mde+1)& (0+255),w,b
  1556  000440  A0D8               	btfss	status,0,c
  1557  000442  EF25  F002         	goto	u7021
  1558  000446  EF27  F002         	goto	u7020
  1559  00044A                     u7021:
  1560  00044A  EF2B  F002         	goto	l7750
  1561  00044E                     u7020:
  1562  00044E                     
  1563                           ; BSR set to: 0
  1564                           ;main.c: 243:         u16_mde = 0;
  1565  00044E  0E00               	movlw	0
  1566  000450  6F99               	movwf	(_u16_mde+1)& (0+255),b
  1567  000452  0E00               	movlw	0
  1568  000454  6F98               	movwf	_u16_mde& (0+255),b
  1569  000456                     l7750:
  1570                           
  1571                           ; BSR set to: 0
  1572                           ;main.c: 266:     TMR1_SetInterruptHandler (myTimer1ISR);
  1573  000456  0E22               	movlw	low _myTimer1ISR
  1574  000458  6E05               	movwf	TMR1_SetInterruptHandler@InterruptHandler^0,c
  1575  00045A  0E3A               	movlw	high _myTimer1ISR
  1576  00045C  6E06               	movwf	(TMR1_SetInterruptHandler@InterruptHandler+1)^0,c
  1577  00045E  ECCA  F01F         	call	_TMR1_SetInterruptHandler	;wreg free
  1578  000462                     
  1579                           ;main.c: 268:     (INTCONbits.GIE = 1);
  1580  000462  8EF2               	bsf	242,7,c	;volatile
  1581  000464                     
  1582                           ;main.c: 274:     (INTCONbits.PEIE = 1);
  1583  000464  8CF2               	bsf	242,6,c	;volatile
  1584  000466                     
  1585                           ;main.c: 278:     kp = (1.0*u16_plm)/u16_pb;
  1586  000466  0E00               	movlw	0
  1587  000468  6E1C               	movwf	___flmul@a^0,c
  1588  00046A  0E00               	movlw	0
  1589  00046C  6E1D               	movwf	(___flmul@a+1)^0,c
  1590  00046E  0E80               	movlw	128
  1591  000470  6E1E               	movwf	(___flmul@a+2)^0,c
  1592  000472  0E3F               	movlw	63
  1593  000474  6E1F               	movwf	(___flmul@a+3)^0,c
  1594  000476  C0D2  F00A         	movff	_u16_plm,___xxtofl@val
  1595  00047A  C0D3  F00B         	movff	_u16_plm+1,___xxtofl@val+1
  1596  00047E  6A0C               	clrf	(___xxtofl@val+2)^0,c
  1597  000480  6A0D               	clrf	(___xxtofl@val+3)^0,c
  1598  000482  0E00               	movlw	0
  1599  000484  EC46  F017         	call	___xxtofl
  1600  000488  C00A  F018         	movff	?___xxtofl,___flmul@b
  1601  00048C  C00B  F019         	movff	?___xxtofl+1,___flmul@b+1
  1602  000490  C00C  F01A         	movff	?___xxtofl+2,___flmul@b+2
  1603  000494  C00D  F01B         	movff	?___xxtofl+3,___flmul@b+3
  1604  000498  EC1F  F012         	call	___flmul	;wreg free
  1605  00049C  C018  F031         	movff	?___flmul,___fldiv@b
  1606  0004A0  C019  F032         	movff	?___flmul+1,___fldiv@b+1
  1607  0004A4  C01A  F033         	movff	?___flmul+2,___fldiv@b+2
  1608  0004A8  C01B  F034         	movff	?___flmul+3,___fldiv@b+3
  1609  0004AC  C0A4  F00A         	movff	_u16_pb,___xxtofl@val
  1610  0004B0  C0A5  F00B         	movff	_u16_pb+1,___xxtofl@val+1
  1611  0004B4  6A0C               	clrf	(___xxtofl@val+2)^0,c
  1612  0004B6  6A0D               	clrf	(___xxtofl@val+3)^0,c
  1613  0004B8  0E00               	movlw	0
  1614  0004BA  EC46  F017         	call	___xxtofl
  1615  0004BE  C00A  F035         	movff	?___xxtofl,___fldiv@a
  1616  0004C2  C00B  F036         	movff	?___xxtofl+1,___fldiv@a+1
  1617  0004C6  C00C  F037         	movff	?___xxtofl+2,___fldiv@a+2
  1618  0004CA  C00D  F038         	movff	?___xxtofl+3,___fldiv@a+3
  1619  0004CE  EC34  F014         	call	___fldiv	;wreg free
  1620  0004D2  C031  F154         	movff	?___fldiv,_kp
  1621  0004D6  C032  F155         	movff	?___fldiv+1,_kp+1
  1622  0004DA  C033  F156         	movff	?___fldiv+2,_kp+2
  1623  0004DE  C034  F157         	movff	?___fldiv+3,_kp+3
  1624  0004E2                     
  1625                           ;main.c: 279:     ki = u16_ib;
  1626  0004E2  C0A2  F00A         	movff	_u16_ib,___xxtofl@val
  1627  0004E6  C0A3  F00B         	movff	_u16_ib+1,___xxtofl@val+1
  1628  0004EA  6A0C               	clrf	(___xxtofl@val+2)^0,c
  1629  0004EC  6A0D               	clrf	(___xxtofl@val+3)^0,c
  1630  0004EE  0E00               	movlw	0
  1631  0004F0  EC46  F017         	call	___xxtofl
  1632  0004F4  C00A  F0F4         	movff	?___xxtofl,_ki
  1633  0004F8  C00B  F0F5         	movff	?___xxtofl+1,_ki+1
  1634  0004FC  C00C  F0F6         	movff	?___xxtofl+2,_ki+2
  1635  000500  C00D  F0F7         	movff	?___xxtofl+3,_ki+3
  1636  000504                     
  1637                           ;main.c: 280:     ki = 1.0/(ki*10.0);
  1638  000504  0E00               	movlw	0
  1639  000506  6E31               	movwf	___fldiv@b^0,c
  1640  000508  0E00               	movlw	0
  1641  00050A  6E32               	movwf	(___fldiv@b+1)^0,c
  1642  00050C  0E80               	movlw	128
  1643  00050E  6E33               	movwf	(___fldiv@b+2)^0,c
  1644  000510  0E3F               	movlw	63
  1645  000512  6E34               	movwf	(___fldiv@b+3)^0,c
  1646  000514  0E00               	movlw	0
  1647  000516  6E1C               	movwf	___flmul@a^0,c
  1648  000518  0E00               	movlw	0
  1649  00051A  6E1D               	movwf	(___flmul@a+1)^0,c
  1650  00051C  0E20               	movlw	32
  1651  00051E  6E1E               	movwf	(___flmul@a+2)^0,c
  1652  000520  0E41               	movlw	65
  1653  000522  6E1F               	movwf	(___flmul@a+3)^0,c
  1654  000524  C0F4  F018         	movff	_ki,___flmul@b
  1655  000528  C0F5  F019         	movff	_ki+1,___flmul@b+1
  1656  00052C  C0F6  F01A         	movff	_ki+2,___flmul@b+2
  1657  000530  C0F7  F01B         	movff	_ki+3,___flmul@b+3
  1658  000534  EC1F  F012         	call	___flmul	;wreg free
  1659  000538  C018  F035         	movff	?___flmul,___fldiv@a
  1660  00053C  C019  F036         	movff	?___flmul+1,___fldiv@a+1
  1661  000540  C01A  F037         	movff	?___flmul+2,___fldiv@a+2
  1662  000544  C01B  F038         	movff	?___flmul+3,___fldiv@a+3
  1663  000548  EC34  F014         	call	___fldiv	;wreg free
  1664  00054C  C031  F0F4         	movff	?___fldiv,_ki
  1665  000550  C032  F0F5         	movff	?___fldiv+1,_ki+1
  1666  000554  C033  F0F6         	movff	?___fldiv+2,_ki+2
  1667  000558  C034  F0F7         	movff	?___fldiv+3,_ki+3
  1668  00055C                     
  1669                           ;main.c: 281:     flt_gain1 = u16_cg1*100.0 + (u16_cg2 * 0.1) ;
  1670  00055C  0E00               	movlw	0
  1671  00055E  6E1C               	movwf	___flmul@a^0,c
  1672  000560  0E00               	movlw	0
  1673  000562  6E1D               	movwf	(___flmul@a+1)^0,c
  1674  000564  0EC8               	movlw	200
  1675  000566  6E1E               	movwf	(___flmul@a+2)^0,c
  1676  000568  0E42               	movlw	66
  1677  00056A  6E1F               	movwf	(___flmul@a+3)^0,c
  1678  00056C  C09E  F00A         	movff	_u16_cg1,___xxtofl@val
  1679  000570  C09F  F00B         	movff	_u16_cg1+1,___xxtofl@val+1
  1680  000574  6A0C               	clrf	(___xxtofl@val+2)^0,c
  1681  000576  6A0D               	clrf	(___xxtofl@val+3)^0,c
  1682  000578  0E00               	movlw	0
  1683  00057A  EC46  F017         	call	___xxtofl
  1684  00057E  C00A  F018         	movff	?___xxtofl,___flmul@b
  1685  000582  C00B  F019         	movff	?___xxtofl+1,___flmul@b+1
  1686  000586  C00C  F01A         	movff	?___xxtofl+2,___flmul@b+2
  1687  00058A  C00D  F01B         	movff	?___xxtofl+3,___flmul@b+3
  1688  00058E  EC1F  F012         	call	___flmul	;wreg free
  1689  000592  C018  F031         	movff	?___flmul,___fladd@b
  1690  000596  C019  F032         	movff	?___flmul+1,___fladd@b+1
  1691  00059A  C01A  F033         	movff	?___flmul+2,___fladd@b+2
  1692  00059E  C01B  F034         	movff	?___flmul+3,___fladd@b+3
  1693  0005A2  0ECD               	movlw	205
  1694  0005A4  6E1C               	movwf	___flmul@a^0,c
  1695  0005A6  0ECC               	movlw	204
  1696  0005A8  6E1D               	movwf	(___flmul@a+1)^0,c
  1697  0005AA  0ECC               	movlw	204
  1698  0005AC  6E1E               	movwf	(___flmul@a+2)^0,c
  1699  0005AE  0E3D               	movlw	61
  1700  0005B0  6E1F               	movwf	(___flmul@a+3)^0,c
  1701  0005B2  C09C  F00A         	movff	_u16_cg2,___xxtofl@val
  1702  0005B6  C09D  F00B         	movff	_u16_cg2+1,___xxtofl@val+1
  1703  0005BA  6A0C               	clrf	(___xxtofl@val+2)^0,c
  1704  0005BC  6A0D               	clrf	(___xxtofl@val+3)^0,c
  1705  0005BE  0E00               	movlw	0
  1706  0005C0  EC46  F017         	call	___xxtofl
  1707  0005C4  C00A  F018         	movff	?___xxtofl,___flmul@b
  1708  0005C8  C00B  F019         	movff	?___xxtofl+1,___flmul@b+1
  1709  0005CC  C00C  F01A         	movff	?___xxtofl+2,___flmul@b+2
  1710  0005D0  C00D  F01B         	movff	?___xxtofl+3,___flmul@b+3
  1711  0005D4  EC1F  F012         	call	___flmul	;wreg free
  1712  0005D8  C018  F035         	movff	?___flmul,___fladd@a
  1713  0005DC  C019  F036         	movff	?___flmul+1,___fladd@a+1
  1714  0005E0  C01A  F037         	movff	?___flmul+2,___fladd@a+2
  1715  0005E4  C01B  F038         	movff	?___flmul+3,___fladd@a+3
  1716  0005E8  ECBF  F00F         	call	___fladd	;wreg free
  1717  0005EC  C031  F07C         	movff	?___fladd,_flt_gain1
  1718  0005F0  C032  F07D         	movff	?___fladd+1,_flt_gain1+1
  1719  0005F4  C033  F07E         	movff	?___fladd+2,_flt_gain1+2
  1720  0005F8  C034  F07F         	movff	?___fladd+3,_flt_gain1+3
  1721  0005FC                     
  1722                           ;main.c: 282:     flt_gain1 = flt_gain1 * 0.001;
  1723  0005FC  C07C  F018         	movff	_flt_gain1,___flmul@b
  1724  000600  C07D  F019         	movff	_flt_gain1+1,___flmul@b+1
  1725  000604  C07E  F01A         	movff	_flt_gain1+2,___flmul@b+2
  1726  000608  C07F  F01B         	movff	_flt_gain1+3,___flmul@b+3
  1727  00060C  0E6F               	movlw	111
  1728  00060E  6E1C               	movwf	___flmul@a^0,c
  1729  000610  0E12               	movlw	18
  1730  000612  6E1D               	movwf	(___flmul@a+1)^0,c
  1731  000614  0E83               	movlw	131
  1732  000616  6E1E               	movwf	(___flmul@a+2)^0,c
  1733  000618  0E3A               	movlw	58
  1734  00061A  6E1F               	movwf	(___flmul@a+3)^0,c
  1735  00061C  EC1F  F012         	call	___flmul	;wreg free
  1736  000620  C018  F07C         	movff	?___flmul,_flt_gain1
  1737  000624  C019  F07D         	movff	?___flmul+1,_flt_gain1+1
  1738  000628  C01A  F07E         	movff	?___flmul+2,_flt_gain1+2
  1739  00062C  C01B  F07F         	movff	?___flmul+3,_flt_gain1+3
  1740  000630                     
  1741                           ;main.c: 283:     flt_offset = (float)u16_cof;
  1742  000630  C09A  F00A         	movff	_u16_cof,___xxtofl@val
  1743  000634  C09B  F00B         	movff	_u16_cof+1,___xxtofl@val+1
  1744  000638  6A0C               	clrf	(___xxtofl@val+2)^0,c
  1745  00063A  6A0D               	clrf	(___xxtofl@val+3)^0,c
  1746  00063C  0E00               	movlw	0
  1747  00063E  EC46  F017         	call	___xxtofl
  1748  000642  C00A  F12C         	movff	?___xxtofl,_flt_offset
  1749  000646  C00B  F12D         	movff	?___xxtofl+1,_flt_offset+1
  1750  00064A  C00C  F12E         	movff	?___xxtofl+2,_flt_offset+2
  1751  00064E  C00D  F12F         	movff	?___xxtofl+3,_flt_offset+3
  1752  000652                     l7768:
  1753                           
  1754                           ;main.c: 285:     {;main.c: 287:         if(TMR0_HasOverflowOccured() == 1)
  1755  000652  ECB2  F01F         	call	_TMR0_HasOverflowOccured	;wreg free
  1756  000656  06E8               	decf	wreg,f,c
  1757  000658  A4D8               	btfss	status,2,c
  1758  00065A  EF31  F003         	goto	u7031
  1759  00065E  EF33  F003         	goto	u7030
  1760  000662                     u7031:
  1761  000662  EF16  F006         	goto	l7972
  1762  000666                     u7030:
  1763  000666                     
  1764                           ;main.c: 288:         {;main.c: 290:             INTCONbits.TMR0IF = 0;
  1765  000666  94F2               	bcf	242,2,c	;volatile
  1766  000668                     
  1767                           ;main.c: 291:             TMR0_ReadTimer();
  1768  000668  ECD3  F01F         	call	_TMR0_ReadTimer	;wreg free
  1769  00066C                     
  1770                           ;main.c: 293:             if(u8_calisetEN == 0)
  1771  00066C  0100               	movlb	0	; () banked
  1772  00066E  51BC               	movf	_u8_calisetEN& (0+255),w,b
  1773  000670  A4D8               	btfss	status,2,c
  1774  000672  EF3D  F003         	goto	u7041
  1775  000676  EF3F  F003         	goto	u7040
  1776  00067A                     u7041:
  1777  00067A  EF61  F003         	goto	l7786
  1778  00067E                     u7040:
  1779  00067E                     
  1780                           ; BSR set to: 0
  1781                           ;main.c: 294:             {;main.c: 295:                 if(PORTAbits.RA4== 0)
  1782  00067E  B880               	btfsc	128,4,c	;volatile
  1783  000680  EF44  F003         	goto	u7051
  1784  000684  EF46  F003         	goto	u7050
  1785  000688                     u7051:
  1786  000688  EF5D  F003         	goto	l7784
  1787  00068C                     u7050:
  1788  00068C                     
  1789                           ; BSR set to: 0
  1790                           ;main.c: 296:                 {;main.c: 297:                     uint_count++;
  1791  00068C  4B94               	infsnz	_uint_count& (0+255),f,b
  1792  00068E  2B95               	incf	(_uint_count+1)& (0+255),f,b
  1793  000690                     
  1794                           ; BSR set to: 0
  1795                           ;main.c: 298:                     if(uint_count > 200)
  1796  000690  5195               	movf	(_uint_count+1)& (0+255),w,b
  1797  000692  E109               	bnz	u7060
  1798  000694  0EC9               	movlw	201
  1799  000696  5D94               	subwf	_uint_count& (0+255),w,b
  1800  000698  A0D8               	btfss	status,0,c
  1801  00069A  EF51  F003         	goto	u7061
  1802  00069E  EF53  F003         	goto	u7060
  1803  0006A2                     u7061:
  1804  0006A2  EF61  F003         	goto	l7786
  1805  0006A6                     u7060:
  1806  0006A6                     
  1807                           ; BSR set to: 0
  1808                           ;main.c: 299:                     {;main.c: 300:                         uint_count = 0;
  1809  0006A6  0E00               	movlw	0
  1810  0006A8  6F95               	movwf	(_uint_count+1)& (0+255),b
  1811  0006AA  0E00               	movlw	0
  1812  0006AC  6F94               	movwf	_uint_count& (0+255),b
  1813                           
  1814                           ;main.c: 301:                         u8_calisetEN =1;
  1815  0006AE  0E01               	movlw	1
  1816  0006B0  6FBC               	movwf	_u8_calisetEN& (0+255),b
  1817                           
  1818                           ;main.c: 302:                         menu = off_MENU;
  1819  0006B2  0E01               	movlw	1
  1820  0006B4  6FBD               	movwf	_menu& (0+255),b
  1821  0006B6  EF61  F003         	goto	l7786
  1822  0006BA                     l7784:
  1823                           
  1824                           ; BSR set to: 0
  1825                           ;main.c: 306:                 {;main.c: 307:                     uint_count = 0;
  1826  0006BA  0E00               	movlw	0
  1827  0006BC  6F95               	movwf	(_uint_count+1)& (0+255),b
  1828  0006BE  0E00               	movlw	0
  1829  0006C0  6F94               	movwf	_uint_count& (0+255),b
  1830  0006C2                     l7786:
  1831                           
  1832                           ; BSR set to: 0
  1833                           ;main.c: 310:             if(PORTBbits.RB0==0)
  1834  0006C2  B081               	btfsc	129,0,c	;volatile
  1835  0006C4  EF66  F003         	goto	u7071
  1836  0006C8  EF68  F003         	goto	u7070
  1837  0006CC                     u7071:
  1838  0006CC  EF7F  F003         	goto	l7794
  1839  0006D0                     u7070:
  1840  0006D0                     
  1841                           ; BSR set to: 0
  1842                           ;main.c: 311:             {;main.c: 312:                 uint_count2++;
  1843  0006D0  4B92               	infsnz	_uint_count2& (0+255),f,b
  1844  0006D2  2B93               	incf	(_uint_count2+1)& (0+255),f,b
  1845  0006D4                     
  1846                           ; BSR set to: 0
  1847                           ;main.c: 313:                 if(uint_count2 > 50)
  1848  0006D4  5193               	movf	(_uint_count2+1)& (0+255),w,b
  1849  0006D6  E109               	bnz	u7080
  1850  0006D8  0E33               	movlw	51
  1851  0006DA  5D92               	subwf	_uint_count2& (0+255),w,b
  1852  0006DC  A0D8               	btfss	status,0,c
  1853  0006DE  EF73  F003         	goto	u7081
  1854  0006E2  EF75  F003         	goto	u7080
  1855  0006E6                     u7081:
  1856  0006E6  EF87  F003         	goto	l7796
  1857  0006EA                     u7080:
  1858  0006EA                     
  1859                           ; BSR set to: 0
  1860                           ;main.c: 314:                 {;main.c: 315:                     uint_count2 = 0;
  1861  0006EA  0E00               	movlw	0
  1862  0006EC  6F93               	movwf	(_uint_count2+1)& (0+255),b
  1863  0006EE  0E00               	movlw	0
  1864  0006F0  6F92               	movwf	_uint_count2& (0+255),b
  1865                           
  1866                           ;main.c: 316:                     u8_sw_microEN=1;
  1867  0006F2  0E00               	movlw	0
  1868  0006F4  6F91               	movwf	(_u8_sw_microEN+1)& (0+255),b
  1869  0006F6  0E01               	movlw	1
  1870  0006F8  6F90               	movwf	_u8_sw_microEN& (0+255),b
  1871  0006FA  EF87  F003         	goto	l7796
  1872  0006FE                     l7794:
  1873                           
  1874                           ; BSR set to: 0
  1875                           ;main.c: 320:             {;main.c: 321:                 uint_count2 = 0;
  1876  0006FE  0E00               	movlw	0
  1877  000700  6F93               	movwf	(_uint_count2+1)& (0+255),b
  1878  000702  0E00               	movlw	0
  1879  000704  6F92               	movwf	_uint_count2& (0+255),b
  1880                           
  1881                           ;main.c: 322:                 u8_sw_microEN=0;
  1882  000706  0E00               	movlw	0
  1883  000708  6F91               	movwf	(_u8_sw_microEN+1)& (0+255),b
  1884  00070A  0E00               	movlw	0
  1885  00070C  6F90               	movwf	_u8_sw_microEN& (0+255),b
  1886  00070E                     l7796:
  1887                           
  1888                           ; BSR set to: 0
  1889                           ;main.c: 326:             Key_Service();
  1890  00070E  EC64  F01D         	call	_Key_Service	;wreg free
  1891  000712                     
  1892                           ;main.c: 327:             if(uchr_DebounceCnt > 0)
  1893  000712  0100               	movlb	0	; () banked
  1894  000714  51CE               	movf	_uchr_DebounceCnt& (0+255),w,b
  1895  000716  B4D8               	btfsc	status,2,c
  1896  000718  EF90  F003         	goto	u7091
  1897  00071C  EF92  F003         	goto	u7090
  1898  000720                     u7091:
  1899  000720  EF16  F006         	goto	l7972
  1900  000724                     u7090:
  1901  000724                     
  1902                           ; BSR set to: 0
  1903                           ;main.c: 328:             {;main.c: 329:                 uchr_DebounceCnt--;
  1904  000724  07CE               	decf	_uchr_DebounceCnt& (0+255),f,b
  1905  000726                     
  1906                           ; BSR set to: 0
  1907                           ;main.c: 330:                 if(!uchr_DebounceCnt)
  1908  000726  51CE               	movf	_uchr_DebounceCnt& (0+255),w,b
  1909  000728  A4D8               	btfss	status,2,c
  1910  00072A  EF99  F003         	goto	u7101
  1911  00072E  EF9B  F003         	goto	u7100
  1912  000732                     u7101:
  1913  000732  EF16  F006         	goto	l7972
  1914  000736                     u7100:
  1915  000736                     
  1916                           ; BSR set to: 0
  1917                           ;main.c: 331:                 {;main.c: 332:                     if(uchr_PresentKey == 1
      +                          )
  1918  000736  05D0               	decf	_uchr_PresentKey& (0+255),w,b
  1919  000738  A4D8               	btfss	status,2,c
  1920  00073A  EFA1  F003         	goto	u7111
  1921  00073E  EFA3  F003         	goto	u7110
  1922  000742                     u7111:
  1923  000742  EFDF  F003         	goto	l7824
  1924  000746                     u7110:
  1925  000746                     
  1926                           ; BSR set to: 0
  1927                           ;main.c: 333:                     {;main.c: 334:                         if(u8_calisetEN
      +                           == 0)
  1928  000746  51BC               	movf	_u8_calisetEN& (0+255),w,b
  1929  000748  A4D8               	btfss	status,2,c
  1930  00074A  EFA9  F003         	goto	u7121
  1931  00074E  EFAB  F003         	goto	u7120
  1932  000752                     u7121:
  1933  000752  EFC8  F003         	goto	l7818
  1934  000756                     u7120:
  1935  000756                     
  1936                           ; BSR set to: 0
  1937                           ;main.c: 335:                         {;main.c: 336:                             if(menu
      +                           == MAIN_MENU)
  1938  000756  51BD               	movf	_menu& (0+255),w,b
  1939  000758  A4D8               	btfss	status,2,c
  1940  00075A  EFB1  F003         	goto	u7131
  1941  00075E  EFB3  F003         	goto	u7130
  1942  000762                     u7131:
  1943  000762  EFB7  F003         	goto	l7812
  1944  000766                     u7130:
  1945  000766                     
  1946                           ; BSR set to: 0
  1947                           ;main.c: 337:                                menu = SET_TEMP_MENU;
  1948  000766  0E0A               	movlw	10
  1949  000768  6FBD               	movwf	_menu& (0+255),b
  1950  00076A  EFD5  F003         	goto	l629
  1951  00076E                     l7812:
  1952                           
  1953                           ; BSR set to: 0
  1954  00076E  0E0A               	movlw	10
  1955  000770  19BD               	xorwf	_menu& (0+255),w,b
  1956  000772  A4D8               	btfss	status,2,c
  1957  000774  EFBE  F003         	goto	u7141
  1958  000778  EFC0  F003         	goto	u7140
  1959  00077C                     u7141:
  1960  00077C  EFC4  F003         	goto	l7816
  1961  000780                     u7140:
  1962  000780                     
  1963                           ; BSR set to: 0
  1964                           ;main.c: 339:                                 menu = SET_TIME_MENU;
  1965  000780  0E0B               	movlw	11
  1966  000782  6FBD               	movwf	_menu& (0+255),b
  1967  000784  EFD5  F003         	goto	l629
  1968  000788                     l7816:
  1969                           
  1970                           ; BSR set to: 0
  1971                           ;main.c: 341:                                 menu = MAIN_MENU;
  1972  000788  0E00               	movlw	0
  1973  00078A  6FBD               	movwf	_menu& (0+255),b
  1974  00078C  EFD5  F003         	goto	l629
  1975  000790                     l7818:
  1976                           
  1977                           ; BSR set to: 0
  1978                           ;main.c: 344:                         {;main.c: 345:                             menu++;
  1979  000790  2BBD               	incf	_menu& (0+255),f,b
  1980  000792                     
  1981                           ; BSR set to: 0
  1982                           ;main.c: 346:                             if(menu > 11)
  1983  000792  0E0B               	movlw	11
  1984  000794  65BD               	cpfsgt	_menu& (0+255),b
  1985  000796  EFCF  F003         	goto	u7151
  1986  00079A  EFD1  F003         	goto	u7150
  1987  00079E                     u7151:
  1988  00079E  EFD5  F003         	goto	l629
  1989  0007A2                     u7150:
  1990  0007A2                     
  1991                           ; BSR set to: 0
  1992                           ;main.c: 347:                             {;main.c: 348:                                
      +                           menu = 0;
  1993  0007A2  0E00               	movlw	0
  1994  0007A4  6FBD               	movwf	_menu& (0+255),b
  1995                           
  1996                           ;main.c: 349:                                 u8_calisetEN =0;
  1997  0007A6  0E00               	movlw	0
  1998  0007A8  6FBC               	movwf	_u8_calisetEN& (0+255),b
  1999  0007AA                     l629:
  2000                           
  2001                           ; BSR set to: 0
  2002                           ;main.c: 352:                         uint_updatEN = 1500;
  2003  0007AA  0E05               	movlw	5
  2004  0007AC  6FAF               	movwf	(_uint_updatEN+1)& (0+255),b
  2005  0007AE  0EDC               	movlw	220
  2006  0007B0  6FAE               	movwf	_uint_updatEN& (0+255),b
  2007                           
  2008                           ;main.c: 353:                         u16_displyfirstcnt=0;
  2009  0007B2  0E00               	movlw	0
  2010  0007B4  6E5A               	movwf	(_u16_displyfirstcnt+1)^0,c
  2011  0007B6  0E00               	movlw	0
  2012  0007B8  6E59               	movwf	_u16_displyfirstcnt^0,c
  2013                           
  2014                           ;main.c: 355:                     }
  2015  0007BA  EF16  F006         	goto	l7972
  2016  0007BE                     l7824:
  2017                           
  2018                           ; BSR set to: 0
  2019  0007BE  0E03               	movlw	3
  2020  0007C0  19D0               	xorwf	_uchr_PresentKey& (0+255),w,b
  2021  0007C2  A4D8               	btfss	status,2,c
  2022  0007C4  EFE6  F003         	goto	u7161
  2023  0007C8  EFE8  F003         	goto	u7160
  2024  0007CC                     u7161:
  2025  0007CC  EF00  F005         	goto	l7898
  2026  0007D0                     u7160:
  2027  0007D0                     
  2028                           ; BSR set to: 0
  2029                           ;main.c: 357:                     {;main.c: 358:                         uchr_PreviousKe
      +                          y = 16;
  2030  0007D0  0E10               	movlw	16
  2031  0007D2  6FCF               	movwf	_uchr_PreviousKey& (0+255),b
  2032                           
  2033                           ;main.c: 359:                         uchr_valuemodified = 1;
  2034  0007D4  0E01               	movlw	1
  2035  0007D6  6FCA               	movwf	_uchr_valuemodified& (0+255),b
  2036                           
  2037                           ;main.c: 360:                         uint_updatEN = 5000;
  2038  0007D8  0E13               	movlw	19
  2039  0007DA  6FAF               	movwf	(_uint_updatEN+1)& (0+255),b
  2040  0007DC  0E88               	movlw	136
  2041  0007DE  6FAE               	movwf	_uint_updatEN& (0+255),b
  2042                           
  2043                           ;main.c: 361:                         switch(menu)
  2044  0007E0  EFC3  F004         	goto	l7896
  2045  0007E4                     l7828:
  2046                           
  2047                           ; BSR set to: 0
  2048                           ;main.c: 368:                             {;main.c: 369:                                
      +                           u16_off++;
  2049  0007E4  4BA6               	infsnz	_u16_off& (0+255),f,b
  2050  0007E6  2BA7               	incf	(_u16_off+1)& (0+255),f,b
  2051  0007E8                     
  2052                           ; BSR set to: 0
  2053                           ;main.c: 370:                                 if(u16_off >100)
  2054  0007E8  51A7               	movf	(_u16_off+1)& (0+255),w,b
  2055  0007EA  E109               	bnz	u7170
  2056  0007EC  0E65               	movlw	101
  2057  0007EE  5DA6               	subwf	_u16_off& (0+255),w,b
  2058  0007F0  A0D8               	btfss	status,0,c
  2059  0007F2  EFFD  F003         	goto	u7171
  2060  0007F6  EFFF  F003         	goto	u7170
  2061  0007FA                     u7171:
  2062  0007FA  EF16  F006         	goto	l631
  2063  0007FE                     u7170:
  2064  0007FE                     
  2065                           ; BSR set to: 0
  2066                           ;main.c: 371:                                     u16_off = 100;
  2067  0007FE  0E00               	movlw	0
  2068  000800  6FA7               	movwf	(_u16_off+1)& (0+255),b
  2069  000802  0E64               	movlw	100
  2070  000804  6FA6               	movwf	_u16_off& (0+255),b
  2071  000806  EF16  F006         	goto	l7972
  2072  00080A                     l7834:
  2073                           
  2074                           ; BSR set to: 0
  2075                           ;main.c: 375:                             {;main.c: 376:                                
      +                           u16_pb++;
  2076  00080A  4BA4               	infsnz	_u16_pb& (0+255),f,b
  2077  00080C  2BA5               	incf	(_u16_pb+1)& (0+255),f,b
  2078  00080E                     
  2079                           ; BSR set to: 0
  2080                           ;main.c: 377:                                 if(u16_pb >100)
  2081  00080E  51A5               	movf	(_u16_pb+1)& (0+255),w,b
  2082  000810  E109               	bnz	u7180
  2083  000812  0E65               	movlw	101
  2084  000814  5DA4               	subwf	_u16_pb& (0+255),w,b
  2085  000816  A0D8               	btfss	status,0,c
  2086  000818  EF10  F004         	goto	u7181
  2087  00081C  EF12  F004         	goto	u7180
  2088  000820                     u7181:
  2089  000820  EF16  F006         	goto	l631
  2090  000824                     u7180:
  2091  000824                     
  2092                           ; BSR set to: 0
  2093                           ;main.c: 378:                                     u16_pb = 100;
  2094  000824  0E00               	movlw	0
  2095  000826  6FA5               	movwf	(_u16_pb+1)& (0+255),b
  2096  000828  0E64               	movlw	100
  2097  00082A  6FA4               	movwf	_u16_pb& (0+255),b
  2098  00082C  EF16  F006         	goto	l7972
  2099  000830                     l7840:
  2100                           
  2101                           ; BSR set to: 0
  2102                           ;main.c: 382:                             {;main.c: 383:                                
      +                           u16_ib++;
  2103  000830  4BA2               	infsnz	_u16_ib& (0+255),f,b
  2104  000832  2BA3               	incf	(_u16_ib+1)& (0+255),f,b
  2105  000834                     
  2106                           ; BSR set to: 0
  2107                           ;main.c: 384:                                 if(u16_ib >999)
  2108  000834  0EE8               	movlw	232
  2109  000836  5DA2               	subwf	_u16_ib& (0+255),w,b
  2110  000838  0E03               	movlw	3
  2111  00083A  59A3               	subwfb	(_u16_ib+1)& (0+255),w,b
  2112  00083C  A0D8               	btfss	status,0,c
  2113  00083E  EF23  F004         	goto	u7191
  2114  000842  EF25  F004         	goto	u7190
  2115  000846                     u7191:
  2116  000846  EF16  F006         	goto	l631
  2117  00084A                     u7190:
  2118  00084A                     
  2119                           ; BSR set to: 0
  2120                           ;main.c: 385:                                     u16_ib = 999;
  2121  00084A  0E03               	movlw	3
  2122  00084C  6FA3               	movwf	(_u16_ib+1)& (0+255),b
  2123  00084E  0EE7               	movlw	231
  2124  000850  6FA2               	movwf	_u16_ib& (0+255),b
  2125  000852  EF16  F006         	goto	l7972
  2126  000856                     l7846:
  2127                           
  2128                           ; BSR set to: 0
  2129                           ;main.c: 389:                             {;main.c: 390:                                
      +                           u16_plm++;
  2130  000856  4BD2               	infsnz	_u16_plm& (0+255),f,b
  2131  000858  2BD3               	incf	(_u16_plm+1)& (0+255),f,b
  2132  00085A                     
  2133                           ; BSR set to: 0
  2134                           ;main.c: 391:                                 if(u16_plm >100)
  2135  00085A  51D3               	movf	(_u16_plm+1)& (0+255),w,b
  2136  00085C  E109               	bnz	u7200
  2137  00085E  0E65               	movlw	101
  2138  000860  5DD2               	subwf	_u16_plm& (0+255),w,b
  2139  000862  A0D8               	btfss	status,0,c
  2140  000864  EF36  F004         	goto	u7201
  2141  000868  EF38  F004         	goto	u7200
  2142  00086C                     u7201:
  2143  00086C  EF16  F006         	goto	l631
  2144  000870                     u7200:
  2145  000870                     
  2146                           ; BSR set to: 0
  2147                           ;main.c: 392:                                     u16_plm = 100;
  2148  000870  0E00               	movlw	0
  2149  000872  6FD3               	movwf	(_u16_plm+1)& (0+255),b
  2150  000874  0E64               	movlw	100
  2151  000876  6FD2               	movwf	_u16_plm& (0+255),b
  2152  000878  EF16  F006         	goto	l7972
  2153  00087C                     l7852:
  2154                           
  2155                           ; BSR set to: 0
  2156                           ;main.c: 396:                             {;main.c: 397:                                
      +                           u16_hys++;
  2157  00087C  4BA0               	infsnz	_u16_hys& (0+255),f,b
  2158  00087E  2BA1               	incf	(_u16_hys+1)& (0+255),f,b
  2159  000880                     
  2160                           ; BSR set to: 0
  2161                           ;main.c: 398:                                 if(u16_hys >999)
  2162  000880  0EE8               	movlw	232
  2163  000882  5DA0               	subwf	_u16_hys& (0+255),w,b
  2164  000884  0E03               	movlw	3
  2165  000886  59A1               	subwfb	(_u16_hys+1)& (0+255),w,b
  2166  000888  A0D8               	btfss	status,0,c
  2167  00088A  EF49  F004         	goto	u7211
  2168  00088E  EF4B  F004         	goto	u7210
  2169  000892                     u7211:
  2170  000892  EF16  F006         	goto	l631
  2171  000896                     u7210:
  2172  000896                     
  2173                           ; BSR set to: 0
  2174                           ;main.c: 399:                                     u16_hys = 999;
  2175  000896  0E03               	movlw	3
  2176  000898  6FA1               	movwf	(_u16_hys+1)& (0+255),b
  2177  00089A  0EE7               	movlw	231
  2178  00089C  6FA0               	movwf	_u16_hys& (0+255),b
  2179  00089E  EF16  F006         	goto	l7972
  2180  0008A2                     l7858:
  2181                           
  2182                           ; BSR set to: 0
  2183                           ;main.c: 403:                             {;main.c: 404:                                
      +                           u16_cg1++;
  2184  0008A2  4B9E               	infsnz	_u16_cg1& (0+255),f,b
  2185  0008A4  2B9F               	incf	(_u16_cg1+1)& (0+255),f,b
  2186  0008A6                     
  2187                           ; BSR set to: 0
  2188                           ;main.c: 405:                                 if(u16_cg1 >10)
  2189  0008A6  519F               	movf	(_u16_cg1+1)& (0+255),w,b
  2190  0008A8  E109               	bnz	u7220
  2191  0008AA  0E0B               	movlw	11
  2192  0008AC  5D9E               	subwf	_u16_cg1& (0+255),w,b
  2193  0008AE  A0D8               	btfss	status,0,c
  2194  0008B0  EF5C  F004         	goto	u7221
  2195  0008B4  EF5E  F004         	goto	u7220
  2196  0008B8                     u7221:
  2197  0008B8  EF16  F006         	goto	l631
  2198  0008BC                     u7220:
  2199  0008BC                     
  2200                           ; BSR set to: 0
  2201                           ;main.c: 406:                                     u16_cg1 = 10;
  2202  0008BC  0E00               	movlw	0
  2203  0008BE  6F9F               	movwf	(_u16_cg1+1)& (0+255),b
  2204  0008C0  0E0A               	movlw	10
  2205  0008C2  6F9E               	movwf	_u16_cg1& (0+255),b
  2206  0008C4  EF16  F006         	goto	l7972
  2207  0008C8                     l7864:
  2208                           
  2209                           ; BSR set to: 0
  2210                           ;main.c: 410:                             {;main.c: 411:                                
      +                           u16_cg2++;
  2211  0008C8  4B9C               	infsnz	_u16_cg2& (0+255),f,b
  2212  0008CA  2B9D               	incf	(_u16_cg2+1)& (0+255),f,b
  2213  0008CC                     
  2214                           ; BSR set to: 0
  2215                           ;main.c: 412:                                 if(u16_cg2 >999)
  2216  0008CC  0EE8               	movlw	232
  2217  0008CE  5D9C               	subwf	_u16_cg2& (0+255),w,b
  2218  0008D0  0E03               	movlw	3
  2219  0008D2  599D               	subwfb	(_u16_cg2+1)& (0+255),w,b
  2220  0008D4  A0D8               	btfss	status,0,c
  2221  0008D6  EF6F  F004         	goto	u7231
  2222  0008DA  EF71  F004         	goto	u7230
  2223  0008DE                     u7231:
  2224  0008DE  EF16  F006         	goto	l631
  2225  0008E2                     u7230:
  2226  0008E2                     
  2227                           ; BSR set to: 0
  2228                           ;main.c: 413:                                     u16_cg2 = 999;
  2229  0008E2  0E03               	movlw	3
  2230  0008E4  6F9D               	movwf	(_u16_cg2+1)& (0+255),b
  2231  0008E6  0EE7               	movlw	231
  2232  0008E8  6F9C               	movwf	_u16_cg2& (0+255),b
  2233  0008EA  EF16  F006         	goto	l7972
  2234  0008EE                     l7870:
  2235                           
  2236                           ; BSR set to: 0
  2237                           ;main.c: 417:                             {;main.c: 418:                                
      +                           u16_cof++;
  2238  0008EE  4B9A               	infsnz	_u16_cof& (0+255),f,b
  2239  0008F0  2B9B               	incf	(_u16_cof+1)& (0+255),f,b
  2240  0008F2                     
  2241                           ; BSR set to: 0
  2242                           ;main.c: 419:                                 if(u16_cof >999)
  2243  0008F2  0EE8               	movlw	232
  2244  0008F4  5D9A               	subwf	_u16_cof& (0+255),w,b
  2245  0008F6  0E03               	movlw	3
  2246  0008F8  599B               	subwfb	(_u16_cof+1)& (0+255),w,b
  2247  0008FA  A0D8               	btfss	status,0,c
  2248  0008FC  EF82  F004         	goto	u7241
  2249  000900  EF84  F004         	goto	u7240
  2250  000904                     u7241:
  2251  000904  EF16  F006         	goto	l631
  2252  000908                     u7240:
  2253  000908                     
  2254                           ; BSR set to: 0
  2255                           ;main.c: 420:                                     u16_cof = 999;
  2256  000908  0E03               	movlw	3
  2257  00090A  6F9B               	movwf	(_u16_cof+1)& (0+255),b
  2258  00090C  0EE7               	movlw	231
  2259  00090E  6F9A               	movwf	_u16_cof& (0+255),b
  2260  000910  EF16  F006         	goto	l7972
  2261  000914                     l7876:
  2262                           
  2263                           ; BSR set to: 0
  2264                           ;main.c: 424:                             {;main.c: 425:                                
      +                           u16_mde++;
  2265  000914  4B98               	infsnz	_u16_mde& (0+255),f,b
  2266  000916  2B99               	incf	(_u16_mde+1)& (0+255),f,b
  2267  000918                     
  2268                           ; BSR set to: 0
  2269                           ;main.c: 426:                                 if(u16_mde >1)
  2270  000918  5199               	movf	(_u16_mde+1)& (0+255),w,b
  2271  00091A  E109               	bnz	u7250
  2272  00091C  0E02               	movlw	2
  2273  00091E  5D98               	subwf	_u16_mde& (0+255),w,b
  2274  000920  A0D8               	btfss	status,0,c
  2275  000922  EF95  F004         	goto	u7251
  2276  000926  EF97  F004         	goto	u7250
  2277  00092A                     u7251:
  2278  00092A  EF16  F006         	goto	l631
  2279  00092E                     u7250:
  2280  00092E                     
  2281                           ; BSR set to: 0
  2282                           ;main.c: 427:                                     u16_mde = 0;
  2283  00092E  0E00               	movlw	0
  2284  000930  6F99               	movwf	(_u16_mde+1)& (0+255),b
  2285  000932  0E00               	movlw	0
  2286  000934  6F98               	movwf	_u16_mde& (0+255),b
  2287  000936  EF16  F006         	goto	l7972
  2288  00093A                     l7882:
  2289                           
  2290                           ; BSR set to: 0
  2291                           ;main.c: 431:                             {;main.c: 432:                                
      +                           u16_SETtemp++;
  2292  00093A  4BAC               	infsnz	_u16_SETtemp& (0+255),f,b
  2293  00093C  2BAD               	incf	(_u16_SETtemp+1)& (0+255),f,b
  2294  00093E                     
  2295                           ; BSR set to: 0
  2296                           ;main.c: 433:                                 if(u16_SETtemp >999)
  2297  00093E  0EE8               	movlw	232
  2298  000940  5DAC               	subwf	_u16_SETtemp& (0+255),w,b
  2299  000942  0E03               	movlw	3
  2300  000944  59AD               	subwfb	(_u16_SETtemp+1)& (0+255),w,b
  2301  000946  A0D8               	btfss	status,0,c
  2302  000948  EFA8  F004         	goto	u7261
  2303  00094C  EFAA  F004         	goto	u7260
  2304  000950                     u7261:
  2305  000950  EF16  F006         	goto	l631
  2306  000954                     u7260:
  2307  000954                     
  2308                           ; BSR set to: 0
  2309                           ;main.c: 434:                                     u16_SETtemp = 999;
  2310  000954  0E03               	movlw	3
  2311  000956  6FAD               	movwf	(_u16_SETtemp+1)& (0+255),b
  2312  000958  0EE7               	movlw	231
  2313  00095A  6FAC               	movwf	_u16_SETtemp& (0+255),b
  2314  00095C  EF16  F006         	goto	l7972
  2315  000960                     l7888:
  2316                           
  2317                           ; BSR set to: 0
  2318                           ;main.c: 438:                             {;main.c: 439:                                
      +                           u16_SETtime++;
  2319  000960  4BAA               	infsnz	_u16_SETtime& (0+255),f,b
  2320  000962  2BAB               	incf	(_u16_SETtime+1)& (0+255),f,b
  2321  000964                     
  2322                           ; BSR set to: 0
  2323                           ;main.c: 440:                                 if(u16_SETtime > 999)
  2324  000964  0EE8               	movlw	232
  2325  000966  5DAA               	subwf	_u16_SETtime& (0+255),w,b
  2326  000968  0E03               	movlw	3
  2327  00096A  59AB               	subwfb	(_u16_SETtime+1)& (0+255),w,b
  2328  00096C  A0D8               	btfss	status,0,c
  2329  00096E  EFBB  F004         	goto	u7271
  2330  000972  EFBD  F004         	goto	u7270
  2331  000976                     u7271:
  2332  000976  EF16  F006         	goto	l631
  2333  00097A                     u7270:
  2334  00097A                     
  2335                           ; BSR set to: 0
  2336                           ;main.c: 441:                                     u16_SETtime = 999;
  2337  00097A  0E03               	movlw	3
  2338  00097C  6FAB               	movwf	(_u16_SETtime+1)& (0+255),b
  2339  00097E  0EE7               	movlw	231
  2340  000980  6FAA               	movwf	_u16_SETtime& (0+255),b
  2341  000982  EF16  F006         	goto	l7972
  2342  000986                     l7896:
  2343                           
  2344                           ; BSR set to: 0
  2345  000986  51BD               	movf	_menu& (0+255),w,b
  2346  000988  6FF0               	movwf	??_main& (0+255),b
  2347  00098A  6BF1               	clrf	(??_main+1)& (0+255),b
  2348                           
  2349                           ; Switch on 2 bytes has been partitioned into a top level switch of size 1, and 1 sub-sw
      +                          itches
  2350                           ; Switch size 1, requested type "simple"
  2351                           ; Number of cases is 1, Range of values is 0 to 0
  2352                           ; switch strategies available:
  2353                           ; Name         Instructions Cycles
  2354                           ; simple_byte            4     3 (average)
  2355                           ;	Chosen strategy is simple_byte
  2356  00098C  51F1               	movf	(??_main+1)& (0+255),w,b
  2357  00098E  0A00               	xorlw	0	; case 0
  2358  000990  B4D8               	btfsc	status,2,c
  2359  000992  EFCD  F004         	goto	l8246
  2360  000996  EF16  F006         	goto	l7972
  2361  00099A                     l8246:
  2362                           
  2363                           ; BSR set to: 0
  2364                           ; Switch size 1, requested type "simple"
  2365                           ; Number of cases is 12, Range of values is 0 to 11
  2366                           ; switch strategies available:
  2367                           ; Name         Instructions Cycles
  2368                           ; simple_byte           37    19 (average)
  2369                           ;	Chosen strategy is simple_byte
  2370  00099A  51F0               	movf	??_main& (0+255),w,b
  2371  00099C  0A00               	xorlw	0	; case 0
  2372  00099E  B4D8               	btfsc	status,2,c
  2373  0009A0  EF16  F006         	goto	l631
  2374  0009A4  0A01               	xorlw	1	; case 1
  2375  0009A6  B4D8               	btfsc	status,2,c
  2376  0009A8  EFF2  F003         	goto	l7828
  2377  0009AC  0A03               	xorlw	3	; case 2
  2378  0009AE  B4D8               	btfsc	status,2,c
  2379  0009B0  EF05  F004         	goto	l7834
  2380  0009B4  0A01               	xorlw	1	; case 3
  2381  0009B6  B4D8               	btfsc	status,2,c
  2382  0009B8  EF18  F004         	goto	l7840
  2383  0009BC  0A07               	xorlw	7	; case 4
  2384  0009BE  B4D8               	btfsc	status,2,c
  2385  0009C0  EF2B  F004         	goto	l7846
  2386  0009C4  0A01               	xorlw	1	; case 5
  2387  0009C6  B4D8               	btfsc	status,2,c
  2388  0009C8  EF3E  F004         	goto	l7852
  2389  0009CC  0A03               	xorlw	3	; case 6
  2390  0009CE  B4D8               	btfsc	status,2,c
  2391  0009D0  EF51  F004         	goto	l7858
  2392  0009D4  0A01               	xorlw	1	; case 7
  2393  0009D6  B4D8               	btfsc	status,2,c
  2394  0009D8  EF64  F004         	goto	l7864
  2395  0009DC  0A0F               	xorlw	15	; case 8
  2396  0009DE  B4D8               	btfsc	status,2,c
  2397  0009E0  EF77  F004         	goto	l7870
  2398  0009E4  0A01               	xorlw	1	; case 9
  2399  0009E6  B4D8               	btfsc	status,2,c
  2400  0009E8  EF8A  F004         	goto	l7876
  2401  0009EC  0A03               	xorlw	3	; case 10
  2402  0009EE  B4D8               	btfsc	status,2,c
  2403  0009F0  EF9D  F004         	goto	l7882
  2404  0009F4  0A01               	xorlw	1	; case 11
  2405  0009F6  B4D8               	btfsc	status,2,c
  2406  0009F8  EFB0  F004         	goto	l7888
  2407  0009FC  EF16  F006         	goto	l7972
  2408  000A00                     l7898:
  2409                           
  2410                           ; BSR set to: 0
  2411  000A00  0E05               	movlw	5
  2412  000A02  19D0               	xorwf	_uchr_PresentKey& (0+255),w,b
  2413  000A04  A4D8               	btfss	status,2,c
  2414  000A06  EF07  F005         	goto	u7281
  2415  000A0A  EF09  F005         	goto	u7280
  2416  000A0E                     u7281:
  2417  000A0E  EF16  F006         	goto	l631
  2418  000A12                     u7280:
  2419  000A12                     
  2420                           ; BSR set to: 0
  2421                           ;main.c: 447:                     {;main.c: 448:                         uchr_PreviousKe
      +                          y = 16;
  2422  000A12  0E10               	movlw	16
  2423  000A14  6FCF               	movwf	_uchr_PreviousKey& (0+255),b
  2424                           
  2425                           ;main.c: 449:                         uchr_valuemodified = 1;
  2426  000A16  0E01               	movlw	1
  2427  000A18  6FCA               	movwf	_uchr_valuemodified& (0+255),b
  2428                           
  2429                           ;main.c: 450:                         uint_updatEN = 5000;
  2430  000A1A  0E13               	movlw	19
  2431  000A1C  6FAF               	movwf	(_uint_updatEN+1)& (0+255),b
  2432  000A1E  0E88               	movlw	136
  2433  000A20  6FAE               	movwf	_uint_updatEN& (0+255),b
  2434                           
  2435                           ;main.c: 451:                         switch(menu)
  2436  000A22  EFD9  F005         	goto	l7970
  2437  000A26                     l7902:
  2438                           
  2439                           ; BSR set to: 0
  2440                           ;main.c: 458:                             {;main.c: 459:                                
      +                           if(u16_off <=0)
  2441  000A26  51A6               	movf	_u16_off& (0+255),w,b
  2442  000A28  11A7               	iorwf	(_u16_off+1)& (0+255),w,b
  2443  000A2A  A4D8               	btfss	status,2,c
  2444  000A2C  EF1A  F005         	goto	u7291
  2445  000A30  EF1C  F005         	goto	u7290
  2446  000A34                     u7291:
  2447  000A34  EF20  F005         	goto	l7906
  2448  000A38                     u7290:
  2449  000A38                     
  2450                           ; BSR set to: 0
  2451                           ;main.c: 460:                                     u16_off = 1;
  2452  000A38  0E00               	movlw	0
  2453  000A3A  6FA7               	movwf	(_u16_off+1)& (0+255),b
  2454  000A3C  0E01               	movlw	1
  2455  000A3E  6FA6               	movwf	_u16_off& (0+255),b
  2456  000A40                     l7906:
  2457                           
  2458                           ; BSR set to: 0
  2459                           ;main.c: 461:                                 u16_off--;
  2460  000A40  07A6               	decf	_u16_off& (0+255),f,b
  2461  000A42  A0D8               	btfss	status,0,c
  2462  000A44  07A7               	decf	(_u16_off+1)& (0+255),f,b
  2463                           
  2464                           ;main.c: 462:                                 break;
  2465  000A46  EF16  F006         	goto	l7972
  2466  000A4A                     l7908:
  2467                           
  2468                           ; BSR set to: 0
  2469                           ;main.c: 465:                             {;main.c: 466:                                
      +                           if(u16_pb <=0)
  2470  000A4A  51A4               	movf	_u16_pb& (0+255),w,b
  2471  000A4C  11A5               	iorwf	(_u16_pb+1)& (0+255),w,b
  2472  000A4E  A4D8               	btfss	status,2,c
  2473  000A50  EF2C  F005         	goto	u7301
  2474  000A54  EF2E  F005         	goto	u7300
  2475  000A58                     u7301:
  2476  000A58  EF32  F005         	goto	l7912
  2477  000A5C                     u7300:
  2478  000A5C                     
  2479                           ; BSR set to: 0
  2480                           ;main.c: 467:                                     u16_pb = 1;
  2481  000A5C  0E00               	movlw	0
  2482  000A5E  6FA5               	movwf	(_u16_pb+1)& (0+255),b
  2483  000A60  0E01               	movlw	1
  2484  000A62  6FA4               	movwf	_u16_pb& (0+255),b
  2485  000A64                     l7912:
  2486                           
  2487                           ; BSR set to: 0
  2488                           ;main.c: 468:                                 u16_pb--;
  2489  000A64  07A4               	decf	_u16_pb& (0+255),f,b
  2490  000A66  A0D8               	btfss	status,0,c
  2491  000A68  07A5               	decf	(_u16_pb+1)& (0+255),f,b
  2492                           
  2493                           ;main.c: 469:                                 break;
  2494  000A6A  EF16  F006         	goto	l7972
  2495  000A6E                     l7914:
  2496                           
  2497                           ; BSR set to: 0
  2498                           ;main.c: 472:                             {;main.c: 473:                                
      +                           if(u16_ib <=0)
  2499  000A6E  51A2               	movf	_u16_ib& (0+255),w,b
  2500  000A70  11A3               	iorwf	(_u16_ib+1)& (0+255),w,b
  2501  000A72  A4D8               	btfss	status,2,c
  2502  000A74  EF3E  F005         	goto	u7311
  2503  000A78  EF40  F005         	goto	u7310
  2504  000A7C                     u7311:
  2505  000A7C  EF44  F005         	goto	l7918
  2506  000A80                     u7310:
  2507  000A80                     
  2508                           ; BSR set to: 0
  2509                           ;main.c: 474:                                     u16_ib = 1;
  2510  000A80  0E00               	movlw	0
  2511  000A82  6FA3               	movwf	(_u16_ib+1)& (0+255),b
  2512  000A84  0E01               	movlw	1
  2513  000A86  6FA2               	movwf	_u16_ib& (0+255),b
  2514  000A88                     l7918:
  2515                           
  2516                           ; BSR set to: 0
  2517                           ;main.c: 475:                                 u16_ib--;
  2518  000A88  07A2               	decf	_u16_ib& (0+255),f,b
  2519  000A8A  A0D8               	btfss	status,0,c
  2520  000A8C  07A3               	decf	(_u16_ib+1)& (0+255),f,b
  2521                           
  2522                           ;main.c: 476:                                 break;
  2523  000A8E  EF16  F006         	goto	l7972
  2524  000A92                     l7920:
  2525                           
  2526                           ; BSR set to: 0
  2527                           ;main.c: 479:                             {;main.c: 480:                                
      +                           if(u16_plm <=0)
  2528  000A92  51D2               	movf	_u16_plm& (0+255),w,b
  2529  000A94  11D3               	iorwf	(_u16_plm+1)& (0+255),w,b
  2530  000A96  A4D8               	btfss	status,2,c
  2531  000A98  EF50  F005         	goto	u7321
  2532  000A9C  EF52  F005         	goto	u7320
  2533  000AA0                     u7321:
  2534  000AA0  EF56  F005         	goto	l7924
  2535  000AA4                     u7320:
  2536  000AA4                     
  2537                           ; BSR set to: 0
  2538                           ;main.c: 481:                                     u16_plm = 1;
  2539  000AA4  0E00               	movlw	0
  2540  000AA6  6FD3               	movwf	(_u16_plm+1)& (0+255),b
  2541  000AA8  0E01               	movlw	1
  2542  000AAA  6FD2               	movwf	_u16_plm& (0+255),b
  2543  000AAC                     l7924:
  2544                           
  2545                           ; BSR set to: 0
  2546                           ;main.c: 482:                                 u16_plm--;
  2547  000AAC  07D2               	decf	_u16_plm& (0+255),f,b
  2548  000AAE  A0D8               	btfss	status,0,c
  2549  000AB0  07D3               	decf	(_u16_plm+1)& (0+255),f,b
  2550                           
  2551                           ;main.c: 483:                                 break;
  2552  000AB2  EF16  F006         	goto	l7972
  2553  000AB6                     l7926:
  2554                           
  2555                           ; BSR set to: 0
  2556                           ;main.c: 486:                             {;main.c: 487:                                
      +                           if(u16_hys <=0)
  2557  000AB6  51A0               	movf	_u16_hys& (0+255),w,b
  2558  000AB8  11A1               	iorwf	(_u16_hys+1)& (0+255),w,b
  2559  000ABA  A4D8               	btfss	status,2,c
  2560  000ABC  EF62  F005         	goto	u7331
  2561  000AC0  EF64  F005         	goto	u7330
  2562  000AC4                     u7331:
  2563  000AC4  EF68  F005         	goto	l7930
  2564  000AC8                     u7330:
  2565  000AC8                     
  2566                           ; BSR set to: 0
  2567                           ;main.c: 488:                                     u16_hys = 1;
  2568  000AC8  0E00               	movlw	0
  2569  000ACA  6FA1               	movwf	(_u16_hys+1)& (0+255),b
  2570  000ACC  0E01               	movlw	1
  2571  000ACE  6FA0               	movwf	_u16_hys& (0+255),b
  2572  000AD0                     l7930:
  2573                           
  2574                           ; BSR set to: 0
  2575                           ;main.c: 489:                                 u16_hys--;
  2576  000AD0  07A0               	decf	_u16_hys& (0+255),f,b
  2577  000AD2  A0D8               	btfss	status,0,c
  2578  000AD4  07A1               	decf	(_u16_hys+1)& (0+255),f,b
  2579                           
  2580                           ;main.c: 490:                                 break;
  2581  000AD6  EF16  F006         	goto	l7972
  2582  000ADA                     l7932:
  2583                           
  2584                           ; BSR set to: 0
  2585                           ;main.c: 493:                             {;main.c: 494:                                
      +                           if(u16_cg1 <=0)
  2586  000ADA  519E               	movf	_u16_cg1& (0+255),w,b
  2587  000ADC  119F               	iorwf	(_u16_cg1+1)& (0+255),w,b
  2588  000ADE  A4D8               	btfss	status,2,c
  2589  000AE0  EF74  F005         	goto	u7341
  2590  000AE4  EF76  F005         	goto	u7340
  2591  000AE8                     u7341:
  2592  000AE8  EF7A  F005         	goto	l7936
  2593  000AEC                     u7340:
  2594  000AEC                     
  2595                           ; BSR set to: 0
  2596                           ;main.c: 495:                                     u16_cg1 = 1;
  2597  000AEC  0E00               	movlw	0
  2598  000AEE  6F9F               	movwf	(_u16_cg1+1)& (0+255),b
  2599  000AF0  0E01               	movlw	1
  2600  000AF2  6F9E               	movwf	_u16_cg1& (0+255),b
  2601  000AF4                     l7936:
  2602                           
  2603                           ; BSR set to: 0
  2604                           ;main.c: 496:                                 u16_cg1--;
  2605  000AF4  079E               	decf	_u16_cg1& (0+255),f,b
  2606  000AF6  A0D8               	btfss	status,0,c
  2607  000AF8  079F               	decf	(_u16_cg1+1)& (0+255),f,b
  2608                           
  2609                           ;main.c: 497:                                 break;
  2610  000AFA  EF16  F006         	goto	l7972
  2611  000AFE                     l7938:
  2612                           
  2613                           ; BSR set to: 0
  2614                           ;main.c: 500:                             {;main.c: 501:                                
      +                           if(u16_cg2 <=0)
  2615  000AFE  519C               	movf	_u16_cg2& (0+255),w,b
  2616  000B00  119D               	iorwf	(_u16_cg2+1)& (0+255),w,b
  2617  000B02  A4D8               	btfss	status,2,c
  2618  000B04  EF86  F005         	goto	u7351
  2619  000B08  EF88  F005         	goto	u7350
  2620  000B0C                     u7351:
  2621  000B0C  EF8C  F005         	goto	l7942
  2622  000B10                     u7350:
  2623  000B10                     
  2624                           ; BSR set to: 0
  2625                           ;main.c: 502:                                     u16_cg2 = 1;
  2626  000B10  0E00               	movlw	0
  2627  000B12  6F9D               	movwf	(_u16_cg2+1)& (0+255),b
  2628  000B14  0E01               	movlw	1
  2629  000B16  6F9C               	movwf	_u16_cg2& (0+255),b
  2630  000B18                     l7942:
  2631                           
  2632                           ; BSR set to: 0
  2633                           ;main.c: 503:                                 u16_cg2--;
  2634  000B18  079C               	decf	_u16_cg2& (0+255),f,b
  2635  000B1A  A0D8               	btfss	status,0,c
  2636  000B1C  079D               	decf	(_u16_cg2+1)& (0+255),f,b
  2637                           
  2638                           ;main.c: 504:                                 break;
  2639  000B1E  EF16  F006         	goto	l7972
  2640  000B22                     l7944:
  2641                           
  2642                           ; BSR set to: 0
  2643                           ;main.c: 507:                             {;main.c: 508:                                
      +                           if(u16_cof <=0)
  2644  000B22  519A               	movf	_u16_cof& (0+255),w,b
  2645  000B24  119B               	iorwf	(_u16_cof+1)& (0+255),w,b
  2646  000B26  A4D8               	btfss	status,2,c
  2647  000B28  EF98  F005         	goto	u7361
  2648  000B2C  EF9A  F005         	goto	u7360
  2649  000B30                     u7361:
  2650  000B30  EF9E  F005         	goto	l7948
  2651  000B34                     u7360:
  2652  000B34                     
  2653                           ; BSR set to: 0
  2654                           ;main.c: 509:                                     u16_cof = 1;
  2655  000B34  0E00               	movlw	0
  2656  000B36  6F9B               	movwf	(_u16_cof+1)& (0+255),b
  2657  000B38  0E01               	movlw	1
  2658  000B3A  6F9A               	movwf	_u16_cof& (0+255),b
  2659  000B3C                     l7948:
  2660                           
  2661                           ; BSR set to: 0
  2662                           ;main.c: 510:                                 u16_cof--;
  2663  000B3C  079A               	decf	_u16_cof& (0+255),f,b
  2664  000B3E  A0D8               	btfss	status,0,c
  2665  000B40  079B               	decf	(_u16_cof+1)& (0+255),f,b
  2666                           
  2667                           ;main.c: 511:                                 break;
  2668  000B42  EF16  F006         	goto	l7972
  2669  000B46                     l7950:
  2670                           
  2671                           ; BSR set to: 0
  2672                           ;main.c: 514:                             {;main.c: 515:                                
      +                           if(u16_mde <=0)
  2673  000B46  5198               	movf	_u16_mde& (0+255),w,b
  2674  000B48  1199               	iorwf	(_u16_mde+1)& (0+255),w,b
  2675  000B4A  A4D8               	btfss	status,2,c
  2676  000B4C  EFAA  F005         	goto	u7371
  2677  000B50  EFAC  F005         	goto	u7370
  2678  000B54                     u7371:
  2679  000B54  EFB0  F005         	goto	l7954
  2680  000B58                     u7370:
  2681  000B58                     
  2682                           ; BSR set to: 0
  2683                           ;main.c: 516:                                     u16_mde = 1;
  2684  000B58  0E00               	movlw	0
  2685  000B5A  6F99               	movwf	(_u16_mde+1)& (0+255),b
  2686  000B5C  0E01               	movlw	1
  2687  000B5E  6F98               	movwf	_u16_mde& (0+255),b
  2688  000B60                     l7954:
  2689                           
  2690                           ; BSR set to: 0
  2691                           ;main.c: 517:                                 u16_mde--;
  2692  000B60  0798               	decf	_u16_mde& (0+255),f,b
  2693  000B62  A0D8               	btfss	status,0,c
  2694  000B64  0799               	decf	(_u16_mde+1)& (0+255),f,b
  2695                           
  2696                           ;main.c: 518:                                 break;
  2697  000B66  EF16  F006         	goto	l7972
  2698  000B6A                     l7956:
  2699                           
  2700                           ; BSR set to: 0
  2701                           ;main.c: 521:                             {;main.c: 522:                                
      +                           if(u16_SETtemp <=0)
  2702  000B6A  51AC               	movf	_u16_SETtemp& (0+255),w,b
  2703  000B6C  11AD               	iorwf	(_u16_SETtemp+1)& (0+255),w,b
  2704  000B6E  A4D8               	btfss	status,2,c
  2705  000B70  EFBC  F005         	goto	u7381
  2706  000B74  EFBE  F005         	goto	u7380
  2707  000B78                     u7381:
  2708  000B78  EFC2  F005         	goto	l7960
  2709  000B7C                     u7380:
  2710  000B7C                     
  2711                           ; BSR set to: 0
  2712                           ;main.c: 523:                                     u16_SETtemp = 1;
  2713  000B7C  0E00               	movlw	0
  2714  000B7E  6FAD               	movwf	(_u16_SETtemp+1)& (0+255),b
  2715  000B80  0E01               	movlw	1
  2716  000B82  6FAC               	movwf	_u16_SETtemp& (0+255),b
  2717  000B84                     l7960:
  2718                           
  2719                           ; BSR set to: 0
  2720                           ;main.c: 524:                                 u16_SETtemp--;
  2721  000B84  07AC               	decf	_u16_SETtemp& (0+255),f,b
  2722  000B86  A0D8               	btfss	status,0,c
  2723  000B88  07AD               	decf	(_u16_SETtemp+1)& (0+255),f,b
  2724                           
  2725                           ;main.c: 525:                                 break;
  2726  000B8A  EF16  F006         	goto	l7972
  2727  000B8E                     l7962:
  2728                           
  2729                           ; BSR set to: 0
  2730                           ;main.c: 528:                             {;main.c: 530:                                
      +                           if(u16_SETtime <=0)
  2731  000B8E  51AA               	movf	_u16_SETtime& (0+255),w,b
  2732  000B90  11AB               	iorwf	(_u16_SETtime+1)& (0+255),w,b
  2733  000B92  A4D8               	btfss	status,2,c
  2734  000B94  EFCE  F005         	goto	u7391
  2735  000B98  EFD0  F005         	goto	u7390
  2736  000B9C                     u7391:
  2737  000B9C  EFD4  F005         	goto	l7966
  2738  000BA0                     u7390:
  2739  000BA0                     
  2740                           ; BSR set to: 0
  2741                           ;main.c: 531:                                     u16_SETtime = 1;
  2742  000BA0  0E00               	movlw	0
  2743  000BA2  6FAB               	movwf	(_u16_SETtime+1)& (0+255),b
  2744  000BA4  0E01               	movlw	1
  2745  000BA6  6FAA               	movwf	_u16_SETtime& (0+255),b
  2746  000BA8                     l7966:
  2747                           
  2748                           ; BSR set to: 0
  2749                           ;main.c: 532:                                 u16_SETtime--;
  2750  000BA8  07AA               	decf	_u16_SETtime& (0+255),f,b
  2751  000BAA  A0D8               	btfss	status,0,c
  2752  000BAC  07AB               	decf	(_u16_SETtime+1)& (0+255),f,b
  2753                           
  2754                           ;main.c: 533:                                 break;
  2755  000BAE  EF16  F006         	goto	l7972
  2756  000BB2                     l7970:
  2757                           
  2758                           ; BSR set to: 0
  2759  000BB2  51BD               	movf	_menu& (0+255),w,b
  2760  000BB4  6FF0               	movwf	??_main& (0+255),b
  2761  000BB6  6BF1               	clrf	(??_main+1)& (0+255),b
  2762                           
  2763                           ; Switch on 2 bytes has been partitioned into a top level switch of size 1, and 1 sub-sw
      +                          itches
  2764                           ; Switch size 1, requested type "simple"
  2765                           ; Number of cases is 1, Range of values is 0 to 0
  2766                           ; switch strategies available:
  2767                           ; Name         Instructions Cycles
  2768                           ; simple_byte            4     3 (average)
  2769                           ;	Chosen strategy is simple_byte
  2770  000BB8  51F1               	movf	(??_main+1)& (0+255),w,b
  2771  000BBA  0A00               	xorlw	0	; case 0
  2772  000BBC  B4D8               	btfsc	status,2,c
  2773  000BBE  EFE3  F005         	goto	l8248
  2774  000BC2  EF16  F006         	goto	l7972
  2775  000BC6                     l8248:
  2776                           
  2777                           ; BSR set to: 0
  2778                           ; Switch size 1, requested type "simple"
  2779                           ; Number of cases is 12, Range of values is 0 to 11
  2780                           ; switch strategies available:
  2781                           ; Name         Instructions Cycles
  2782                           ; simple_byte           37    19 (average)
  2783                           ;	Chosen strategy is simple_byte
  2784  000BC6  51F0               	movf	??_main& (0+255),w,b
  2785  000BC8  0A00               	xorlw	0	; case 0
  2786  000BCA  B4D8               	btfsc	status,2,c
  2787  000BCC  EF16  F006         	goto	l631
  2788  000BD0  0A01               	xorlw	1	; case 1
  2789  000BD2  B4D8               	btfsc	status,2,c
  2790  000BD4  EF13  F005         	goto	l7902
  2791  000BD8  0A03               	xorlw	3	; case 2
  2792  000BDA  B4D8               	btfsc	status,2,c
  2793  000BDC  EF25  F005         	goto	l7908
  2794  000BE0  0A01               	xorlw	1	; case 3
  2795  000BE2  B4D8               	btfsc	status,2,c
  2796  000BE4  EF37  F005         	goto	l7914
  2797  000BE8  0A07               	xorlw	7	; case 4
  2798  000BEA  B4D8               	btfsc	status,2,c
  2799  000BEC  EF49  F005         	goto	l7920
  2800  000BF0  0A01               	xorlw	1	; case 5
  2801  000BF2  B4D8               	btfsc	status,2,c
  2802  000BF4  EF5B  F005         	goto	l7926
  2803  000BF8  0A03               	xorlw	3	; case 6
  2804  000BFA  B4D8               	btfsc	status,2,c
  2805  000BFC  EF6D  F005         	goto	l7932
  2806  000C00  0A01               	xorlw	1	; case 7
  2807  000C02  B4D8               	btfsc	status,2,c
  2808  000C04  EF7F  F005         	goto	l7938
  2809  000C08  0A0F               	xorlw	15	; case 8
  2810  000C0A  B4D8               	btfsc	status,2,c
  2811  000C0C  EF91  F005         	goto	l7944
  2812  000C10  0A01               	xorlw	1	; case 9
  2813  000C12  B4D8               	btfsc	status,2,c
  2814  000C14  EFA3  F005         	goto	l7950
  2815  000C18  0A03               	xorlw	3	; case 10
  2816  000C1A  B4D8               	btfsc	status,2,c
  2817  000C1C  EFB5  F005         	goto	l7956
  2818  000C20  0A01               	xorlw	1	; case 11
  2819  000C22  B4D8               	btfsc	status,2,c
  2820  000C24  EFC7  F005         	goto	l7962
  2821  000C28  EF16  F006         	goto	l7972
  2822  000C2C                     l631:
  2823  000C2C                     l7972:
  2824                           
  2825                           ;main.c: 542:         if(TMR3_HasOverflowOccured() == 1)
  2826  000C2C  ECA8  F01F         	call	_TMR3_HasOverflowOccured	;wreg free
  2827  000C30  06E8               	decf	wreg,f,c
  2828  000C32  A4D8               	btfss	status,2,c
  2829  000C34  EF1E  F006         	goto	u7401
  2830  000C38  EF20  F006         	goto	u7400
  2831  000C3C                     u7401:
  2832  000C3C  EFCA  F009         	goto	l8052
  2833  000C40                     u7400:
  2834  000C40                     
  2835                           ;main.c: 543:         {;main.c: 545:             PIR2bits.TMR3IF = 0;
  2836  000C40  92A1               	bcf	161,1,c	;volatile
  2837  000C42                     
  2838                           ;main.c: 546:             TMR3_ReadTimer();
  2839  000C42  ECC4  F01F         	call	_TMR3_ReadTimer	;wreg free
  2840  000C46                     
  2841                           ;main.c: 548:             uint_adccnt++;
  2842  000C46  0100               	movlb	0	; () banked
  2843  000C48  4B8E               	infsnz	_uint_adccnt& (0+255),f,b
  2844  000C4A  2B8F               	incf	(_uint_adccnt+1)& (0+255),f,b
  2845  000C4C                     
  2846                           ; BSR set to: 0
  2847                           ;main.c: 550:             flt_adcavg1 = flt_adcavg1 + ADC_GetConversion(channel_AN2);
  2848  000C4C  0E02               	movlw	2
  2849  000C4E  ECFD  F01E         	call	_ADC_GetConversion
  2850  000C52  C005  F00A         	movff	?_ADC_GetConversion,___xxtofl@val
  2851  000C56  C006  F00B         	movff	?_ADC_GetConversion+1,___xxtofl@val+1
  2852  000C5A  6A0C               	clrf	(___xxtofl@val+2)^0,c
  2853  000C5C  6A0D               	clrf	(___xxtofl@val+3)^0,c
  2854  000C5E  0E00               	movlw	0
  2855  000C60  EC46  F017         	call	___xxtofl
  2856  000C64  C00A  F031         	movff	?___xxtofl,___fladd@b
  2857  000C68  C00B  F032         	movff	?___xxtofl+1,___fladd@b+1
  2858  000C6C  C00C  F033         	movff	?___xxtofl+2,___fladd@b+2
  2859  000C70  C00D  F034         	movff	?___xxtofl+3,___fladd@b+3
  2860  000C74  C06C  F035         	movff	_flt_adcavg1,___fladd@a
  2861  000C78  C06D  F036         	movff	_flt_adcavg1+1,___fladd@a+1
  2862  000C7C  C06E  F037         	movff	_flt_adcavg1+2,___fladd@a+2
  2863  000C80  C06F  F038         	movff	_flt_adcavg1+3,___fladd@a+3
  2864  000C84  ECBF  F00F         	call	___fladd	;wreg free
  2865  000C88  C031  F06C         	movff	?___fladd,_flt_adcavg1
  2866  000C8C  C032  F06D         	movff	?___fladd+1,_flt_adcavg1+1
  2867  000C90  C033  F06E         	movff	?___fladd+2,_flt_adcavg1+2
  2868  000C94  C034  F06F         	movff	?___fladd+3,_flt_adcavg1+3
  2869  000C98                     
  2870                           ;main.c: 551:             flt_adcavg2 = flt_adcavg2 + ADC_GetConversion(channel_AN1);
  2871  000C98  0E01               	movlw	1
  2872  000C9A  ECFD  F01E         	call	_ADC_GetConversion
  2873  000C9E  C005  F00A         	movff	?_ADC_GetConversion,___xxtofl@val
  2874  000CA2  C006  F00B         	movff	?_ADC_GetConversion+1,___xxtofl@val+1
  2875  000CA6  6A0C               	clrf	(___xxtofl@val+2)^0,c
  2876  000CA8  6A0D               	clrf	(___xxtofl@val+3)^0,c
  2877  000CAA  0E00               	movlw	0
  2878  000CAC  EC46  F017         	call	___xxtofl
  2879  000CB0  C00A  F031         	movff	?___xxtofl,___fladd@b
  2880  000CB4  C00B  F032         	movff	?___xxtofl+1,___fladd@b+1
  2881  000CB8  C00C  F033         	movff	?___xxtofl+2,___fladd@b+2
  2882  000CBC  C00D  F034         	movff	?___xxtofl+3,___fladd@b+3
  2883  000CC0  C068  F035         	movff	_flt_adcavg2,___fladd@a
  2884  000CC4  C069  F036         	movff	_flt_adcavg2+1,___fladd@a+1
  2885  000CC8  C06A  F037         	movff	_flt_adcavg2+2,___fladd@a+2
  2886  000CCC  C06B  F038         	movff	_flt_adcavg2+3,___fladd@a+3
  2887  000CD0  ECBF  F00F         	call	___fladd	;wreg free
  2888  000CD4  C031  F068         	movff	?___fladd,_flt_adcavg2
  2889  000CD8  C032  F069         	movff	?___fladd+1,_flt_adcavg2+1
  2890  000CDC  C033  F06A         	movff	?___fladd+2,_flt_adcavg2+2
  2891  000CE0  C034  F06B         	movff	?___fladd+3,_flt_adcavg2+3
  2892  000CE4                     
  2893                           ;main.c: 552:             if(uint_adccnt >= 10)
  2894  000CE4  0100               	movlb	0	; () banked
  2895  000CE6  518F               	movf	(_uint_adccnt+1)& (0+255),w,b
  2896  000CE8  E109               	bnz	u7410
  2897  000CEA  0E0A               	movlw	10
  2898  000CEC  5D8E               	subwf	_uint_adccnt& (0+255),w,b
  2899  000CEE  A0D8               	btfss	status,0,c
  2900  000CF0  EF7C  F006         	goto	u7411
  2901  000CF4  EF7E  F006         	goto	u7410
  2902  000CF8                     u7411:
  2903  000CF8  EFAB  F007         	goto	l8002
  2904  000CFC                     u7410:
  2905  000CFC                     
  2906                           ; BSR set to: 0
  2907                           ;main.c: 553:             {;main.c: 554:                 flt_adc1 = flt_adcavg1/uint_adc
      +                          cnt;
  2908  000CFC  C06C  F031         	movff	_flt_adcavg1,___fldiv@b
  2909  000D00  C06D  F032         	movff	_flt_adcavg1+1,___fldiv@b+1
  2910  000D04  C06E  F033         	movff	_flt_adcavg1+2,___fldiv@b+2
  2911  000D08  C06F  F034         	movff	_flt_adcavg1+3,___fldiv@b+3
  2912  000D0C  C08E  F00A         	movff	_uint_adccnt,___xxtofl@val
  2913  000D10  C08F  F00B         	movff	_uint_adccnt+1,___xxtofl@val+1
  2914  000D14  6A0C               	clrf	(___xxtofl@val+2)^0,c
  2915  000D16  6A0D               	clrf	(___xxtofl@val+3)^0,c
  2916  000D18  0E00               	movlw	0
  2917  000D1A  EC46  F017         	call	___xxtofl
  2918  000D1E  C00A  F035         	movff	?___xxtofl,___fldiv@a
  2919  000D22  C00B  F036         	movff	?___xxtofl+1,___fldiv@a+1
  2920  000D26  C00C  F037         	movff	?___xxtofl+2,___fldiv@a+2
  2921  000D2A  C00D  F038         	movff	?___xxtofl+3,___fldiv@a+3
  2922  000D2E  EC34  F014         	call	___fldiv	;wreg free
  2923  000D32  C031  F064         	movff	?___fldiv,_flt_adc1
  2924  000D36  C032  F065         	movff	?___fldiv+1,_flt_adc1+1
  2925  000D3A  C033  F066         	movff	?___fldiv+2,_flt_adc1+2
  2926  000D3E  C034  F067         	movff	?___fldiv+3,_flt_adc1+3
  2927  000D42                     
  2928                           ;main.c: 555:                 flt_adc1 = flt_adc1*1.0/1024.0;
  2929  000D42  0E00               	movlw	0
  2930  000D44  6E1C               	movwf	___flmul@a^0,c
  2931  000D46  0E00               	movlw	0
  2932  000D48  6E1D               	movwf	(___flmul@a+1)^0,c
  2933  000D4A  0E80               	movlw	128
  2934  000D4C  6E1E               	movwf	(___flmul@a+2)^0,c
  2935  000D4E  0E3F               	movlw	63
  2936  000D50  6E1F               	movwf	(___flmul@a+3)^0,c
  2937  000D52  C064  F018         	movff	_flt_adc1,___flmul@b
  2938  000D56  C065  F019         	movff	_flt_adc1+1,___flmul@b+1
  2939  000D5A  C066  F01A         	movff	_flt_adc1+2,___flmul@b+2
  2940  000D5E  C067  F01B         	movff	_flt_adc1+3,___flmul@b+3
  2941  000D62  EC1F  F012         	call	___flmul	;wreg free
  2942  000D66  C018  F031         	movff	?___flmul,___fldiv@b
  2943  000D6A  C019  F032         	movff	?___flmul+1,___fldiv@b+1
  2944  000D6E  C01A  F033         	movff	?___flmul+2,___fldiv@b+2
  2945  000D72  C01B  F034         	movff	?___flmul+3,___fldiv@b+3
  2946  000D76  0E00               	movlw	0
  2947  000D78  6E35               	movwf	___fldiv@a^0,c
  2948  000D7A  0E00               	movlw	0
  2949  000D7C  6E36               	movwf	(___fldiv@a+1)^0,c
  2950  000D7E  0E80               	movlw	128
  2951  000D80  6E37               	movwf	(___fldiv@a+2)^0,c
  2952  000D82  0E44               	movlw	68
  2953  000D84  6E38               	movwf	(___fldiv@a+3)^0,c
  2954  000D86  EC34  F014         	call	___fldiv	;wreg free
  2955  000D8A  C031  F064         	movff	?___fldiv,_flt_adc1
  2956  000D8E  C032  F065         	movff	?___fldiv+1,_flt_adc1+1
  2957  000D92  C033  F066         	movff	?___fldiv+2,_flt_adc1+2
  2958  000D96  C034  F067         	movff	?___fldiv+3,_flt_adc1+3
  2959  000D9A                     
  2960                           ;main.c: 557:                 flt_adc1 = flt_adc1 * 1000.0;
  2961  000D9A  C064  F018         	movff	_flt_adc1,___flmul@b
  2962  000D9E  C065  F019         	movff	_flt_adc1+1,___flmul@b+1
  2963  000DA2  C066  F01A         	movff	_flt_adc1+2,___flmul@b+2
  2964  000DA6  C067  F01B         	movff	_flt_adc1+3,___flmul@b+3
  2965  000DAA  0E00               	movlw	0
  2966  000DAC  6E1C               	movwf	___flmul@a^0,c
  2967  000DAE  0E00               	movlw	0
  2968  000DB0  6E1D               	movwf	(___flmul@a+1)^0,c
  2969  000DB2  0E7A               	movlw	122
  2970  000DB4  6E1E               	movwf	(___flmul@a+2)^0,c
  2971  000DB6  0E44               	movlw	68
  2972  000DB8  6E1F               	movwf	(___flmul@a+3)^0,c
  2973  000DBA  EC1F  F012         	call	___flmul	;wreg free
  2974  000DBE  C018  F064         	movff	?___flmul,_flt_adc1
  2975  000DC2  C019  F065         	movff	?___flmul+1,_flt_adc1+1
  2976  000DC6  C01A  F066         	movff	?___flmul+2,_flt_adc1+2
  2977  000DCA  C01B  F067         	movff	?___flmul+3,_flt_adc1+3
  2978  000DCE                     
  2979                           ;main.c: 570:                 flt_Temp1 = (flt_adc1 - flt_offset)*flt_gain1;
  2980  000DCE  C12C  F045         	movff	_flt_offset,___flsub@a
  2981  000DD2  C12D  F046         	movff	_flt_offset+1,___flsub@a+1
  2982  000DD6  C12E  F047         	movff	_flt_offset+2,___flsub@a+2
  2983  000DDA  C12F  F048         	movff	_flt_offset+3,___flsub@a+3
  2984  000DDE  C064  F041         	movff	_flt_adc1,___flsub@b
  2985  000DE2  C065  F042         	movff	_flt_adc1+1,___flsub@b+1
  2986  000DE6  C066  F043         	movff	_flt_adc1+2,___flsub@b+2
  2987  000DEA  C067  F044         	movff	_flt_adc1+3,___flsub@b+3
  2988  000DEE  EC79  F01E         	call	___flsub	;wreg free
  2989  000DF2  C041  F018         	movff	?___flsub,___flmul@b
  2990  000DF6  C042  F019         	movff	?___flsub+1,___flmul@b+1
  2991  000DFA  C043  F01A         	movff	?___flsub+2,___flmul@b+2
  2992  000DFE  C044  F01B         	movff	?___flsub+3,___flmul@b+3
  2993  000E02  C07C  F01C         	movff	_flt_gain1,___flmul@a
  2994  000E06  C07D  F01D         	movff	_flt_gain1+1,___flmul@a+1
  2995  000E0A  C07E  F01E         	movff	_flt_gain1+2,___flmul@a+2
  2996  000E0E  C07F  F01F         	movff	_flt_gain1+3,___flmul@a+3
  2997  000E12  EC1F  F012         	call	___flmul	;wreg free
  2998  000E16  C018  F130         	movff	?___flmul,_flt_Temp1
  2999  000E1A  C019  F131         	movff	?___flmul+1,_flt_Temp1+1
  3000  000E1E  C01A  F132         	movff	?___flmul+2,_flt_Temp1+2
  3001  000E22  C01B  F133         	movff	?___flmul+3,_flt_Temp1+3
  3002  000E26                     
  3003                           ;main.c: 574:                 flt_adc2 = flt_adcavg2/uint_adccnt;
  3004  000E26  C068  F031         	movff	_flt_adcavg2,___fldiv@b
  3005  000E2A  C069  F032         	movff	_flt_adcavg2+1,___fldiv@b+1
  3006  000E2E  C06A  F033         	movff	_flt_adcavg2+2,___fldiv@b+2
  3007  000E32  C06B  F034         	movff	_flt_adcavg2+3,___fldiv@b+3
  3008  000E36  C08E  F00A         	movff	_uint_adccnt,___xxtofl@val
  3009  000E3A  C08F  F00B         	movff	_uint_adccnt+1,___xxtofl@val+1
  3010  000E3E  6A0C               	clrf	(___xxtofl@val+2)^0,c
  3011  000E40  6A0D               	clrf	(___xxtofl@val+3)^0,c
  3012  000E42  0E00               	movlw	0
  3013  000E44  EC46  F017         	call	___xxtofl
  3014  000E48  C00A  F035         	movff	?___xxtofl,___fldiv@a
  3015  000E4C  C00B  F036         	movff	?___xxtofl+1,___fldiv@a+1
  3016  000E50  C00C  F037         	movff	?___xxtofl+2,___fldiv@a+2
  3017  000E54  C00D  F038         	movff	?___xxtofl+3,___fldiv@a+3
  3018  000E58  EC34  F014         	call	___fldiv	;wreg free
  3019  000E5C  C031  F10C         	movff	?___fldiv,_flt_adc2
  3020  000E60  C032  F10D         	movff	?___fldiv+1,_flt_adc2+1
  3021  000E64  C033  F10E         	movff	?___fldiv+2,_flt_adc2+2
  3022  000E68  C034  F10F         	movff	?___fldiv+3,_flt_adc2+3
  3023                           
  3024                           ;main.c: 575:                 flt_adc2 = flt_adc2*1.0/1024.0;
  3025  000E6C  0E00               	movlw	0
  3026  000E6E  6E1C               	movwf	___flmul@a^0,c
  3027  000E70  0E00               	movlw	0
  3028  000E72  6E1D               	movwf	(___flmul@a+1)^0,c
  3029  000E74  0E80               	movlw	128
  3030  000E76  6E1E               	movwf	(___flmul@a+2)^0,c
  3031  000E78  0E3F               	movlw	63
  3032  000E7A  6E1F               	movwf	(___flmul@a+3)^0,c
  3033  000E7C  C10C  F018         	movff	_flt_adc2,___flmul@b
  3034  000E80  C10D  F019         	movff	_flt_adc2+1,___flmul@b+1
  3035  000E84  C10E  F01A         	movff	_flt_adc2+2,___flmul@b+2
  3036  000E88  C10F  F01B         	movff	_flt_adc2+3,___flmul@b+3
  3037  000E8C  EC1F  F012         	call	___flmul	;wreg free
  3038  000E90  C018  F031         	movff	?___flmul,___fldiv@b
  3039  000E94  C019  F032         	movff	?___flmul+1,___fldiv@b+1
  3040  000E98  C01A  F033         	movff	?___flmul+2,___fldiv@b+2
  3041  000E9C  C01B  F034         	movff	?___flmul+3,___fldiv@b+3
  3042  000EA0  0E00               	movlw	0
  3043  000EA2  6E35               	movwf	___fldiv@a^0,c
  3044  000EA4  0E00               	movlw	0
  3045  000EA6  6E36               	movwf	(___fldiv@a+1)^0,c
  3046  000EA8  0E80               	movlw	128
  3047  000EAA  6E37               	movwf	(___fldiv@a+2)^0,c
  3048  000EAC  0E44               	movlw	68
  3049  000EAE  6E38               	movwf	(___fldiv@a+3)^0,c
  3050  000EB0  EC34  F014         	call	___fldiv	;wreg free
  3051  000EB4  C031  F10C         	movff	?___fldiv,_flt_adc2
  3052  000EB8  C032  F10D         	movff	?___fldiv+1,_flt_adc2+1
  3053  000EBC  C033  F10E         	movff	?___fldiv+2,_flt_adc2+2
  3054  000EC0  C034  F10F         	movff	?___fldiv+3,_flt_adc2+3
  3055                           
  3056                           ;main.c: 577:                 flt_Temp2 = flt_adc2 * 100.0;
  3057  000EC4  C10C  F018         	movff	_flt_adc2,___flmul@b
  3058  000EC8  C10D  F019         	movff	_flt_adc2+1,___flmul@b+1
  3059  000ECC  C10E  F01A         	movff	_flt_adc2+2,___flmul@b+2
  3060  000ED0  C10F  F01B         	movff	_flt_adc2+3,___flmul@b+3
  3061  000ED4  0E00               	movlw	0
  3062  000ED6  6E1C               	movwf	___flmul@a^0,c
  3063  000ED8  0E00               	movlw	0
  3064  000EDA  6E1D               	movwf	(___flmul@a+1)^0,c
  3065  000EDC  0EC8               	movlw	200
  3066  000EDE  6E1E               	movwf	(___flmul@a+2)^0,c
  3067  000EE0  0E42               	movlw	66
  3068  000EE2  6E1F               	movwf	(___flmul@a+3)^0,c
  3069  000EE4  EC1F  F012         	call	___flmul	;wreg free
  3070  000EE8  C018  F080         	movff	?___flmul,_flt_Temp2
  3071  000EEC  C019  F081         	movff	?___flmul+1,_flt_Temp2+1
  3072  000EF0  C01A  F082         	movff	?___flmul+2,_flt_Temp2+2
  3073  000EF4  C01B  F083         	movff	?___flmul+3,_flt_Temp2+3
  3074                           
  3075                           ;main.c: 578:                 flt_Temp2 = flt_Temp2*0.848;
  3076  000EF8  C080  F018         	movff	_flt_Temp2,___flmul@b
  3077  000EFC  C081  F019         	movff	_flt_Temp2+1,___flmul@b+1
  3078  000F00  C082  F01A         	movff	_flt_Temp2+2,___flmul@b+2
  3079  000F04  C083  F01B         	movff	_flt_Temp2+3,___flmul@b+3
  3080  000F08  0E87               	movlw	135
  3081  000F0A  6E1C               	movwf	___flmul@a^0,c
  3082  000F0C  0E16               	movlw	22
  3083  000F0E  6E1D               	movwf	(___flmul@a+1)^0,c
  3084  000F10  0E59               	movlw	89
  3085  000F12  6E1E               	movwf	(___flmul@a+2)^0,c
  3086  000F14  0E3F               	movlw	63
  3087  000F16  6E1F               	movwf	(___flmul@a+3)^0,c
  3088  000F18  EC1F  F012         	call	___flmul	;wreg free
  3089  000F1C  C018  F080         	movff	?___flmul,_flt_Temp2
  3090  000F20  C019  F081         	movff	?___flmul+1,_flt_Temp2+1
  3091  000F24  C01A  F082         	movff	?___flmul+2,_flt_Temp2+2
  3092  000F28  C01B  F083         	movff	?___flmul+3,_flt_Temp2+3
  3093  000F2C                     
  3094                           ;main.c: 584:                 uint_adccnt = 0;
  3095  000F2C  0E00               	movlw	0
  3096  000F2E  0100               	movlb	0	; () banked
  3097  000F30  6F8F               	movwf	(_uint_adccnt+1)& (0+255),b
  3098  000F32  0E00               	movlw	0
  3099  000F34  6F8E               	movwf	_uint_adccnt& (0+255),b
  3100  000F36                     
  3101                           ; BSR set to: 0
  3102                           ;main.c: 585:                 flt_adcavg1 = 0;
  3103  000F36  0E00               	movlw	0
  3104  000F38  6F6C               	movwf	_flt_adcavg1& (0+255),b
  3105  000F3A  0E00               	movlw	0
  3106  000F3C  6F6D               	movwf	(_flt_adcavg1+1)& (0+255),b
  3107  000F3E  0E00               	movlw	0
  3108  000F40  6F6E               	movwf	(_flt_adcavg1+2)& (0+255),b
  3109  000F42  0E00               	movlw	0
  3110  000F44  6F6F               	movwf	(_flt_adcavg1+3)& (0+255),b
  3111  000F46                     
  3112                           ; BSR set to: 0
  3113                           ;main.c: 586:                 flt_adcavg2 = 0;
  3114  000F46  0E00               	movlw	0
  3115  000F48  6F68               	movwf	_flt_adcavg2& (0+255),b
  3116  000F4A  0E00               	movlw	0
  3117  000F4C  6F69               	movwf	(_flt_adcavg2+1)& (0+255),b
  3118  000F4E  0E00               	movlw	0
  3119  000F50  6F6A               	movwf	(_flt_adcavg2+2)& (0+255),b
  3120  000F52  0E00               	movlw	0
  3121  000F54  6F6B               	movwf	(_flt_adcavg2+3)& (0+255),b
  3122  000F56                     l8002:
  3123                           
  3124                           ; BSR set to: 0
  3125                           ;main.c: 588:             flt_Temp = low_pass_filter(flt_Temp1 + flt_Temp2);
  3126  000F56  C130  F031         	movff	_flt_Temp1,___fladd@b
  3127  000F5A  C131  F032         	movff	_flt_Temp1+1,___fladd@b+1
  3128  000F5E  C132  F033         	movff	_flt_Temp1+2,___fladd@b+2
  3129  000F62  C133  F034         	movff	_flt_Temp1+3,___fladd@b+3
  3130  000F66  C080  F035         	movff	_flt_Temp2,___fladd@a
  3131  000F6A  C081  F036         	movff	_flt_Temp2+1,___fladd@a+1
  3132  000F6E  C082  F037         	movff	_flt_Temp2+2,___fladd@a+2
  3133  000F72  C083  F038         	movff	_flt_Temp2+3,___fladd@a+3
  3134  000F76  ECBF  F00F         	call	___fladd	;wreg free
  3135  000F7A  C031  F148         	movff	?___fladd,_main$2493
  3136  000F7E  C032  F149         	movff	?___fladd+1,_main$2493+1
  3137  000F82  C033  F14A         	movff	?___fladd+2,_main$2493+2
  3138  000F86  C034  F14B         	movff	?___fladd+3,_main$2493+3
  3139  000F8A                     
  3140                           ;main.c: 588:             flt_Temp = low_pass_filter(flt_Temp1 + flt_Temp2);
  3141  000F8A  C148  F0E0         	movff	_main$2493,low_pass_filter@x
  3142  000F8E  C149  F0E1         	movff	_main$2493+1,low_pass_filter@x+1
  3143  000F92  C14A  F0E2         	movff	_main$2493+2,low_pass_filter@x+2
  3144  000F96  C14B  F0E3         	movff	_main$2493+3,low_pass_filter@x+3
  3145  000F9A  EC20  F018         	call	_low_pass_filter	;wreg free
  3146  000F9E  C0E0  F084         	movff	?_low_pass_filter,_flt_Temp
  3147  000FA2  C0E1  F085         	movff	?_low_pass_filter+1,_flt_Temp+1
  3148  000FA6  C0E2  F086         	movff	?_low_pass_filter+2,_flt_Temp+2
  3149  000FAA  C0E3  F087         	movff	?_low_pass_filter+3,_flt_Temp+3
  3150  000FAE                     
  3151                           ;main.c: 601:             PID_error = 0.5 + (float)u16_SETtemp - flt_Temp;
  3152  000FAE  0E00               	movlw	0
  3153  000FB0  6E35               	movwf	___fladd@a^0,c
  3154  000FB2  0E00               	movlw	0
  3155  000FB4  6E36               	movwf	(___fladd@a+1)^0,c
  3156  000FB6  0E00               	movlw	0
  3157  000FB8  6E37               	movwf	(___fladd@a+2)^0,c
  3158  000FBA  0E3F               	movlw	63
  3159  000FBC  6E38               	movwf	(___fladd@a+3)^0,c
  3160  000FBE  C0AC  F00A         	movff	_u16_SETtemp,___xxtofl@val
  3161  000FC2  C0AD  F00B         	movff	_u16_SETtemp+1,___xxtofl@val+1
  3162  000FC6  6A0C               	clrf	(___xxtofl@val+2)^0,c
  3163  000FC8  6A0D               	clrf	(___xxtofl@val+3)^0,c
  3164  000FCA  0E00               	movlw	0
  3165  000FCC  EC46  F017         	call	___xxtofl
  3166  000FD0  C00A  F031         	movff	?___xxtofl,___fladd@b
  3167  000FD4  C00B  F032         	movff	?___xxtofl+1,___fladd@b+1
  3168  000FD8  C00C  F033         	movff	?___xxtofl+2,___fladd@b+2
  3169  000FDC  C00D  F034         	movff	?___xxtofl+3,___fladd@b+3
  3170  000FE0  ECBF  F00F         	call	___fladd	;wreg free
  3171  000FE4  C031  F14C         	movff	?___fladd,_main$2494
  3172  000FE8  C032  F14D         	movff	?___fladd+1,_main$2494+1
  3173  000FEC  C033  F14E         	movff	?___fladd+2,_main$2494+2
  3174  000FF0  C034  F14F         	movff	?___fladd+3,_main$2494+3
  3175  000FF4                     
  3176                           ;main.c: 601:             PID_error = 0.5 + (float)u16_SETtemp - flt_Temp;
  3177  000FF4  C14C  F041         	movff	_main$2494,___flsub@b
  3178  000FF8  C14D  F042         	movff	_main$2494+1,___flsub@b+1
  3179  000FFC  C14E  F043         	movff	_main$2494+2,___flsub@b+2
  3180  001000  C14F  F044         	movff	_main$2494+3,___flsub@b+3
  3181  001004  C084  F045         	movff	_flt_Temp,___flsub@a
  3182  001008  C085  F046         	movff	_flt_Temp+1,___flsub@a+1
  3183  00100C  C086  F047         	movff	_flt_Temp+2,___flsub@a+2
  3184  001010  C087  F048         	movff	_flt_Temp+3,___flsub@a+3
  3185  001014  EC79  F01E         	call	___flsub	;wreg free
  3186  001018  C041  F078         	movff	?___flsub,_PID_error
  3187  00101C  C042  F079         	movff	?___flsub+1,_PID_error+1
  3188  001020  C043  F07A         	movff	?___flsub+2,_PID_error+2
  3189  001024  C044  F07B         	movff	?___flsub+3,_PID_error+3
  3190  001028                     
  3191                           ;main.c: 603:             if(PID_error > (u16_pb))
  3192  001028  C0A4  F00A         	movff	_u16_pb,___xxtofl@val
  3193  00102C  C0A5  F00B         	movff	_u16_pb+1,___xxtofl@val+1
  3194  001030  6A0C               	clrf	(___xxtofl@val+2)^0,c
  3195  001032  6A0D               	clrf	(___xxtofl@val+3)^0,c
  3196  001034  0E00               	movlw	0
  3197  001036  EC46  F017         	call	___xxtofl
  3198  00103A  C00A  F018         	movff	?___xxtofl,___flge@ff1
  3199  00103E  C00B  F019         	movff	?___xxtofl+1,___flge@ff1+1
  3200  001042  C00C  F01A         	movff	?___xxtofl+2,___flge@ff1+2
  3201  001046  C00D  F01B         	movff	?___xxtofl+3,___flge@ff1+3
  3202  00104A  C078  F01C         	movff	_PID_error,___flge@ff2
  3203  00104E  C079  F01D         	movff	_PID_error+1,___flge@ff2+1
  3204  001052  C07A  F01E         	movff	_PID_error+2,___flge@ff2+2
  3205  001056  C07B  F01F         	movff	_PID_error+3,___flge@ff2+3
  3206  00105A  ECDB  F01A         	call	___flge	;wreg free
  3207  00105E  B0D8               	btfsc	status,0,c
  3208  001060  EF34  F008         	goto	u7421
  3209  001064  EF36  F008         	goto	u7420
  3210  001068                     u7421:
  3211  001068  EF3F  F008         	goto	l8014
  3212  00106C                     u7420:
  3213  00106C                     
  3214                           ;main.c: 604:             {PID_i = 0;}
  3215  00106C  0E00               	movlw	0
  3216  00106E  0100               	movlb	0	; () banked
  3217  001070  6F70               	movwf	_PID_i& (0+255),b
  3218  001072  0E00               	movlw	0
  3219  001074  6F71               	movwf	(_PID_i+1)& (0+255),b
  3220  001076  0E00               	movlw	0
  3221  001078  6F72               	movwf	(_PID_i+2)& (0+255),b
  3222  00107A  0E00               	movlw	0
  3223  00107C  6F73               	movwf	(_PID_i+3)& (0+255),b
  3224  00107E                     l8014:
  3225                           
  3226                           ;main.c: 606:             if(PID_i < 0)
  3227  00107E  0100               	movlb	0	; () banked
  3228  001080  BF73               	btfsc	(_PID_i+3)& (0+255),7,b
  3229  001082  EF47  F008         	goto	u7430
  3230  001086  EF45  F008         	goto	u7431
  3231  00108A                     u7431:
  3232  00108A  EF4F  F008         	goto	l8018
  3233  00108E                     u7430:
  3234  00108E                     
  3235                           ; BSR set to: 0
  3236                           ;main.c: 607:             {PID_i = 0;}
  3237  00108E  0E00               	movlw	0
  3238  001090  6F70               	movwf	_PID_i& (0+255),b
  3239  001092  0E00               	movlw	0
  3240  001094  6F71               	movwf	(_PID_i+1)& (0+255),b
  3241  001096  0E00               	movlw	0
  3242  001098  6F72               	movwf	(_PID_i+2)& (0+255),b
  3243  00109A  0E00               	movlw	0
  3244  00109C  6F73               	movwf	(_PID_i+3)& (0+255),b
  3245  00109E                     l8018:
  3246                           
  3247                           ; BSR set to: 0
  3248                           ;main.c: 609:             if(PID_i >u16_plm)
  3249  00109E  C0D2  F00A         	movff	_u16_plm,___xxtofl@val
  3250  0010A2  C0D3  F00B         	movff	_u16_plm+1,___xxtofl@val+1
  3251  0010A6  6A0C               	clrf	(___xxtofl@val+2)^0,c
  3252  0010A8  6A0D               	clrf	(___xxtofl@val+3)^0,c
  3253  0010AA  0E00               	movlw	0
  3254  0010AC  EC46  F017         	call	___xxtofl
  3255  0010B0  C00A  F018         	movff	?___xxtofl,___flge@ff1
  3256  0010B4  C00B  F019         	movff	?___xxtofl+1,___flge@ff1+1
  3257  0010B8  C00C  F01A         	movff	?___xxtofl+2,___flge@ff1+2
  3258  0010BC  C00D  F01B         	movff	?___xxtofl+3,___flge@ff1+3
  3259  0010C0  C070  F01C         	movff	_PID_i,___flge@ff2
  3260  0010C4  C071  F01D         	movff	_PID_i+1,___flge@ff2+1
  3261  0010C8  C072  F01E         	movff	_PID_i+2,___flge@ff2+2
  3262  0010CC  C073  F01F         	movff	_PID_i+3,___flge@ff2+3
  3263  0010D0  ECDB  F01A         	call	___flge	;wreg free
  3264  0010D4  B0D8               	btfsc	status,0,c
  3265  0010D6  EF6F  F008         	goto	u7441
  3266  0010DA  EF71  F008         	goto	u7440
  3267  0010DE                     u7441:
  3268  0010DE  EF82  F008         	goto	l8022
  3269  0010E2                     u7440:
  3270  0010E2                     
  3271                           ;main.c: 610:             {PID_i = u16_plm;}
  3272  0010E2  C0D2  F00A         	movff	_u16_plm,___xxtofl@val
  3273  0010E6  C0D3  F00B         	movff	_u16_plm+1,___xxtofl@val+1
  3274  0010EA  6A0C               	clrf	(___xxtofl@val+2)^0,c
  3275  0010EC  6A0D               	clrf	(___xxtofl@val+3)^0,c
  3276  0010EE  0E00               	movlw	0
  3277  0010F0  EC46  F017         	call	___xxtofl
  3278  0010F4  C00A  F070         	movff	?___xxtofl,_PID_i
  3279  0010F8  C00B  F071         	movff	?___xxtofl+1,_PID_i+1
  3280  0010FC  C00C  F072         	movff	?___xxtofl+2,_PID_i+2
  3281  001100  C00D  F073         	movff	?___xxtofl+3,_PID_i+3
  3282  001104                     l8022:
  3283                           
  3284                           ;main.c: 613:             {;main.c: 614:                 PID_p = kp * PID_error;
  3285  001104  C154  F018         	movff	_kp,___flmul@b
  3286  001108  C155  F019         	movff	_kp+1,___flmul@b+1
  3287  00110C  C156  F01A         	movff	_kp+2,___flmul@b+2
  3288  001110  C157  F01B         	movff	_kp+3,___flmul@b+3
  3289  001114  C078  F01C         	movff	_PID_error,___flmul@a
  3290  001118  C079  F01D         	movff	_PID_error+1,___flmul@a+1
  3291  00111C  C07A  F01E         	movff	_PID_error+2,___flmul@a+2
  3292  001120  C07B  F01F         	movff	_PID_error+3,___flmul@a+3
  3293  001124  EC1F  F012         	call	___flmul	;wreg free
  3294  001128  C018  F114         	movff	?___flmul,_PID_p
  3295  00112C  C019  F115         	movff	?___flmul+1,_PID_p+1
  3296  001130  C01A  F116         	movff	?___flmul+2,_PID_p+2
  3297  001134  C01B  F117         	movff	?___flmul+3,_PID_p+3
  3298  001138                     
  3299                           ;main.c: 615:                 PID_i = PID_i + (ki * PID_error);
  3300  001138  C078  F01C         	movff	_PID_error,___flmul@a
  3301  00113C  C079  F01D         	movff	_PID_error+1,___flmul@a+1
  3302  001140  C07A  F01E         	movff	_PID_error+2,___flmul@a+2
  3303  001144  C07B  F01F         	movff	_PID_error+3,___flmul@a+3
  3304  001148  C0F4  F018         	movff	_ki,___flmul@b
  3305  00114C  C0F5  F019         	movff	_ki+1,___flmul@b+1
  3306  001150  C0F6  F01A         	movff	_ki+2,___flmul@b+2
  3307  001154  C0F7  F01B         	movff	_ki+3,___flmul@b+3
  3308  001158  EC1F  F012         	call	___flmul	;wreg free
  3309  00115C  C018  F031         	movff	?___flmul,___fladd@b
  3310  001160  C019  F032         	movff	?___flmul+1,___fladd@b+1
  3311  001164  C01A  F033         	movff	?___flmul+2,___fladd@b+2
  3312  001168  C01B  F034         	movff	?___flmul+3,___fladd@b+3
  3313  00116C  C070  F035         	movff	_PID_i,___fladd@a
  3314  001170  C071  F036         	movff	_PID_i+1,___fladd@a+1
  3315  001174  C072  F037         	movff	_PID_i+2,___fladd@a+2
  3316  001178  C073  F038         	movff	_PID_i+3,___fladd@a+3
  3317  00117C  ECBF  F00F         	call	___fladd	;wreg free
  3318  001180  C031  F070         	movff	?___fladd,_PID_i
  3319  001184  C032  F071         	movff	?___fladd+1,_PID_i+1
  3320  001188  C033  F072         	movff	?___fladd+2,_PID_i+2
  3321  00118C  C034  F073         	movff	?___fladd+3,_PID_i+3
  3322                           
  3323                           ;main.c: 621:                 PID_value = PID_p + PID_i + PID_d;
  3324  001190  C114  F031         	movff	_PID_p,___fladd@b
  3325  001194  C115  F032         	movff	_PID_p+1,___fladd@b+1
  3326  001198  C116  F033         	movff	_PID_p+2,___fladd@b+2
  3327  00119C  C117  F034         	movff	_PID_p+3,___fladd@b+3
  3328  0011A0  C070  F035         	movff	_PID_i,___fladd@a
  3329  0011A4  C071  F036         	movff	_PID_i+1,___fladd@a+1
  3330  0011A8  C072  F037         	movff	_PID_i+2,___fladd@a+2
  3331  0011AC  C073  F038         	movff	_PID_i+3,___fladd@a+3
  3332  0011B0  ECBF  F00F         	call	___fladd	;wreg free
  3333  0011B4  C031  F074         	movff	?___fladd,_PID_value
  3334  0011B8  C032  F075         	movff	?___fladd+1,_PID_value+1
  3335  0011BC  C033  F076         	movff	?___fladd+2,_PID_value+2
  3336  0011C0  C034  F077         	movff	?___fladd+3,_PID_value+3
  3337  0011C4                     
  3338                           ;main.c: 622:                 PID_value = PID_value * (u16_plm * 0.01);
  3339  0011C4  0E0A               	movlw	10
  3340  0011C6  6E1C               	movwf	___flmul@a^0,c
  3341  0011C8  0ED7               	movlw	215
  3342  0011CA  6E1D               	movwf	(___flmul@a+1)^0,c
  3343  0011CC  0E23               	movlw	35
  3344  0011CE  6E1E               	movwf	(___flmul@a+2)^0,c
  3345  0011D0  0E3C               	movlw	60
  3346  0011D2  6E1F               	movwf	(___flmul@a+3)^0,c
  3347  0011D4  C0D2  F00A         	movff	_u16_plm,___xxtofl@val
  3348  0011D8  C0D3  F00B         	movff	_u16_plm+1,___xxtofl@val+1
  3349  0011DC  6A0C               	clrf	(___xxtofl@val+2)^0,c
  3350  0011DE  6A0D               	clrf	(___xxtofl@val+3)^0,c
  3351  0011E0  0E00               	movlw	0
  3352  0011E2  EC46  F017         	call	___xxtofl
  3353  0011E6  C00A  F018         	movff	?___xxtofl,___flmul@b
  3354  0011EA  C00B  F019         	movff	?___xxtofl+1,___flmul@b+1
  3355  0011EE  C00C  F01A         	movff	?___xxtofl+2,___flmul@b+2
  3356  0011F2  C00D  F01B         	movff	?___xxtofl+3,___flmul@b+3
  3357  0011F6  EC1F  F012         	call	___flmul	;wreg free
  3358  0011FA  C018  F150         	movff	?___flmul,_main$2496
  3359  0011FE  C019  F151         	movff	?___flmul+1,_main$2496+1
  3360  001202  C01A  F152         	movff	?___flmul+2,_main$2496+2
  3361  001206  C01B  F153         	movff	?___flmul+3,_main$2496+3
  3362  00120A                     
  3363                           ;main.c: 622:                 PID_value = PID_value * (u16_plm * 0.01);
  3364  00120A  C150  F018         	movff	_main$2496,___flmul@b
  3365  00120E  C151  F019         	movff	_main$2496+1,___flmul@b+1
  3366  001212  C152  F01A         	movff	_main$2496+2,___flmul@b+2
  3367  001216  C153  F01B         	movff	_main$2496+3,___flmul@b+3
  3368  00121A  C074  F01C         	movff	_PID_value,___flmul@a
  3369  00121E  C075  F01D         	movff	_PID_value+1,___flmul@a+1
  3370  001222  C076  F01E         	movff	_PID_value+2,___flmul@a+2
  3371  001226  C077  F01F         	movff	_PID_value+3,___flmul@a+3
  3372  00122A  EC1F  F012         	call	___flmul	;wreg free
  3373  00122E  C018  F074         	movff	?___flmul,_PID_value
  3374  001232  C019  F075         	movff	?___flmul+1,_PID_value+1
  3375  001236  C01A  F076         	movff	?___flmul+2,_PID_value+2
  3376  00123A  C01B  F077         	movff	?___flmul+3,_PID_value+3
  3377  00123E                     
  3378                           ;main.c: 623:             };main.c: 625:             if(PID_value < 0)
  3379  00123E  0100               	movlb	0	; () banked
  3380  001240  BF77               	btfsc	(_PID_value+3)& (0+255),7,b
  3381  001242  EF27  F009         	goto	u7450
  3382  001246  EF25  F009         	goto	u7451
  3383  00124A                     u7451:
  3384  00124A  EF2F  F009         	goto	l8034
  3385  00124E                     u7450:
  3386  00124E                     
  3387                           ; BSR set to: 0
  3388                           ;main.c: 626:             { PID_value = 0; }
  3389  00124E  0E00               	movlw	0
  3390  001250  6F74               	movwf	_PID_value& (0+255),b
  3391  001252  0E00               	movlw	0
  3392  001254  6F75               	movwf	(_PID_value+1)& (0+255),b
  3393  001256  0E00               	movlw	0
  3394  001258  6F76               	movwf	(_PID_value+2)& (0+255),b
  3395  00125A  0E00               	movlw	0
  3396  00125C  6F77               	movwf	(_PID_value+3)& (0+255),b
  3397  00125E                     l8034:
  3398                           
  3399                           ; BSR set to: 0
  3400                           ;main.c: 627:             if(PID_value > u16_plm)
  3401  00125E  C0D2  F00A         	movff	_u16_plm,___xxtofl@val
  3402  001262  C0D3  F00B         	movff	_u16_plm+1,___xxtofl@val+1
  3403  001266  6A0C               	clrf	(___xxtofl@val+2)^0,c
  3404  001268  6A0D               	clrf	(___xxtofl@val+3)^0,c
  3405  00126A  0E00               	movlw	0
  3406  00126C  EC46  F017         	call	___xxtofl
  3407  001270  C00A  F018         	movff	?___xxtofl,___flge@ff1
  3408  001274  C00B  F019         	movff	?___xxtofl+1,___flge@ff1+1
  3409  001278  C00C  F01A         	movff	?___xxtofl+2,___flge@ff1+2
  3410  00127C  C00D  F01B         	movff	?___xxtofl+3,___flge@ff1+3
  3411  001280  C074  F01C         	movff	_PID_value,___flge@ff2
  3412  001284  C075  F01D         	movff	_PID_value+1,___flge@ff2+1
  3413  001288  C076  F01E         	movff	_PID_value+2,___flge@ff2+2
  3414  00128C  C077  F01F         	movff	_PID_value+3,___flge@ff2+3
  3415  001290  ECDB  F01A         	call	___flge	;wreg free
  3416  001294  B0D8               	btfsc	status,0,c
  3417  001296  EF4F  F009         	goto	u7461
  3418  00129A  EF51  F009         	goto	u7460
  3419  00129E                     u7461:
  3420  00129E  EF62  F009         	goto	l8038
  3421  0012A2                     u7460:
  3422  0012A2                     
  3423                           ;main.c: 628:             { PID_value = u16_plm; }
  3424  0012A2  C0D2  F00A         	movff	_u16_plm,___xxtofl@val
  3425  0012A6  C0D3  F00B         	movff	_u16_plm+1,___xxtofl@val+1
  3426  0012AA  6A0C               	clrf	(___xxtofl@val+2)^0,c
  3427  0012AC  6A0D               	clrf	(___xxtofl@val+3)^0,c
  3428  0012AE  0E00               	movlw	0
  3429  0012B0  EC46  F017         	call	___xxtofl
  3430  0012B4  C00A  F074         	movff	?___xxtofl,_PID_value
  3431  0012B8  C00B  F075         	movff	?___xxtofl+1,_PID_value+1
  3432  0012BC  C00C  F076         	movff	?___xxtofl+2,_PID_value+2
  3433  0012C0  C00D  F077         	movff	?___xxtofl+3,_PID_value+3
  3434  0012C4                     l8038:
  3435                           
  3436                           ;main.c: 629:             previous_error = PID_error;
  3437  0012C4  C078  F124         	movff	_PID_error,_previous_error
  3438  0012C8  C079  F125         	movff	_PID_error+1,_previous_error+1
  3439  0012CC  C07A  F126         	movff	_PID_error+2,_previous_error+2
  3440  0012D0  C07B  F127         	movff	_PID_error+3,_previous_error+3
  3441                           
  3442                           ;main.c: 631:             u8_powerduty = PID_value;
  3443  0012D4  C074  F005         	movff	_PID_value,___fltol@f1
  3444  0012D8  C075  F006         	movff	_PID_value+1,___fltol@f1+1
  3445  0012DC  C076  F007         	movff	_PID_value+2,___fltol@f1+2
  3446  0012E0  C077  F008         	movff	_PID_value+3,___fltol@f1+3
  3447  0012E4  EC58  F01A         	call	___fltol	;wreg free
  3448  0012E8  5005               	movf	?___fltol^0,w,c
  3449  0012EA  0100               	movlb	0	; () banked
  3450  0012EC  6FBB               	movwf	_u8_powerduty& (0+255),b	;volatile
  3451                           
  3452                           ;main.c: 633:             if(flt_Temp > (u16_SETtemp - u16_hys))
  3453  0012EE  51A0               	movf	_u16_hys& (0+255),w,b
  3454  0012F0  5DAC               	subwf	_u16_SETtemp& (0+255),w,b
  3455  0012F2  6FF0               	movwf	??_main& (0+255),b
  3456  0012F4  51A1               	movf	(_u16_hys+1)& (0+255),w,b
  3457  0012F6  59AD               	subwfb	(_u16_SETtemp+1)& (0+255),w,b
  3458  0012F8  6FF1               	movwf	(??_main+1)& (0+255),b
  3459  0012FA  C0F0  F00A         	movff	??_main,___xxtofl@val
  3460  0012FE  C0F1  F00B         	movff	??_main+1,___xxtofl@val+1
  3461  001302  6A0C               	clrf	(___xxtofl@val+2)^0,c
  3462  001304  6A0D               	clrf	(___xxtofl@val+3)^0,c
  3463  001306  0E00               	movlw	0
  3464  001308  EC46  F017         	call	___xxtofl
  3465  00130C  C00A  F018         	movff	?___xxtofl,___flge@ff1
  3466  001310  C00B  F019         	movff	?___xxtofl+1,___flge@ff1+1
  3467  001314  C00C  F01A         	movff	?___xxtofl+2,___flge@ff1+2
  3468  001318  C00D  F01B         	movff	?___xxtofl+3,___flge@ff1+3
  3469  00131C  C084  F01C         	movff	_flt_Temp,___flge@ff2
  3470  001320  C085  F01D         	movff	_flt_Temp+1,___flge@ff2+1
  3471  001324  C086  F01E         	movff	_flt_Temp+2,___flge@ff2+2
  3472  001328  C087  F01F         	movff	_flt_Temp+3,___flge@ff2+3
  3473  00132C  ECDB  F01A         	call	___flge	;wreg free
  3474  001330  B0D8               	btfsc	status,0,c
  3475  001332  EF9D  F009         	goto	u7471
  3476  001336  EF9F  F009         	goto	u7470
  3477  00133A                     u7471:
  3478  00133A  EFCA  F009         	goto	l8052
  3479  00133E                     u7470:
  3480  00133E                     
  3481                           ;main.c: 634:             {;main.c: 636:                 if(u8_sw_microEN==1)
  3482  00133E  0100               	movlb	0	; () banked
  3483  001340  0590               	decf	_u8_sw_microEN& (0+255),w,b
  3484  001342  1191               	iorwf	(_u8_sw_microEN+1)& (0+255),w,b
  3485  001344  A4D8               	btfss	status,2,c
  3486  001346  EFA7  F009         	goto	u7481
  3487  00134A  EFA9  F009         	goto	u7480
  3488  00134E                     u7481:
  3489  00134E  EFC6  F009         	goto	l8050
  3490  001352                     u7480:
  3491  001352                     
  3492                           ; BSR set to: 0
  3493                           ;main.c: 637:                 {;main.c: 638:                     if((u8_loadON == 0)&&(u
      +                          8_loadONfirst == 0))
  3494  001352  51C7               	movf	_u8_loadON& (0+255),w,b
  3495  001354  A4D8               	btfss	status,2,c
  3496  001356  EFAF  F009         	goto	u7491
  3497  00135A  EFB1  F009         	goto	u7490
  3498  00135E                     u7491:
  3499  00135E  EFCA  F009         	goto	l692
  3500  001362                     u7490:
  3501  001362                     
  3502                           ; BSR set to: 0
  3503  001362  51C6               	movf	_u8_loadONfirst& (0+255),w,b
  3504  001364  A4D8               	btfss	status,2,c
  3505  001366  EFB7  F009         	goto	u7501
  3506  00136A  EFB9  F009         	goto	u7500
  3507  00136E                     u7501:
  3508  00136E  EFCA  F009         	goto	l692
  3509  001372                     u7500:
  3510  001372                     
  3511                           ; BSR set to: 0
  3512  001372  848B               	bsf	139,2,c	;volatile
  3513  001374                     
  3514                           ; BSR set to: 0
  3515                           ;main.c: 641:                         u8_led2 = 1;
  3516  001374  0E01               	movlw	1
  3517  001376  6FC3               	movwf	_u8_led2& (0+255),b
  3518                           
  3519                           ;main.c: 642:                         u8_loadON = 1;
  3520  001378  0E01               	movlw	1
  3521  00137A  6FC7               	movwf	_u8_loadON& (0+255),b
  3522                           
  3523                           ;main.c: 643:                         u8_loadONfirst = 1;
  3524  00137C  0E01               	movlw	1
  3525  00137E  6FC6               	movwf	_u8_loadONfirst& (0+255),b
  3526  001380                     
  3527                           ; BSR set to: 0
  3528                           ;main.c: 644:                         u16_timesec = u16_SETtime;
  3529  001380  C0AA  F0A8         	movff	_u16_SETtime,_u16_timesec	;volatile
  3530  001384  C0AB  F0A9         	movff	_u16_SETtime+1,_u16_timesec+1	;volatile
  3531  001388  EFCA  F009         	goto	l8052
  3532  00138C                     l8050:
  3533                           
  3534                           ; BSR set to: 0
  3535                           ;main.c: 648:                 {;main.c: 649:                     u8_loadONfirst = 0;
  3536  00138C  0E00               	movlw	0
  3537  00138E  6FC6               	movwf	_u8_loadONfirst& (0+255),b
  3538  001390  EFCA  F009         	goto	l8052
  3539  001394                     l692:
  3540  001394                     l8052:
  3541                           
  3542                           ;main.c: 653:         ctrl_task ();
  3543  001394  ECD0  F009         	call	_ctrl_task	;wreg free
  3544  001398  EF29  F003         	goto	l7768
  3545  00139C  EF26  F000         	goto	start
  3546  0013A0                     __end_of_main:
  3547                           	opt callstack 0
  3548                           
  3549 ;; *************** function _low_pass_filter *****************
  3550 ;; Defined at:
  3551 ;;		line 1025 in file "main.c"
  3552 ;; Parameters:    Size  Location     Type
  3553 ;;  x               4   12[BANK0 ] float 
  3554 ;; Auto vars:     Size  Location     Type
  3555 ;;  LPF_Beta        4   16[BANK0 ] float 
  3556 ;;  RawData         2    0        int 
  3557 ;; Return value:  Size  Location     Type
  3558 ;;                  4   12[BANK0 ] float 
  3559 ;; Registers used:
  3560 ;;		wreg, status,2, status,0, prodl, prodh, cstack
  3561 ;; Tracked objects:
  3562 ;;		On entry : 0/0
  3563 ;;		On exit  : 0/0
  3564 ;;		Unchanged: 0/0
  3565 ;; Data sizes:     COMRAM   BANK0   BANK1   BANK2   BANK3   BANK4   BANK5   BANK6   BANK7   BANK8   BANK9  BANK10  BANK1
      +1  BANK12  BANK13  BANK14  BANK15
  3566 ;;      Params:         0       4       0       0       0       0       0       0       0       0       0       0       
      +0       0       0       0       0
  3567 ;;      Locals:         0      12       0       0       0       0       0       0       0       0       0       0       
      +0       0       0       0       0
  3568 ;;      Temps:          0       0       0       0       0       0       0       0       0       0       0       0       
      +0       0       0       0       0
  3569 ;;      Totals:         0      16       0       0       0       0       0       0       0       0       0       0       
      +0       0       0       0       0
  3570 ;;Total ram usage:       16 bytes
  3571 ;; Hardware stack levels used:    1
  3572 ;; Hardware stack levels required when called:    6
  3573 ;; This function calls:
  3574 ;;		___flmul
  3575 ;;		___flsub
  3576 ;;		_lowPassExponential
  3577 ;; This function is called by:
  3578 ;;		_main
  3579 ;; This function uses a non-reentrant model
  3580 ;;
  3581                           
  3582                           	psect	text1
  3583  003040                     __ptext1:
  3584                           	opt callstack 0
  3585  003040                     _low_pass_filter:
  3586                           	opt callstack 24
  3587  003040                     
  3588                           ;main.c: 1025: float low_pass_filter(float x);main.c: 1026: {;main.c: 1061:     static i
      +                          nt j = 0;;main.c: 1062:     int RawData;;main.c: 1063:     float LPF_Beta = 0.05 ;
  3589  003040  0ECD               	movlw	205
  3590  003042  0100               	movlb	0	; () banked
  3591  003044  6FE4               	movwf	low_pass_filter@LPF_Beta& (0+255),b
  3592  003046  0ECC               	movlw	204
  3593  003048  6FE5               	movwf	(low_pass_filter@LPF_Beta+1)& (0+255),b
  3594  00304A  0E4C               	movlw	76
  3595  00304C  6FE6               	movwf	(low_pass_filter@LPF_Beta+2)& (0+255),b
  3596  00304E  0E3D               	movlw	61
  3597  003050  6FE7               	movwf	(low_pass_filter@LPF_Beta+3)& (0+255),b
  3598  003052                     
  3599                           ; BSR set to: 0
  3600                           ;main.c: 1064:     static float result =0;;main.c: 1066:     result = result - (LPF_Beta
      +                           * (result - lowPassExponential(x,10,0.9)));
  3601  003052  0E66               	movlw	102
  3602  003054  6E51               	movwf	lowPassExponential@factor^0,c
  3603  003056  0E66               	movlw	102
  3604  003058  6E52               	movwf	(lowPassExponential@factor+1)^0,c
  3605  00305A  0E66               	movlw	102
  3606  00305C  6E53               	movwf	(lowPassExponential@factor+2)^0,c
  3607  00305E  0E3F               	movlw	63
  3608  003060  6E54               	movwf	(lowPassExponential@factor+3)^0,c
  3609  003062  0E00               	movlw	0
  3610  003064  6E4D               	movwf	lowPassExponential@average^0,c
  3611  003066  0E00               	movlw	0
  3612  003068  6E4E               	movwf	(lowPassExponential@average+1)^0,c
  3613  00306A  0E20               	movlw	32
  3614  00306C  6E4F               	movwf	(lowPassExponential@average+2)^0,c
  3615  00306E  0E41               	movlw	65
  3616  003070  6E50               	movwf	(lowPassExponential@average+3)^0,c
  3617  003072  C0E0  F049         	movff	low_pass_filter@x,lowPassExponential@input
  3618  003076  C0E1  F04A         	movff	low_pass_filter@x+1,lowPassExponential@input+1
  3619  00307A  C0E2  F04B         	movff	low_pass_filter@x+2,lowPassExponential@input+2
  3620  00307E  C0E3  F04C         	movff	low_pass_filter@x+3,lowPassExponential@input+3
  3621  003082  ECDB  F01B         	call	_lowPassExponential	;wreg free
  3622  003086  C049  F0E8         	movff	?_lowPassExponential,_low_pass_filter$2497
  3623  00308A  C04A  F0E9         	movff	?_lowPassExponential+1,_low_pass_filter$2497+1
  3624  00308E  C04B  F0EA         	movff	?_lowPassExponential+2,_low_pass_filter$2497+2
  3625  003092  C04C  F0EB         	movff	?_lowPassExponential+3,_low_pass_filter$2497+3
  3626  003096                     
  3627                           ;main.c: 1064:     static float result =0;;main.c: 1066:     result = result - (LPF_Beta
      +                           * (result - lowPassExponential(x,10,0.9)));
  3628  003096  C0E4  F01C         	movff	low_pass_filter@LPF_Beta,___flmul@a
  3629  00309A  C0E5  F01D         	movff	low_pass_filter@LPF_Beta+1,___flmul@a+1
  3630  00309E  C0E6  F01E         	movff	low_pass_filter@LPF_Beta+2,___flmul@a+2
  3631  0030A2  C0E7  F01F         	movff	low_pass_filter@LPF_Beta+3,___flmul@a+3
  3632  0030A6  C0E8  F045         	movff	_low_pass_filter$2497,___flsub@a
  3633  0030AA  C0E9  F046         	movff	_low_pass_filter$2497+1,___flsub@a+1
  3634  0030AE  C0EA  F047         	movff	_low_pass_filter$2497+2,___flsub@a+2
  3635  0030B2  C0EB  F048         	movff	_low_pass_filter$2497+3,___flsub@a+3
  3636  0030B6  C060  F041         	movff	low_pass_filter@result,___flsub@b
  3637  0030BA  C061  F042         	movff	low_pass_filter@result+1,___flsub@b+1
  3638  0030BE  C062  F043         	movff	low_pass_filter@result+2,___flsub@b+2
  3639  0030C2  C063  F044         	movff	low_pass_filter@result+3,___flsub@b+3
  3640  0030C6  EC79  F01E         	call	___flsub	;wreg free
  3641  0030CA  C041  F018         	movff	?___flsub,___flmul@b
  3642  0030CE  C042  F019         	movff	?___flsub+1,___flmul@b+1
  3643  0030D2  C043  F01A         	movff	?___flsub+2,___flmul@b+2
  3644  0030D6  C044  F01B         	movff	?___flsub+3,___flmul@b+3
  3645  0030DA  EC1F  F012         	call	___flmul	;wreg free
  3646  0030DE  C018  F0EC         	movff	?___flmul,_low_pass_filter$2498
  3647  0030E2  C019  F0ED         	movff	?___flmul+1,_low_pass_filter$2498+1
  3648  0030E6  C01A  F0EE         	movff	?___flmul+2,_low_pass_filter$2498+2
  3649  0030EA  C01B  F0EF         	movff	?___flmul+3,_low_pass_filter$2498+3
  3650  0030EE                     
  3651                           ;main.c: 1064:     static float result =0;;main.c: 1066:     result = result - (LPF_Beta
      +                           * (result - lowPassExponential(x,10,0.9)));
  3652  0030EE  C060  F041         	movff	low_pass_filter@result,___flsub@b
  3653  0030F2  C061  F042         	movff	low_pass_filter@result+1,___flsub@b+1
  3654  0030F6  C062  F043         	movff	low_pass_filter@result+2,___flsub@b+2
  3655  0030FA  C063  F044         	movff	low_pass_filter@result+3,___flsub@b+3
  3656  0030FE  C0EC  F045         	movff	_low_pass_filter$2498,___flsub@a
  3657  003102  C0ED  F046         	movff	_low_pass_filter$2498+1,___flsub@a+1
  3658  003106  C0EE  F047         	movff	_low_pass_filter$2498+2,___flsub@a+2
  3659  00310A  C0EF  F048         	movff	_low_pass_filter$2498+3,___flsub@a+3
  3660  00310E  EC79  F01E         	call	___flsub	;wreg free
  3661  003112  C041  F060         	movff	?___flsub,low_pass_filter@result
  3662  003116  C042  F061         	movff	?___flsub+1,low_pass_filter@result+1
  3663  00311A  C043  F062         	movff	?___flsub+2,low_pass_filter@result+2
  3664  00311E  C044  F063         	movff	?___flsub+3,low_pass_filter@result+3
  3665  003122                     
  3666                           ;main.c: 1067:     if(j<500)
  3667  003122  0100               	movlb	0	; () banked
  3668  003124  BF8D               	btfsc	(low_pass_filter@j+1)& (0+255),7,b
  3669  003126  EFA0  F018         	goto	u6710
  3670  00312A  0EF4               	movlw	244
  3671  00312C  5D8C               	subwf	low_pass_filter@j& (0+255),w,b
  3672  00312E  0E01               	movlw	1
  3673  003130  598D               	subwfb	(low_pass_filter@j+1)& (0+255),w,b
  3674  003132  B0D8               	btfsc	status,0,c
  3675  003134  EF9E  F018         	goto	u6711
  3676  003138  EFA0  F018         	goto	u6710
  3677  00313C                     u6711:
  3678  00313C  EFAC  F018         	goto	l780
  3679  003140                     u6710:
  3680  003140                     
  3681                           ; BSR set to: 0
  3682                           ;main.c: 1068:     {;main.c: 1069:         j++;
  3683  003140  4B8C               	infsnz	low_pass_filter@j& (0+255),f,b
  3684  003142  2B8D               	incf	(low_pass_filter@j+1)& (0+255),f,b
  3685  003144                     
  3686                           ; BSR set to: 0
  3687                           ;main.c: 1070:         return x;
  3688  003144  C0E0  F0E0         	movff	low_pass_filter@x,?_low_pass_filter
  3689  003148  C0E1  F0E1         	movff	low_pass_filter@x+1,?_low_pass_filter+1
  3690  00314C  C0E2  F0E2         	movff	low_pass_filter@x+2,?_low_pass_filter+2
  3691  003150  C0E3  F0E3         	movff	low_pass_filter@x+3,?_low_pass_filter+3
  3692  003154  EFB4  F018         	goto	l781
  3693  003158                     l780:
  3694                           
  3695                           ; BSR set to: 0
  3696                           ;main.c: 1072:     return result;
  3697  003158  C060  F0E0         	movff	low_pass_filter@result,?_low_pass_filter
  3698  00315C  C061  F0E1         	movff	low_pass_filter@result+1,?_low_pass_filter+1
  3699  003160  C062  F0E2         	movff	low_pass_filter@result+2,?_low_pass_filter+2
  3700  003164  C063  F0E3         	movff	low_pass_filter@result+3,?_low_pass_filter+3
  3701  003168                     l781:
  3702                           
  3703                           ; BSR set to: 0
  3704  003168  0012               	return		;funcret
  3705  00316A                     __end_of_low_pass_filter:
  3706                           	opt callstack 0
  3707                           
  3708 ;; *************** function _lowPassExponential *****************
  3709 ;; Defined at:
  3710 ;;		line 1074 in file "main.c"
  3711 ;; Parameters:    Size  Location     Type
  3712 ;;  input           4   72[COMRAM] float 
  3713 ;;  average         4   76[COMRAM] float 
  3714 ;;  factor          4   80[COMRAM] float 
  3715 ;; Auto vars:     Size  Location     Type
  3716 ;;  weighting       4    8[BANK0 ] float 
  3717 ;;  Result          4    4[BANK0 ] float 
  3718 ;; Return value:  Size  Location     Type
  3719 ;;                  4   72[COMRAM] float 
  3720 ;; Registers used:
  3721 ;;		wreg, status,2, status,0, prodl, prodh, cstack
  3722 ;; Tracked objects:
  3723 ;;		On entry : 0/0
  3724 ;;		On exit  : 0/0
  3725 ;;		Unchanged: 0/0
  3726 ;; Data sizes:     COMRAM   BANK0   BANK1   BANK2   BANK3   BANK4   BANK5   BANK6   BANK7   BANK8   BANK9  BANK10  BANK1
      +1  BANK12  BANK13  BANK14  BANK15
  3727 ;;      Params:        12       0       0       0       0       0       0       0       0       0       0       0       
      +0       0       0       0       0
  3728 ;;      Locals:         0      12       0       0       0       0       0       0       0       0       0       0       
      +0       0       0       0       0
  3729 ;;      Temps:          0       0       0       0       0       0       0       0       0       0       0       0       
      +0       0       0       0       0
  3730 ;;      Totals:        12      12       0       0       0       0       0       0       0       0       0       0       
      +0       0       0       0       0
  3731 ;;Total ram usage:       24 bytes
  3732 ;; Hardware stack levels used:    1
  3733 ;; Hardware stack levels required when called:    5
  3734 ;; This function calls:
  3735 ;;		___fladd
  3736 ;;		___flmul
  3737 ;;		___flsub
  3738 ;; This function is called by:
  3739 ;;		_low_pass_filter
  3740 ;; This function uses a non-reentrant model
  3741 ;;
  3742                           
  3743                           	psect	text2
  3744  0037B6                     __ptext2:
  3745                           	opt callstack 0
  3746  0037B6                     _lowPassExponential:
  3747                           	opt callstack 24
  3748  0037B6                     
  3749                           ;main.c: 1074: double lowPassExponential(double input, double average, double factor);ma
      +                          in.c: 1075: {;main.c: 1084:     static double oldvalue = 0;;main.c: 1085:     double Res
      +                          ult;;main.c: 1086:     float weighting = 0.01;
  3750  0037B6  0E0A               	movlw	10
  3751  0037B8  0100               	movlb	0	; () banked
  3752  0037BA  6FDC               	movwf	lowPassExponential@weighting& (0+255),b
  3753  0037BC  0ED7               	movlw	215
  3754  0037BE  6FDD               	movwf	(lowPassExponential@weighting+1)& (0+255),b
  3755  0037C0  0E23               	movlw	35
  3756  0037C2  6FDE               	movwf	(lowPassExponential@weighting+2)& (0+255),b
  3757  0037C4  0E3C               	movlw	60
  3758  0037C6  6FDF               	movwf	(lowPassExponential@weighting+3)& (0+255),b
  3759  0037C8                     
  3760                           ; BSR set to: 0
  3761                           ;main.c: 1089:     Result = weighting * input + (1 - weighting) * oldvalue;
  3762  0037C8  C108  F01C         	movff	lowPassExponential@oldvalue,___flmul@a
  3763  0037CC  C109  F01D         	movff	lowPassExponential@oldvalue+1,___flmul@a+1
  3764  0037D0  C10A  F01E         	movff	lowPassExponential@oldvalue+2,___flmul@a+2
  3765  0037D4  C10B  F01F         	movff	lowPassExponential@oldvalue+3,___flmul@a+3
  3766  0037D8  C0DC  F045         	movff	lowPassExponential@weighting,___flsub@a
  3767  0037DC  C0DD  F046         	movff	lowPassExponential@weighting+1,___flsub@a+1
  3768  0037E0  C0DE  F047         	movff	lowPassExponential@weighting+2,___flsub@a+2
  3769  0037E4  C0DF  F048         	movff	lowPassExponential@weighting+3,___flsub@a+3
  3770  0037E8  0E00               	movlw	0
  3771  0037EA  6E41               	movwf	___flsub@b^0,c
  3772  0037EC  0E00               	movlw	0
  3773  0037EE  6E42               	movwf	(___flsub@b+1)^0,c
  3774  0037F0  0E80               	movlw	128
  3775  0037F2  6E43               	movwf	(___flsub@b+2)^0,c
  3776  0037F4  0E3F               	movlw	63
  3777  0037F6  6E44               	movwf	(___flsub@b+3)^0,c
  3778  0037F8  EC79  F01E         	call	___flsub	;wreg free
  3779  0037FC  C041  F018         	movff	?___flsub,___flmul@b
  3780  003800  C042  F019         	movff	?___flsub+1,___flmul@b+1
  3781  003804  C043  F01A         	movff	?___flsub+2,___flmul@b+2
  3782  003808  C044  F01B         	movff	?___flsub+3,___flmul@b+3
  3783  00380C  EC1F  F012         	call	___flmul	;wreg free
  3784  003810  C018  F0D4         	movff	?___flmul,_lowPassExponential$2499
  3785  003814  C019  F0D5         	movff	?___flmul+1,_lowPassExponential$2499+1
  3786  003818  C01A  F0D6         	movff	?___flmul+2,_lowPassExponential$2499+2
  3787  00381C  C01B  F0D7         	movff	?___flmul+3,_lowPassExponential$2499+3
  3788  003820                     
  3789                           ;main.c: 1089:     Result = weighting * input + (1 - weighting) * oldvalue;
  3790  003820  C049  F01C         	movff	lowPassExponential@input,___flmul@a
  3791  003824  C04A  F01D         	movff	lowPassExponential@input+1,___flmul@a+1
  3792  003828  C04B  F01E         	movff	lowPassExponential@input+2,___flmul@a+2
  3793  00382C  C04C  F01F         	movff	lowPassExponential@input+3,___flmul@a+3
  3794  003830  C0DC  F018         	movff	lowPassExponential@weighting,___flmul@b
  3795  003834  C0DD  F019         	movff	lowPassExponential@weighting+1,___flmul@b+1
  3796  003838  C0DE  F01A         	movff	lowPassExponential@weighting+2,___flmul@b+2
  3797  00383C  C0DF  F01B         	movff	lowPassExponential@weighting+3,___flmul@b+3
  3798  003840  EC1F  F012         	call	___flmul	;wreg free
  3799  003844  C018  F031         	movff	?___flmul,___fladd@b
  3800  003848  C019  F032         	movff	?___flmul+1,___fladd@b+1
  3801  00384C  C01A  F033         	movff	?___flmul+2,___fladd@b+2
  3802  003850  C01B  F034         	movff	?___flmul+3,___fladd@b+3
  3803  003854  C0D4  F035         	movff	_lowPassExponential$2499,___fladd@a
  3804  003858  C0D5  F036         	movff	_lowPassExponential$2499+1,___fladd@a+1
  3805  00385C  C0D6  F037         	movff	_lowPassExponential$2499+2,___fladd@a+2
  3806  003860  C0D7  F038         	movff	_lowPassExponential$2499+3,___fladd@a+3
  3807  003864  ECBF  F00F         	call	___fladd	;wreg free
  3808  003868  C031  F0D8         	movff	?___fladd,lowPassExponential@Result
  3809  00386C  C032  F0D9         	movff	?___fladd+1,lowPassExponential@Result+1
  3810  003870  C033  F0DA         	movff	?___fladd+2,lowPassExponential@Result+2
  3811  003874  C034  F0DB         	movff	?___fladd+3,lowPassExponential@Result+3
  3812  003878                     
  3813                           ;main.c: 1090:     oldvalue = Result;
  3814  003878  C0D8  F108         	movff	lowPassExponential@Result,lowPassExponential@oldvalue
  3815  00387C  C0D9  F109         	movff	lowPassExponential@Result+1,lowPassExponential@oldvalue+1
  3816  003880  C0DA  F10A         	movff	lowPassExponential@Result+2,lowPassExponential@oldvalue+2
  3817  003884  C0DB  F10B         	movff	lowPassExponential@Result+3,lowPassExponential@oldvalue+3
  3818  003888                     
  3819                           ;main.c: 1091:     return Result;
  3820  003888  C0D8  F049         	movff	lowPassExponential@Result,?_lowPassExponential
  3821  00388C  C0D9  F04A         	movff	lowPassExponential@Result+1,?_lowPassExponential+1
  3822  003890  C0DA  F04B         	movff	lowPassExponential@Result+2,?_lowPassExponential+2
  3823  003894  C0DB  F04C         	movff	lowPassExponential@Result+3,?_lowPassExponential+3
  3824  003898  0012               	return		;funcret
  3825  00389A                     __end_of_lowPassExponential:
  3826                           	opt callstack 0
  3827                           
  3828 ;; *************** function ___flsub *****************
  3829 ;; Defined at:
  3830 ;;		line 245 in file "C:\Program Files (x86)\Microchip\xc8\v2.10\pic\sources\c99\common\sprcadd.c"
  3831 ;; Parameters:    Size  Location     Type
  3832 ;;  b               4   64[COMRAM] float 
  3833 ;;  a               4   68[COMRAM] float 
  3834 ;; Auto vars:     Size  Location     Type
  3835 ;;		None
  3836 ;; Return value:  Size  Location     Type
  3837 ;;                  4   64[COMRAM] float 
  3838 ;; Registers used:
  3839 ;;		wreg, status,2, status,0, cstack
  3840 ;; Tracked objects:
  3841 ;;		On entry : 0/0
  3842 ;;		On exit  : 0/0
  3843 ;;		Unchanged: 0/0
  3844 ;; Data sizes:     COMRAM   BANK0   BANK1   BANK2   BANK3   BANK4   BANK5   BANK6   BANK7   BANK8   BANK9  BANK10  BANK1
      +1  BANK12  BANK13  BANK14  BANK15
  3845 ;;      Params:         8       0       0       0       0       0       0       0       0       0       0       0       
      +0       0       0       0       0
  3846 ;;      Locals:         0       0       0       0       0       0       0       0       0       0       0       0       
      +0       0       0       0       0
  3847 ;;      Temps:          0       0       0       0       0       0       0       0       0       0       0       0       
      +0       0       0       0       0
  3848 ;;      Totals:         8       0       0       0       0       0       0       0       0       0       0       0       
      +0       0       0       0       0
  3849 ;;Total ram usage:        8 bytes
  3850 ;; Hardware stack levels used:    1
  3851 ;; Hardware stack levels required when called:    4
  3852 ;; This function calls:
  3853 ;;		___fladd
  3854 ;; This function is called by:
  3855 ;;		_main
  3856 ;;		_low_pass_filter
  3857 ;;		_lowPassExponential
  3858 ;; This function uses a non-reentrant model
  3859 ;;
  3860                           
  3861                           	psect	text3
  3862  003CF2                     __ptext3:
  3863                           	opt callstack 0
  3864  003CF2                     ___flsub:
  3865                           	opt callstack 24
  3866  003CF2  0E00               	movlw	0
  3867  003CF4  1A45               	xorwf	___flsub@a^0,f,c
  3868  003CF6  0E00               	movlw	0
  3869  003CF8  1A46               	xorwf	(___flsub@a+1)^0,f,c
  3870  003CFA  0E00               	movlw	0
  3871  003CFC  1A47               	xorwf	(___flsub@a+2)^0,f,c
  3872  003CFE  0E80               	movlw	128
  3873  003D00  1A48               	xorwf	(___flsub@a+3)^0,f,c
  3874  003D02  C041  F031         	movff	___flsub@b,___fladd@b
  3875  003D06  C042  F032         	movff	___flsub@b+1,___fladd@b+1
  3876  003D0A  C043  F033         	movff	___flsub@b+2,___fladd@b+2
  3877  003D0E  C044  F034         	movff	___flsub@b+3,___fladd@b+3
  3878  003D12  C045  F035         	movff	___flsub@a,___fladd@a
  3879  003D16  C046  F036         	movff	___flsub@a+1,___fladd@a+1
  3880  003D1A  C047  F037         	movff	___flsub@a+2,___fladd@a+2
  3881  003D1E  C048  F038         	movff	___flsub@a+3,___fladd@a+3
  3882  003D22  ECBF  F00F         	call	___fladd	;wreg free
  3883  003D26  C031  F041         	movff	?___fladd,?___flsub
  3884  003D2A  C032  F042         	movff	?___fladd+1,?___flsub+1
  3885  003D2E  C033  F043         	movff	?___fladd+2,?___flsub+2
  3886  003D32  C034  F044         	movff	?___fladd+3,?___flsub+3
  3887  003D36  0012               	return		;funcret
  3888  003D38                     __end_of___flsub:
  3889                           	opt callstack 0
  3890                           
  3891 ;; *************** function _ctrl_task *****************
  3892 ;; Defined at:
  3893 ;;		line 657 in file "main.c"
  3894 ;; Parameters:    Size  Location     Type
  3895 ;;		None
  3896 ;; Auto vars:     Size  Location     Type
  3897 ;;		None
  3898 ;; Return value:  Size  Location     Type
  3899 ;;                  1    wreg      void 
  3900 ;; Registers used:
  3901 ;;		wreg, status,2, status,0, prodl, prodh, cstack
  3902 ;; Tracked objects:
  3903 ;;		On entry : 0/0
  3904 ;;		On exit  : 0/0
  3905 ;;		Unchanged: 0/0
  3906 ;; Data sizes:     COMRAM   BANK0   BANK1   BANK2   BANK3   BANK4   BANK5   BANK6   BANK7   BANK8   BANK9  BANK10  BANK1
      +1  BANK12  BANK13  BANK14  BANK15
  3907 ;;      Params:         0       0       0       0       0       0       0       0       0       0       0       0       
      +0       0       0       0       0
  3908 ;;      Locals:         0       0       0       0       0       0       0       0       0       0       0       0       
      +0       0       0       0       0
  3909 ;;      Temps:          2       0       0       0       0       0       0       0       0       0       0       0       
      +0       0       0       0       0
  3910 ;;      Totals:         2       0       0       0       0       0       0       0       0       0       0       0       
      +0       0       0       0       0
  3911 ;;Total ram usage:        2 bytes
  3912 ;; Hardware stack levels used:    1
  3913 ;; Hardware stack levels required when called:    6
  3914 ;; This function calls:
  3915 ;;		_Sring_7segdisplay
  3916 ;;		___awdiv
  3917 ;;		___fladd
  3918 ;;		___fldiv
  3919 ;;		___flmul
  3920 ;;		___fltol
  3921 ;;		___lwdiv
  3922 ;;		___lwmod
  3923 ;;		___xxtofl
  3924 ;;		_write_2bytedata
  3925 ;; This function is called by:
  3926 ;;		_main
  3927 ;; This function uses a non-reentrant model
  3928 ;;
  3929                           
  3930                           	psect	text4
  3931  0013A0                     __ptext4:
  3932                           	opt callstack 0
  3933  0013A0                     _ctrl_task:
  3934                           	opt callstack 24
  3935  0013A0                     
  3936                           ;main.c: 659:     static uint16_t valueshiftcnt=0;;main.c: 661:    switch(menu)
  3937  0013A0  EF1B  F00E         	goto	l7592
  3938  0013A4                     l7474:
  3939                           
  3940                           ; BSR set to: 0
  3941                           ;main.c: 664:        {;main.c: 682:            {;main.c: 683:                if(u8_loadO
      +                          N == 0)
  3942  0013A4  51C7               	movf	_u8_loadON& (0+255),w,b
  3943  0013A6  A4D8               	btfss	status,2,c
  3944  0013A8  EFD8  F009         	goto	u6721
  3945  0013AC  EFDA  F009         	goto	u6720
  3946  0013B0                     u6721:
  3947  0013B0  EF24  F00A         	goto	l707
  3948  0013B4                     u6720:
  3949  0013B4                     
  3950                           ; BSR set to: 0
  3951                           ;main.c: 684:                {;main.c: 685:                     u16_Tempvalue = flt_Temp
      +                          ;
  3952  0013B4  C084  F005         	movff	_flt_Temp,___fltol@f1
  3953  0013B8  C085  F006         	movff	_flt_Temp+1,___fltol@f1+1
  3954  0013BC  C086  F007         	movff	_flt_Temp+2,___fltol@f1+2
  3955  0013C0  C087  F008         	movff	_flt_Temp+3,___fltol@f1+3
  3956  0013C4  EC58  F01A         	call	___fltol	;wreg free
  3957  0013C8  C005  F096         	movff	?___fltol,_u16_Tempvalue
  3958  0013CC  C006  F097         	movff	?___fltol+1,_u16_Tempvalue+1
  3959                           
  3960                           ;main.c: 686:                     u8_digit[0] = u16_Tempvalue/100;
  3961  0013D0  C096  F005         	movff	_u16_Tempvalue,___lwdiv@dividend
  3962  0013D4  C097  F006         	movff	_u16_Tempvalue+1,___lwdiv@dividend+1
  3963  0013D8  0E00               	movlw	0
  3964  0013DA  6E08               	movwf	(___lwdiv@divisor+1)^0,c
  3965  0013DC  0E64               	movlw	100
  3966  0013DE  6E07               	movwf	___lwdiv@divisor^0,c
  3967  0013E0  ECA9  F01D         	call	___lwdiv	;wreg free
  3968  0013E4  5005               	movf	?___lwdiv^0,w,c
  3969  0013E6  6E55               	movwf	_u8_digit^0,c
  3970                           
  3971                           ;main.c: 687:                     u8_digit[1] = u16_Tempvalue%100;
  3972  0013E8  C096  F005         	movff	_u16_Tempvalue,___lwmod@dividend
  3973  0013EC  C097  F006         	movff	_u16_Tempvalue+1,___lwmod@dividend+1
  3974  0013F0  0E00               	movlw	0
  3975  0013F2  6E08               	movwf	(___lwmod@divisor+1)^0,c
  3976  0013F4  0E64               	movlw	100
  3977  0013F6  6E07               	movwf	___lwmod@divisor^0,c
  3978  0013F8  EC1C  F01E         	call	___lwmod	;wreg free
  3979  0013FC  5005               	movf	?___lwmod^0,w,c
  3980  0013FE  6E56               	movwf	(_u8_digit+1)^0,c
  3981                           
  3982                           ;main.c: 688:                     u8_digit[1] = u8_digit[1]/10;
  3983  001400  C056  F005         	movff	_u8_digit+1,___awdiv@dividend
  3984  001404  6A06               	clrf	(___awdiv@dividend+1)^0,c
  3985  001406  0E00               	movlw	0
  3986  001408  6E08               	movwf	(___awdiv@divisor+1)^0,c
  3987  00140A  0E0A               	movlw	10
  3988  00140C  6E07               	movwf	___awdiv@divisor^0,c
  3989  00140E  EC4D  F01C         	call	___awdiv	;wreg free
  3990  001412  5005               	movf	?___awdiv^0,w,c
  3991  001414  6E56               	movwf	(_u8_digit+1)^0,c
  3992                           
  3993                           ;main.c: 689:                     u8_digit[2] = u16_Tempvalue%10;
  3994  001416  C096  F005         	movff	_u16_Tempvalue,___lwmod@dividend
  3995  00141A  C097  F006         	movff	_u16_Tempvalue+1,___lwmod@dividend+1
  3996  00141E  0E00               	movlw	0
  3997  001420  6E08               	movwf	(___lwmod@divisor+1)^0,c
  3998  001422  0E0A               	movlw	10
  3999  001424  6E07               	movwf	___lwmod@divisor^0,c
  4000  001426  EC1C  F01E         	call	___lwmod	;wreg free
  4001  00142A  5005               	movf	?___lwmod^0,w,c
  4002  00142C  6E57               	movwf	(_u8_digit+2)^0,c
  4003                           
  4004                           ;main.c: 692:                     Sring_7segdisplay(LINE2,u8_digit[0],u8_digit[1],u8_dig
      +                          it[2],' ');
  4005  00142E  C055  F00E         	movff	_u8_digit,Sring_7segdisplay@char3
  4006  001432  C056  F00F         	movff	_u8_digit+1,Sring_7segdisplay@char2
  4007  001436  C057  F010         	movff	_u8_digit+2,Sring_7segdisplay@char1
  4008  00143A  0E20               	movlw	32
  4009  00143C  6E11               	movwf	Sring_7segdisplay@char0^0,c
  4010  00143E  0E02               	movlw	2
  4011  001440  ECB5  F018         	call	_Sring_7segdisplay
  4012                           
  4013                           ;main.c: 693:                }
  4014  001444  EF59  F00E         	goto	l7594
  4015  001448                     l707:
  4016                           
  4017                           ; BSR set to: 0
  4018                           ;main.c: 695:                {;main.c: 696:                     u16_Tempvalue = u16_time
      +                          sec;
  4019  001448  C0A8  F096         	movff	_u16_timesec,_u16_Tempvalue	;volatile
  4020  00144C  C0A9  F097         	movff	_u16_timesec+1,_u16_Tempvalue+1	;volatile
  4021  001450                     
  4022                           ; BSR set to: 0
  4023                           ;main.c: 697:                     u8_digit[0] = u16_Tempvalue/100;
  4024  001450  C096  F005         	movff	_u16_Tempvalue,___lwdiv@dividend
  4025  001454  C097  F006         	movff	_u16_Tempvalue+1,___lwdiv@dividend+1
  4026  001458  0E00               	movlw	0
  4027  00145A  6E08               	movwf	(___lwdiv@divisor+1)^0,c
  4028  00145C  0E64               	movlw	100
  4029  00145E  6E07               	movwf	___lwdiv@divisor^0,c
  4030  001460  ECA9  F01D         	call	___lwdiv	;wreg free
  4031  001464  5005               	movf	?___lwdiv^0,w,c
  4032  001466  6E55               	movwf	_u8_digit^0,c
  4033                           
  4034                           ;main.c: 698:                     u8_digit[1] = u16_Tempvalue%100;
  4035  001468  C096  F005         	movff	_u16_Tempvalue,___lwmod@dividend
  4036  00146C  C097  F006         	movff	_u16_Tempvalue+1,___lwmod@dividend+1
  4037  001470  0E00               	movlw	0
  4038  001472  6E08               	movwf	(___lwmod@divisor+1)^0,c
  4039  001474  0E64               	movlw	100
  4040  001476  6E07               	movwf	___lwmod@divisor^0,c
  4041  001478  EC1C  F01E         	call	___lwmod	;wreg free
  4042  00147C  5005               	movf	?___lwmod^0,w,c
  4043  00147E  6E56               	movwf	(_u8_digit+1)^0,c
  4044                           
  4045                           ;main.c: 699:                     u8_digit[1] = u8_digit[1]/10;
  4046  001480  C056  F005         	movff	_u8_digit+1,___awdiv@dividend
  4047  001484  6A06               	clrf	(___awdiv@dividend+1)^0,c
  4048  001486  0E00               	movlw	0
  4049  001488  6E08               	movwf	(___awdiv@divisor+1)^0,c
  4050  00148A  0E0A               	movlw	10
  4051  00148C  6E07               	movwf	___awdiv@divisor^0,c
  4052  00148E  EC4D  F01C         	call	___awdiv	;wreg free
  4053  001492  5005               	movf	?___awdiv^0,w,c
  4054  001494  6E56               	movwf	(_u8_digit+1)^0,c
  4055                           
  4056                           ;main.c: 700:                     u8_digit[2] = u16_Tempvalue%10;
  4057  001496  C096  F005         	movff	_u16_Tempvalue,___lwmod@dividend
  4058  00149A  C097  F006         	movff	_u16_Tempvalue+1,___lwmod@dividend+1
  4059  00149E  0E00               	movlw	0
  4060  0014A0  6E08               	movwf	(___lwmod@divisor+1)^0,c
  4061  0014A2  0E0A               	movlw	10
  4062  0014A4  6E07               	movwf	___lwmod@divisor^0,c
  4063  0014A6  EC1C  F01E         	call	___lwmod	;wreg free
  4064  0014AA  5005               	movf	?___lwmod^0,w,c
  4065  0014AC  6E57               	movwf	(_u8_digit+2)^0,c
  4066                           
  4067                           ;main.c: 702:                     Sring_7segdisplay(LINE2,u8_digit[0],u8_digit[1],u8_dig
      +                          it[2],'-');
  4068  0014AE  C055  F00E         	movff	_u8_digit,Sring_7segdisplay@char3
  4069  0014B2  C056  F00F         	movff	_u8_digit+1,Sring_7segdisplay@char2
  4070  0014B6  C057  F010         	movff	_u8_digit+2,Sring_7segdisplay@char1
  4071  0014BA  0E2D               	movlw	45
  4072  0014BC  6E11               	movwf	Sring_7segdisplay@char0^0,c
  4073  0014BE  0E02               	movlw	2
  4074  0014C0  ECB5  F018         	call	_Sring_7segdisplay
  4075  0014C4  EF59  F00E         	goto	l7594
  4076  0014C8                     l7480:
  4077                           
  4078                           ; BSR set to: 0
  4079                           ;main.c: 709:        {;main.c: 710:             if(u16_displyfirstcnt<=300)
  4080  0014C8  0E2D               	movlw	45
  4081  0014CA  5C59               	subwf	_u16_displyfirstcnt^0,w,c
  4082  0014CC  0E01               	movlw	1
  4083  0014CE  585A               	subwfb	(_u16_displyfirstcnt+1)^0,w,c
  4084  0014D0  B0D8               	btfsc	status,0,c
  4085  0014D2  EF6D  F00A         	goto	u6731
  4086  0014D6  EF6F  F00A         	goto	u6730
  4087  0014DA                     u6731:
  4088  0014DA  EF83  F00A         	goto	l7488
  4089  0014DE                     u6730:
  4090  0014DE                     
  4091                           ; BSR set to: 0
  4092                           ;main.c: 711:             {;main.c: 712:                 u16_displyfirstcnt++;
  4093  0014DE  4A59               	infsnz	_u16_displyfirstcnt^0,f,c
  4094  0014E0  2A5A               	incf	(_u16_displyfirstcnt+1)^0,f,c
  4095  0014E2                     
  4096                           ; BSR set to: 0
  4097                           ;main.c: 713:                 Sring_7segdisplay(LINE2,0,'F','F',' ');
  4098  0014E2  0E00               	movlw	0
  4099  0014E4  6E0E               	movwf	Sring_7segdisplay@char3^0,c
  4100  0014E6  0E46               	movlw	70
  4101  0014E8  6E0F               	movwf	Sring_7segdisplay@char2^0,c
  4102  0014EA  0E46               	movlw	70
  4103  0014EC  6E10               	movwf	Sring_7segdisplay@char1^0,c
  4104  0014EE  0E20               	movlw	32
  4105  0014F0  6E11               	movwf	Sring_7segdisplay@char0^0,c
  4106  0014F2  0E02               	movlw	2
  4107  0014F4  ECB5  F018         	call	_Sring_7segdisplay
  4108  0014F8                     l7486:
  4109                           
  4110                           ;main.c: 714:                 uint_updatEN = 5000;
  4111  0014F8  0E13               	movlw	19
  4112  0014FA  0100               	movlb	0	; () banked
  4113  0014FC  6FAF               	movwf	(_uint_updatEN+1)& (0+255),b
  4114  0014FE  0E88               	movlw	136
  4115  001500  6FAE               	movwf	_uint_updatEN& (0+255),b
  4116                           
  4117                           ;main.c: 715:             }
  4118  001502  EF59  F00E         	goto	l7594
  4119  001506                     l7488:
  4120                           
  4121                           ; BSR set to: 0
  4122                           ;main.c: 717:             {;main.c: 718:                 u8_digit[0] = u16_off/100;
  4123  001506  C0A6  F005         	movff	_u16_off,___lwdiv@dividend
  4124  00150A  C0A7  F006         	movff	_u16_off+1,___lwdiv@dividend+1
  4125  00150E  0E00               	movlw	0
  4126  001510  6E08               	movwf	(___lwdiv@divisor+1)^0,c
  4127  001512  0E64               	movlw	100
  4128  001514  6E07               	movwf	___lwdiv@divisor^0,c
  4129  001516  ECA9  F01D         	call	___lwdiv	;wreg free
  4130  00151A  5005               	movf	?___lwdiv^0,w,c
  4131  00151C  6E55               	movwf	_u8_digit^0,c
  4132                           
  4133                           ;main.c: 719:                 u8_digit[1] = u16_off%100;
  4134  00151E  C0A6  F005         	movff	_u16_off,___lwmod@dividend
  4135  001522  C0A7  F006         	movff	_u16_off+1,___lwmod@dividend+1
  4136  001526  0E00               	movlw	0
  4137  001528  6E08               	movwf	(___lwmod@divisor+1)^0,c
  4138  00152A  0E64               	movlw	100
  4139  00152C  6E07               	movwf	___lwmod@divisor^0,c
  4140  00152E  EC1C  F01E         	call	___lwmod	;wreg free
  4141  001532  5005               	movf	?___lwmod^0,w,c
  4142  001534  6E56               	movwf	(_u8_digit+1)^0,c
  4143                           
  4144                           ;main.c: 720:                 u8_digit[1] = u8_digit[1]/10;
  4145  001536  C056  F005         	movff	_u8_digit+1,___awdiv@dividend
  4146  00153A  6A06               	clrf	(___awdiv@dividend+1)^0,c
  4147  00153C  0E00               	movlw	0
  4148  00153E  6E08               	movwf	(___awdiv@divisor+1)^0,c
  4149  001540  0E0A               	movlw	10
  4150  001542  6E07               	movwf	___awdiv@divisor^0,c
  4151  001544  EC4D  F01C         	call	___awdiv	;wreg free
  4152  001548  5005               	movf	?___awdiv^0,w,c
  4153  00154A  6E56               	movwf	(_u8_digit+1)^0,c
  4154                           
  4155                           ;main.c: 721:                 u8_digit[2] = u16_off%10;
  4156  00154C  C0A6  F005         	movff	_u16_off,___lwmod@dividend
  4157  001550  C0A7  F006         	movff	_u16_off+1,___lwmod@dividend+1
  4158  001554  0E00               	movlw	0
  4159  001556  6E08               	movwf	(___lwmod@divisor+1)^0,c
  4160  001558  0E0A               	movlw	10
  4161  00155A  6E07               	movwf	___lwmod@divisor^0,c
  4162  00155C  EC1C  F01E         	call	___lwmod	;wreg free
  4163  001560  5005               	movf	?___lwmod^0,w,c
  4164  001562  6E57               	movwf	(_u8_digit+2)^0,c
  4165                           
  4166                           ;main.c: 723:                 Sring_7segdisplay(LINE2,u8_digit[0],u8_digit[1],u8_digit[2
      +                          ],' ');
  4167  001564  C055  F00E         	movff	_u8_digit,Sring_7segdisplay@char3
  4168  001568  C056  F00F         	movff	_u8_digit+1,Sring_7segdisplay@char2
  4169  00156C  C057  F010         	movff	_u8_digit+2,Sring_7segdisplay@char1
  4170  001570  0E20               	movlw	32
  4171  001572  6E11               	movwf	Sring_7segdisplay@char0^0,c
  4172  001574  0E02               	movlw	2
  4173  001576  ECB5  F018         	call	_Sring_7segdisplay
  4174  00157A  EF59  F00E         	goto	l7594
  4175  00157E                     l7490:
  4176                           
  4177                           ; BSR set to: 0
  4178                           ;main.c: 728:        {;main.c: 729:             if(u16_displyfirstcnt<=300)
  4179  00157E  0E2D               	movlw	45
  4180  001580  5C59               	subwf	_u16_displyfirstcnt^0,w,c
  4181  001582  0E01               	movlw	1
  4182  001584  585A               	subwfb	(_u16_displyfirstcnt+1)^0,w,c
  4183  001586  B0D8               	btfsc	status,0,c
  4184  001588  EFC8  F00A         	goto	u6741
  4185  00158C  EFCA  F00A         	goto	u6740
  4186  001590                     u6741:
  4187  001590  EFD9  F00A         	goto	l7498
  4188  001594                     u6740:
  4189  001594                     
  4190                           ; BSR set to: 0
  4191                           ;main.c: 730:             {;main.c: 731:                 u16_displyfirstcnt++;
  4192  001594  4A59               	infsnz	_u16_displyfirstcnt^0,f,c
  4193  001596  2A5A               	incf	(_u16_displyfirstcnt+1)^0,f,c
  4194  001598                     
  4195                           ; BSR set to: 0
  4196                           ;main.c: 732:                 Sring_7segdisplay(LINE2,'P','b',' ',' ');
  4197  001598  0E50               	movlw	80
  4198  00159A  6E0E               	movwf	Sring_7segdisplay@char3^0,c
  4199  00159C  0E62               	movlw	98
  4200  00159E  6E0F               	movwf	Sring_7segdisplay@char2^0,c
  4201  0015A0  0E20               	movlw	32
  4202  0015A2  6E10               	movwf	Sring_7segdisplay@char1^0,c
  4203  0015A4  0E20               	movlw	32
  4204  0015A6  6E11               	movwf	Sring_7segdisplay@char0^0,c
  4205  0015A8  0E02               	movlw	2
  4206  0015AA  ECB5  F018         	call	_Sring_7segdisplay
  4207  0015AE  EF7C  F00A         	goto	l7486
  4208  0015B2                     l7498:
  4209                           
  4210                           ; BSR set to: 0
  4211                           ;main.c: 736:             {;main.c: 737:                 u8_digit[0] = u16_pb/100;
  4212  0015B2  C0A4  F005         	movff	_u16_pb,___lwdiv@dividend
  4213  0015B6  C0A5  F006         	movff	_u16_pb+1,___lwdiv@dividend+1
  4214  0015BA  0E00               	movlw	0
  4215  0015BC  6E08               	movwf	(___lwdiv@divisor+1)^0,c
  4216  0015BE  0E64               	movlw	100
  4217  0015C0  6E07               	movwf	___lwdiv@divisor^0,c
  4218  0015C2  ECA9  F01D         	call	___lwdiv	;wreg free
  4219  0015C6  5005               	movf	?___lwdiv^0,w,c
  4220  0015C8  6E55               	movwf	_u8_digit^0,c
  4221                           
  4222                           ;main.c: 738:                 u8_digit[1] = u16_pb%100;
  4223  0015CA  C0A4  F005         	movff	_u16_pb,___lwmod@dividend
  4224  0015CE  C0A5  F006         	movff	_u16_pb+1,___lwmod@dividend+1
  4225  0015D2  0E00               	movlw	0
  4226  0015D4  6E08               	movwf	(___lwmod@divisor+1)^0,c
  4227  0015D6  0E64               	movlw	100
  4228  0015D8  6E07               	movwf	___lwmod@divisor^0,c
  4229  0015DA  EC1C  F01E         	call	___lwmod	;wreg free
  4230  0015DE  5005               	movf	?___lwmod^0,w,c
  4231  0015E0  6E56               	movwf	(_u8_digit+1)^0,c
  4232                           
  4233                           ;main.c: 739:                 u8_digit[1] = u8_digit[1]/10;
  4234  0015E2  C056  F005         	movff	_u8_digit+1,___awdiv@dividend
  4235  0015E6  6A06               	clrf	(___awdiv@dividend+1)^0,c
  4236  0015E8  0E00               	movlw	0
  4237  0015EA  6E08               	movwf	(___awdiv@divisor+1)^0,c
  4238  0015EC  0E0A               	movlw	10
  4239  0015EE  6E07               	movwf	___awdiv@divisor^0,c
  4240  0015F0  EC4D  F01C         	call	___awdiv	;wreg free
  4241  0015F4  5005               	movf	?___awdiv^0,w,c
  4242  0015F6  6E56               	movwf	(_u8_digit+1)^0,c
  4243                           
  4244                           ;main.c: 740:                 u8_digit[2] = u16_pb%10;
  4245  0015F8  C0A4  F005         	movff	_u16_pb,___lwmod@dividend
  4246  0015FC  C0A5  F006         	movff	_u16_pb+1,___lwmod@dividend+1
  4247  001600  0E00               	movlw	0
  4248  001602  6E08               	movwf	(___lwmod@divisor+1)^0,c
  4249  001604  0E0A               	movlw	10
  4250  001606  6E07               	movwf	___lwmod@divisor^0,c
  4251  001608  EC1C  F01E         	call	___lwmod	;wreg free
  4252  00160C  5005               	movf	?___lwmod^0,w,c
  4253  00160E  6E57               	movwf	(_u8_digit+2)^0,c
  4254                           
  4255                           ;main.c: 742:                 Sring_7segdisplay(LINE2,u8_digit[0],u8_digit[1],u8_digit[2
      +                          ],' ');
  4256  001610  C055  F00E         	movff	_u8_digit,Sring_7segdisplay@char3
  4257  001614  C056  F00F         	movff	_u8_digit+1,Sring_7segdisplay@char2
  4258  001618  C057  F010         	movff	_u8_digit+2,Sring_7segdisplay@char1
  4259  00161C  0E20               	movlw	32
  4260  00161E  6E11               	movwf	Sring_7segdisplay@char0^0,c
  4261  001620  0E02               	movlw	2
  4262  001622  ECB5  F018         	call	_Sring_7segdisplay
  4263  001626  EF59  F00E         	goto	l7594
  4264  00162A                     l7500:
  4265                           
  4266                           ; BSR set to: 0
  4267                           ;main.c: 747:        {;main.c: 748:             if(u16_displyfirstcnt<=300)
  4268  00162A  0E2D               	movlw	45
  4269  00162C  5C59               	subwf	_u16_displyfirstcnt^0,w,c
  4270  00162E  0E01               	movlw	1
  4271  001630  585A               	subwfb	(_u16_displyfirstcnt+1)^0,w,c
  4272  001632  B0D8               	btfsc	status,0,c
  4273  001634  EF1E  F00B         	goto	u6751
  4274  001638  EF20  F00B         	goto	u6750
  4275  00163C                     u6751:
  4276  00163C  EF2F  F00B         	goto	l7508
  4277  001640                     u6750:
  4278  001640                     
  4279                           ; BSR set to: 0
  4280                           ;main.c: 749:             {;main.c: 750:                 u16_displyfirstcnt++;
  4281  001640  4A59               	infsnz	_u16_displyfirstcnt^0,f,c
  4282  001642  2A5A               	incf	(_u16_displyfirstcnt+1)^0,f,c
  4283  001644                     
  4284                           ; BSR set to: 0
  4285                           ;main.c: 751:                 Sring_7segdisplay(LINE2,'i','b',' ',' ');
  4286  001644  0E69               	movlw	105
  4287  001646  6E0E               	movwf	Sring_7segdisplay@char3^0,c
  4288  001648  0E62               	movlw	98
  4289  00164A  6E0F               	movwf	Sring_7segdisplay@char2^0,c
  4290  00164C  0E20               	movlw	32
  4291  00164E  6E10               	movwf	Sring_7segdisplay@char1^0,c
  4292  001650  0E20               	movlw	32
  4293  001652  6E11               	movwf	Sring_7segdisplay@char0^0,c
  4294  001654  0E02               	movlw	2
  4295  001656  ECB5  F018         	call	_Sring_7segdisplay
  4296  00165A  EF7C  F00A         	goto	l7486
  4297  00165E                     l7508:
  4298                           
  4299                           ; BSR set to: 0
  4300                           ;main.c: 755:             {;main.c: 756:                 u8_digit[0] = u16_ib/100;
  4301  00165E  C0A2  F005         	movff	_u16_ib,___lwdiv@dividend
  4302  001662  C0A3  F006         	movff	_u16_ib+1,___lwdiv@dividend+1
  4303  001666  0E00               	movlw	0
  4304  001668  6E08               	movwf	(___lwdiv@divisor+1)^0,c
  4305  00166A  0E64               	movlw	100
  4306  00166C  6E07               	movwf	___lwdiv@divisor^0,c
  4307  00166E  ECA9  F01D         	call	___lwdiv	;wreg free
  4308  001672  5005               	movf	?___lwdiv^0,w,c
  4309  001674  6E55               	movwf	_u8_digit^0,c
  4310                           
  4311                           ;main.c: 757:                 u8_digit[1] = u16_ib%100;
  4312  001676  C0A2  F005         	movff	_u16_ib,___lwmod@dividend
  4313  00167A  C0A3  F006         	movff	_u16_ib+1,___lwmod@dividend+1
  4314  00167E  0E00               	movlw	0
  4315  001680  6E08               	movwf	(___lwmod@divisor+1)^0,c
  4316  001682  0E64               	movlw	100
  4317  001684  6E07               	movwf	___lwmod@divisor^0,c
  4318  001686  EC1C  F01E         	call	___lwmod	;wreg free
  4319  00168A  5005               	movf	?___lwmod^0,w,c
  4320  00168C  6E56               	movwf	(_u8_digit+1)^0,c
  4321                           
  4322                           ;main.c: 758:                 u8_digit[1] = u8_digit[1]/10;
  4323  00168E  C056  F005         	movff	_u8_digit+1,___awdiv@dividend
  4324  001692  6A06               	clrf	(___awdiv@dividend+1)^0,c
  4325  001694  0E00               	movlw	0
  4326  001696  6E08               	movwf	(___awdiv@divisor+1)^0,c
  4327  001698  0E0A               	movlw	10
  4328  00169A  6E07               	movwf	___awdiv@divisor^0,c
  4329  00169C  EC4D  F01C         	call	___awdiv	;wreg free
  4330  0016A0  5005               	movf	?___awdiv^0,w,c
  4331  0016A2  6E56               	movwf	(_u8_digit+1)^0,c
  4332                           
  4333                           ;main.c: 759:                 u8_digit[2] = u16_ib%10;
  4334  0016A4  C0A2  F005         	movff	_u16_ib,___lwmod@dividend
  4335  0016A8  C0A3  F006         	movff	_u16_ib+1,___lwmod@dividend+1
  4336  0016AC  0E00               	movlw	0
  4337  0016AE  6E08               	movwf	(___lwmod@divisor+1)^0,c
  4338  0016B0  0E0A               	movlw	10
  4339  0016B2  6E07               	movwf	___lwmod@divisor^0,c
  4340  0016B4  EC1C  F01E         	call	___lwmod	;wreg free
  4341  0016B8  5005               	movf	?___lwmod^0,w,c
  4342  0016BA  6E57               	movwf	(_u8_digit+2)^0,c
  4343                           
  4344                           ;main.c: 761:                 Sring_7segdisplay(LINE2,u8_digit[0],u8_digit[1],u8_digit[2
      +                          ],' ');
  4345  0016BC  C055  F00E         	movff	_u8_digit,Sring_7segdisplay@char3
  4346  0016C0  C056  F00F         	movff	_u8_digit+1,Sring_7segdisplay@char2
  4347  0016C4  C057  F010         	movff	_u8_digit+2,Sring_7segdisplay@char1
  4348  0016C8  0E20               	movlw	32
  4349  0016CA  6E11               	movwf	Sring_7segdisplay@char0^0,c
  4350  0016CC  0E02               	movlw	2
  4351  0016CE  ECB5  F018         	call	_Sring_7segdisplay
  4352  0016D2  EF59  F00E         	goto	l7594
  4353  0016D6                     l7510:
  4354                           
  4355                           ; BSR set to: 0
  4356                           ;main.c: 766:        {;main.c: 767:             if(u16_displyfirstcnt<=300)
  4357  0016D6  0E2D               	movlw	45
  4358  0016D8  5C59               	subwf	_u16_displyfirstcnt^0,w,c
  4359  0016DA  0E01               	movlw	1
  4360  0016DC  585A               	subwfb	(_u16_displyfirstcnt+1)^0,w,c
  4361  0016DE  B0D8               	btfsc	status,0,c
  4362  0016E0  EF74  F00B         	goto	u6761
  4363  0016E4  EF76  F00B         	goto	u6760
  4364  0016E8                     u6761:
  4365  0016E8  EF85  F00B         	goto	l7518
  4366  0016EC                     u6760:
  4367  0016EC                     
  4368                           ; BSR set to: 0
  4369                           ;main.c: 768:             {;main.c: 769:                 u16_displyfirstcnt++;
  4370  0016EC  4A59               	infsnz	_u16_displyfirstcnt^0,f,c
  4371  0016EE  2A5A               	incf	(_u16_displyfirstcnt+1)^0,f,c
  4372  0016F0                     
  4373                           ; BSR set to: 0
  4374                           ;main.c: 770:                 Sring_7segdisplay(LINE2,'P','L','M',' ');
  4375  0016F0  0E50               	movlw	80
  4376  0016F2  6E0E               	movwf	Sring_7segdisplay@char3^0,c
  4377  0016F4  0E4C               	movlw	76
  4378  0016F6  6E0F               	movwf	Sring_7segdisplay@char2^0,c
  4379  0016F8  0E4D               	movlw	77
  4380  0016FA  6E10               	movwf	Sring_7segdisplay@char1^0,c
  4381  0016FC  0E20               	movlw	32
  4382  0016FE  6E11               	movwf	Sring_7segdisplay@char0^0,c
  4383  001700  0E02               	movlw	2
  4384  001702  ECB5  F018         	call	_Sring_7segdisplay
  4385  001706  EF7C  F00A         	goto	l7486
  4386  00170A                     l7518:
  4387                           
  4388                           ; BSR set to: 0
  4389                           ;main.c: 774:             {;main.c: 775:                 u8_digit[0] = u16_plm/100;
  4390  00170A  C0D2  F005         	movff	_u16_plm,___lwdiv@dividend
  4391  00170E  C0D3  F006         	movff	_u16_plm+1,___lwdiv@dividend+1
  4392  001712  0E00               	movlw	0
  4393  001714  6E08               	movwf	(___lwdiv@divisor+1)^0,c
  4394  001716  0E64               	movlw	100
  4395  001718  6E07               	movwf	___lwdiv@divisor^0,c
  4396  00171A  ECA9  F01D         	call	___lwdiv	;wreg free
  4397  00171E  5005               	movf	?___lwdiv^0,w,c
  4398  001720  6E55               	movwf	_u8_digit^0,c
  4399                           
  4400                           ;main.c: 776:                 u8_digit[1] = u16_plm%100;
  4401  001722  C0D2  F005         	movff	_u16_plm,___lwmod@dividend
  4402  001726  C0D3  F006         	movff	_u16_plm+1,___lwmod@dividend+1
  4403  00172A  0E00               	movlw	0
  4404  00172C  6E08               	movwf	(___lwmod@divisor+1)^0,c
  4405  00172E  0E64               	movlw	100
  4406  001730  6E07               	movwf	___lwmod@divisor^0,c
  4407  001732  EC1C  F01E         	call	___lwmod	;wreg free
  4408  001736  5005               	movf	?___lwmod^0,w,c
  4409  001738  6E56               	movwf	(_u8_digit+1)^0,c
  4410                           
  4411                           ;main.c: 777:                 u8_digit[1] = u8_digit[1]/10;
  4412  00173A  C056  F005         	movff	_u8_digit+1,___awdiv@dividend
  4413  00173E  6A06               	clrf	(___awdiv@dividend+1)^0,c
  4414  001740  0E00               	movlw	0
  4415  001742  6E08               	movwf	(___awdiv@divisor+1)^0,c
  4416  001744  0E0A               	movlw	10
  4417  001746  6E07               	movwf	___awdiv@divisor^0,c
  4418  001748  EC4D  F01C         	call	___awdiv	;wreg free
  4419  00174C  5005               	movf	?___awdiv^0,w,c
  4420  00174E  6E56               	movwf	(_u8_digit+1)^0,c
  4421                           
  4422                           ;main.c: 778:                 u8_digit[2] = u16_plm%10;
  4423  001750  C0D2  F005         	movff	_u16_plm,___lwmod@dividend
  4424  001754  C0D3  F006         	movff	_u16_plm+1,___lwmod@dividend+1
  4425  001758  0E00               	movlw	0
  4426  00175A  6E08               	movwf	(___lwmod@divisor+1)^0,c
  4427  00175C  0E0A               	movlw	10
  4428  00175E  6E07               	movwf	___lwmod@divisor^0,c
  4429  001760  EC1C  F01E         	call	___lwmod	;wreg free
  4430  001764  5005               	movf	?___lwmod^0,w,c
  4431  001766  6E57               	movwf	(_u8_digit+2)^0,c
  4432                           
  4433                           ;main.c: 780:                 Sring_7segdisplay(LINE2,u8_digit[0],u8_digit[1],u8_digit[2
      +                          ],' ');
  4434  001768  C055  F00E         	movff	_u8_digit,Sring_7segdisplay@char3
  4435  00176C  C056  F00F         	movff	_u8_digit+1,Sring_7segdisplay@char2
  4436  001770  C057  F010         	movff	_u8_digit+2,Sring_7segdisplay@char1
  4437  001774  0E20               	movlw	32
  4438  001776  6E11               	movwf	Sring_7segdisplay@char0^0,c
  4439  001778  0E02               	movlw	2
  4440  00177A  ECB5  F018         	call	_Sring_7segdisplay
  4441  00177E  EF59  F00E         	goto	l7594
  4442  001782                     l7520:
  4443                           
  4444                           ; BSR set to: 0
  4445                           ;main.c: 785:        {;main.c: 786:             if(u16_displyfirstcnt<=300)
  4446  001782  0E2D               	movlw	45
  4447  001784  5C59               	subwf	_u16_displyfirstcnt^0,w,c
  4448  001786  0E01               	movlw	1
  4449  001788  585A               	subwfb	(_u16_displyfirstcnt+1)^0,w,c
  4450  00178A  B0D8               	btfsc	status,0,c
  4451  00178C  EFCA  F00B         	goto	u6771
  4452  001790  EFCC  F00B         	goto	u6770
  4453  001794                     u6771:
  4454  001794  EFDB  F00B         	goto	l7528
  4455  001798                     u6770:
  4456  001798                     
  4457                           ; BSR set to: 0
  4458                           ;main.c: 787:             {;main.c: 788:                 u16_displyfirstcnt++;
  4459  001798  4A59               	infsnz	_u16_displyfirstcnt^0,f,c
  4460  00179A  2A5A               	incf	(_u16_displyfirstcnt+1)^0,f,c
  4461  00179C                     
  4462                           ; BSR set to: 0
  4463                           ;main.c: 789:                 Sring_7segdisplay(LINE2,'H','Y','S',' ');
  4464  00179C  0E48               	movlw	72
  4465  00179E  6E0E               	movwf	Sring_7segdisplay@char3^0,c
  4466  0017A0  0E59               	movlw	89
  4467  0017A2  6E0F               	movwf	Sring_7segdisplay@char2^0,c
  4468  0017A4  0E53               	movlw	83
  4469  0017A6  6E10               	movwf	Sring_7segdisplay@char1^0,c
  4470  0017A8  0E20               	movlw	32
  4471  0017AA  6E11               	movwf	Sring_7segdisplay@char0^0,c
  4472  0017AC  0E02               	movlw	2
  4473  0017AE  ECB5  F018         	call	_Sring_7segdisplay
  4474  0017B2  EF7C  F00A         	goto	l7486
  4475  0017B6                     l7528:
  4476                           
  4477                           ; BSR set to: 0
  4478                           ;main.c: 793:             {;main.c: 794:                 u8_digit[0] = u16_hys/100;
  4479  0017B6  C0A0  F005         	movff	_u16_hys,___lwdiv@dividend
  4480  0017BA  C0A1  F006         	movff	_u16_hys+1,___lwdiv@dividend+1
  4481  0017BE  0E00               	movlw	0
  4482  0017C0  6E08               	movwf	(___lwdiv@divisor+1)^0,c
  4483  0017C2  0E64               	movlw	100
  4484  0017C4  6E07               	movwf	___lwdiv@divisor^0,c
  4485  0017C6  ECA9  F01D         	call	___lwdiv	;wreg free
  4486  0017CA  5005               	movf	?___lwdiv^0,w,c
  4487  0017CC  6E55               	movwf	_u8_digit^0,c
  4488                           
  4489                           ;main.c: 795:                 u8_digit[1] = u16_hys%100;
  4490  0017CE  C0A0  F005         	movff	_u16_hys,___lwmod@dividend
  4491  0017D2  C0A1  F006         	movff	_u16_hys+1,___lwmod@dividend+1
  4492  0017D6  0E00               	movlw	0
  4493  0017D8  6E08               	movwf	(___lwmod@divisor+1)^0,c
  4494  0017DA  0E64               	movlw	100
  4495  0017DC  6E07               	movwf	___lwmod@divisor^0,c
  4496  0017DE  EC1C  F01E         	call	___lwmod	;wreg free
  4497  0017E2  5005               	movf	?___lwmod^0,w,c
  4498  0017E4  6E56               	movwf	(_u8_digit+1)^0,c
  4499                           
  4500                           ;main.c: 796:                 u8_digit[1] = u8_digit[1]/10;
  4501  0017E6  C056  F005         	movff	_u8_digit+1,___awdiv@dividend
  4502  0017EA  6A06               	clrf	(___awdiv@dividend+1)^0,c
  4503  0017EC  0E00               	movlw	0
  4504  0017EE  6E08               	movwf	(___awdiv@divisor+1)^0,c
  4505  0017F0  0E0A               	movlw	10
  4506  0017F2  6E07               	movwf	___awdiv@divisor^0,c
  4507  0017F4  EC4D  F01C         	call	___awdiv	;wreg free
  4508  0017F8  5005               	movf	?___awdiv^0,w,c
  4509  0017FA  6E56               	movwf	(_u8_digit+1)^0,c
  4510                           
  4511                           ;main.c: 797:                 u8_digit[2] = u16_hys%10;
  4512  0017FC  C0A0  F005         	movff	_u16_hys,___lwmod@dividend
  4513  001800  C0A1  F006         	movff	_u16_hys+1,___lwmod@dividend+1
  4514  001804  0E00               	movlw	0
  4515  001806  6E08               	movwf	(___lwmod@divisor+1)^0,c
  4516  001808  0E0A               	movlw	10
  4517  00180A  6E07               	movwf	___lwmod@divisor^0,c
  4518  00180C  EC1C  F01E         	call	___lwmod	;wreg free
  4519  001810  5005               	movf	?___lwmod^0,w,c
  4520  001812  6E57               	movwf	(_u8_digit+2)^0,c
  4521                           
  4522                           ;main.c: 799:                 Sring_7segdisplay(LINE2,u8_digit[0],u8_digit[1],u8_digit[2
      +                          ],' ');
  4523  001814  C055  F00E         	movff	_u8_digit,Sring_7segdisplay@char3
  4524  001818  C056  F00F         	movff	_u8_digit+1,Sring_7segdisplay@char2
  4525  00181C  C057  F010         	movff	_u8_digit+2,Sring_7segdisplay@char1
  4526  001820  0E20               	movlw	32
  4527  001822  6E11               	movwf	Sring_7segdisplay@char0^0,c
  4528  001824  0E02               	movlw	2
  4529  001826  ECB5  F018         	call	_Sring_7segdisplay
  4530  00182A  EF59  F00E         	goto	l7594
  4531  00182E                     l7530:
  4532                           
  4533                           ; BSR set to: 0
  4534                           ;main.c: 804:        {;main.c: 805:             if(u16_displyfirstcnt<=300)
  4535  00182E  0E2D               	movlw	45
  4536  001830  5C59               	subwf	_u16_displyfirstcnt^0,w,c
  4537  001832  0E01               	movlw	1
  4538  001834  585A               	subwfb	(_u16_displyfirstcnt+1)^0,w,c
  4539  001836  B0D8               	btfsc	status,0,c
  4540  001838  EF20  F00C         	goto	u6781
  4541  00183C  EF22  F00C         	goto	u6780
  4542  001840                     u6781:
  4543  001840  EF31  F00C         	goto	l7538
  4544  001844                     u6780:
  4545  001844                     
  4546                           ; BSR set to: 0
  4547                           ;main.c: 806:             {;main.c: 807:                 u16_displyfirstcnt++;
  4548  001844  4A59               	infsnz	_u16_displyfirstcnt^0,f,c
  4549  001846  2A5A               	incf	(_u16_displyfirstcnt+1)^0,f,c
  4550  001848                     
  4551                           ; BSR set to: 0
  4552                           ;main.c: 808:                 Sring_7segdisplay(LINE2,'C','G',1,' ');
  4553  001848  0E43               	movlw	67
  4554  00184A  6E0E               	movwf	Sring_7segdisplay@char3^0,c
  4555  00184C  0E47               	movlw	71
  4556  00184E  6E0F               	movwf	Sring_7segdisplay@char2^0,c
  4557  001850  0E01               	movlw	1
  4558  001852  6E10               	movwf	Sring_7segdisplay@char1^0,c
  4559  001854  0E20               	movlw	32
  4560  001856  6E11               	movwf	Sring_7segdisplay@char0^0,c
  4561  001858  0E02               	movlw	2
  4562  00185A  ECB5  F018         	call	_Sring_7segdisplay
  4563  00185E  EF7C  F00A         	goto	l7486
  4564  001862                     l7538:
  4565                           
  4566                           ; BSR set to: 0
  4567                           ;main.c: 812:             {;main.c: 813:                 u8_digit[0] = u16_cg1/100;
  4568  001862  C09E  F005         	movff	_u16_cg1,___lwdiv@dividend
  4569  001866  C09F  F006         	movff	_u16_cg1+1,___lwdiv@dividend+1
  4570  00186A  0E00               	movlw	0
  4571  00186C  6E08               	movwf	(___lwdiv@divisor+1)^0,c
  4572  00186E  0E64               	movlw	100
  4573  001870  6E07               	movwf	___lwdiv@divisor^0,c
  4574  001872  ECA9  F01D         	call	___lwdiv	;wreg free
  4575  001876  5005               	movf	?___lwdiv^0,w,c
  4576  001878  6E55               	movwf	_u8_digit^0,c
  4577                           
  4578                           ;main.c: 814:                 u8_digit[1] = u16_cg1%100;
  4579  00187A  C09E  F005         	movff	_u16_cg1,___lwmod@dividend
  4580  00187E  C09F  F006         	movff	_u16_cg1+1,___lwmod@dividend+1
  4581  001882  0E00               	movlw	0
  4582  001884  6E08               	movwf	(___lwmod@divisor+1)^0,c
  4583  001886  0E64               	movlw	100
  4584  001888  6E07               	movwf	___lwmod@divisor^0,c
  4585  00188A  EC1C  F01E         	call	___lwmod	;wreg free
  4586  00188E  5005               	movf	?___lwmod^0,w,c
  4587  001890  6E56               	movwf	(_u8_digit+1)^0,c
  4588                           
  4589                           ;main.c: 815:                 u8_digit[1] = u8_digit[1]/10;
  4590  001892  C056  F005         	movff	_u8_digit+1,___awdiv@dividend
  4591  001896  6A06               	clrf	(___awdiv@dividend+1)^0,c
  4592  001898  0E00               	movlw	0
  4593  00189A  6E08               	movwf	(___awdiv@divisor+1)^0,c
  4594  00189C  0E0A               	movlw	10
  4595  00189E  6E07               	movwf	___awdiv@divisor^0,c
  4596  0018A0  EC4D  F01C         	call	___awdiv	;wreg free
  4597  0018A4  5005               	movf	?___awdiv^0,w,c
  4598  0018A6  6E56               	movwf	(_u8_digit+1)^0,c
  4599                           
  4600                           ;main.c: 816:                 u8_digit[2] = u16_cg1%10;
  4601  0018A8  C09E  F005         	movff	_u16_cg1,___lwmod@dividend
  4602  0018AC  C09F  F006         	movff	_u16_cg1+1,___lwmod@dividend+1
  4603  0018B0  0E00               	movlw	0
  4604  0018B2  6E08               	movwf	(___lwmod@divisor+1)^0,c
  4605  0018B4  0E0A               	movlw	10
  4606  0018B6  6E07               	movwf	___lwmod@divisor^0,c
  4607  0018B8  EC1C  F01E         	call	___lwmod	;wreg free
  4608  0018BC  5005               	movf	?___lwmod^0,w,c
  4609  0018BE  6E57               	movwf	(_u8_digit+2)^0,c
  4610                           
  4611                           ;main.c: 818:                 Sring_7segdisplay(LINE2,u8_digit[0],u8_digit[1],u8_digit[2
      +                          ],' ');
  4612  0018C0  C055  F00E         	movff	_u8_digit,Sring_7segdisplay@char3
  4613  0018C4  C056  F00F         	movff	_u8_digit+1,Sring_7segdisplay@char2
  4614  0018C8  C057  F010         	movff	_u8_digit+2,Sring_7segdisplay@char1
  4615  0018CC  0E20               	movlw	32
  4616  0018CE  6E11               	movwf	Sring_7segdisplay@char0^0,c
  4617  0018D0  0E02               	movlw	2
  4618  0018D2  ECB5  F018         	call	_Sring_7segdisplay
  4619  0018D6  EF59  F00E         	goto	l7594
  4620  0018DA                     l7540:
  4621                           
  4622                           ; BSR set to: 0
  4623                           ;main.c: 823:        {;main.c: 824:             if(u16_displyfirstcnt<=300)
  4624  0018DA  0E2D               	movlw	45
  4625  0018DC  5C59               	subwf	_u16_displyfirstcnt^0,w,c
  4626  0018DE  0E01               	movlw	1
  4627  0018E0  585A               	subwfb	(_u16_displyfirstcnt+1)^0,w,c
  4628  0018E2  B0D8               	btfsc	status,0,c
  4629  0018E4  EF76  F00C         	goto	u6791
  4630  0018E8  EF78  F00C         	goto	u6790
  4631  0018EC                     u6791:
  4632  0018EC  EF87  F00C         	goto	l7548
  4633  0018F0                     u6790:
  4634  0018F0                     
  4635                           ; BSR set to: 0
  4636                           ;main.c: 825:             {;main.c: 826:                 u16_displyfirstcnt++;
  4637  0018F0  4A59               	infsnz	_u16_displyfirstcnt^0,f,c
  4638  0018F2  2A5A               	incf	(_u16_displyfirstcnt+1)^0,f,c
  4639  0018F4                     
  4640                           ; BSR set to: 0
  4641                           ;main.c: 827:                 Sring_7segdisplay(LINE2,'C','G',2,' ');
  4642  0018F4  0E43               	movlw	67
  4643  0018F6  6E0E               	movwf	Sring_7segdisplay@char3^0,c
  4644  0018F8  0E47               	movlw	71
  4645  0018FA  6E0F               	movwf	Sring_7segdisplay@char2^0,c
  4646  0018FC  0E02               	movlw	2
  4647  0018FE  6E10               	movwf	Sring_7segdisplay@char1^0,c
  4648  001900  0E20               	movlw	32
  4649  001902  6E11               	movwf	Sring_7segdisplay@char0^0,c
  4650  001904  0E02               	movlw	2
  4651  001906  ECB5  F018         	call	_Sring_7segdisplay
  4652  00190A  EF7C  F00A         	goto	l7486
  4653  00190E                     l7548:
  4654                           
  4655                           ; BSR set to: 0
  4656                           ;main.c: 831:             {;main.c: 832:                 u8_digit[0] = u16_cg2/100;
  4657  00190E  C09C  F005         	movff	_u16_cg2,___lwdiv@dividend
  4658  001912  C09D  F006         	movff	_u16_cg2+1,___lwdiv@dividend+1
  4659  001916  0E00               	movlw	0
  4660  001918  6E08               	movwf	(___lwdiv@divisor+1)^0,c
  4661  00191A  0E64               	movlw	100
  4662  00191C  6E07               	movwf	___lwdiv@divisor^0,c
  4663  00191E  ECA9  F01D         	call	___lwdiv	;wreg free
  4664  001922  5005               	movf	?___lwdiv^0,w,c
  4665  001924  6E55               	movwf	_u8_digit^0,c
  4666                           
  4667                           ;main.c: 833:                 u8_digit[1] = u16_cg2%100;
  4668  001926  C09C  F005         	movff	_u16_cg2,___lwmod@dividend
  4669  00192A  C09D  F006         	movff	_u16_cg2+1,___lwmod@dividend+1
  4670  00192E  0E00               	movlw	0
  4671  001930  6E08               	movwf	(___lwmod@divisor+1)^0,c
  4672  001932  0E64               	movlw	100
  4673  001934  6E07               	movwf	___lwmod@divisor^0,c
  4674  001936  EC1C  F01E         	call	___lwmod	;wreg free
  4675  00193A  5005               	movf	?___lwmod^0,w,c
  4676  00193C  6E56               	movwf	(_u8_digit+1)^0,c
  4677                           
  4678                           ;main.c: 834:                 u8_digit[1] = u8_digit[1]/10;
  4679  00193E  C056  F005         	movff	_u8_digit+1,___awdiv@dividend
  4680  001942  6A06               	clrf	(___awdiv@dividend+1)^0,c
  4681  001944  0E00               	movlw	0
  4682  001946  6E08               	movwf	(___awdiv@divisor+1)^0,c
  4683  001948  0E0A               	movlw	10
  4684  00194A  6E07               	movwf	___awdiv@divisor^0,c
  4685  00194C  EC4D  F01C         	call	___awdiv	;wreg free
  4686  001950  5005               	movf	?___awdiv^0,w,c
  4687  001952  6E56               	movwf	(_u8_digit+1)^0,c
  4688                           
  4689                           ;main.c: 835:                 u8_digit[2] = u16_cg2%10;
  4690  001954  C09C  F005         	movff	_u16_cg2,___lwmod@dividend
  4691  001958  C09D  F006         	movff	_u16_cg2+1,___lwmod@dividend+1
  4692  00195C  0E00               	movlw	0
  4693  00195E  6E08               	movwf	(___lwmod@divisor+1)^0,c
  4694  001960  0E0A               	movlw	10
  4695  001962  6E07               	movwf	___lwmod@divisor^0,c
  4696  001964  EC1C  F01E         	call	___lwmod	;wreg free
  4697  001968  5005               	movf	?___lwmod^0,w,c
  4698  00196A  6E57               	movwf	(_u8_digit+2)^0,c
  4699                           
  4700                           ;main.c: 837:                 Sring_7segdisplay(LINE2,u8_digit[0],u8_digit[1],u8_digit[2
      +                          ],' ');
  4701  00196C  C055  F00E         	movff	_u8_digit,Sring_7segdisplay@char3
  4702  001970  C056  F00F         	movff	_u8_digit+1,Sring_7segdisplay@char2
  4703  001974  C057  F010         	movff	_u8_digit+2,Sring_7segdisplay@char1
  4704  001978  0E20               	movlw	32
  4705  00197A  6E11               	movwf	Sring_7segdisplay@char0^0,c
  4706  00197C  0E02               	movlw	2
  4707  00197E  ECB5  F018         	call	_Sring_7segdisplay
  4708  001982  EF59  F00E         	goto	l7594
  4709  001986                     l7550:
  4710                           
  4711                           ; BSR set to: 0
  4712                           ;main.c: 842:        {;main.c: 843:             if(u16_displyfirstcnt<=300)
  4713  001986  0E2D               	movlw	45
  4714  001988  5C59               	subwf	_u16_displyfirstcnt^0,w,c
  4715  00198A  0E01               	movlw	1
  4716  00198C  585A               	subwfb	(_u16_displyfirstcnt+1)^0,w,c
  4717  00198E  B0D8               	btfsc	status,0,c
  4718  001990  EFCC  F00C         	goto	u6801
  4719  001994  EFCE  F00C         	goto	u6800
  4720  001998                     u6801:
  4721  001998  EFDD  F00C         	goto	l7558
  4722  00199C                     u6800:
  4723  00199C                     
  4724                           ; BSR set to: 0
  4725                           ;main.c: 844:             {;main.c: 845:                 u16_displyfirstcnt++;
  4726  00199C  4A59               	infsnz	_u16_displyfirstcnt^0,f,c
  4727  00199E  2A5A               	incf	(_u16_displyfirstcnt+1)^0,f,c
  4728  0019A0                     
  4729                           ; BSR set to: 0
  4730                           ;main.c: 846:                 Sring_7segdisplay(LINE2,'C',0,'F',' ');
  4731  0019A0  0E43               	movlw	67
  4732  0019A2  6E0E               	movwf	Sring_7segdisplay@char3^0,c
  4733  0019A4  0E00               	movlw	0
  4734  0019A6  6E0F               	movwf	Sring_7segdisplay@char2^0,c
  4735  0019A8  0E46               	movlw	70
  4736  0019AA  6E10               	movwf	Sring_7segdisplay@char1^0,c
  4737  0019AC  0E20               	movlw	32
  4738  0019AE  6E11               	movwf	Sring_7segdisplay@char0^0,c
  4739  0019B0  0E02               	movlw	2
  4740  0019B2  ECB5  F018         	call	_Sring_7segdisplay
  4741  0019B6  EF7C  F00A         	goto	l7486
  4742  0019BA                     l7558:
  4743                           
  4744                           ; BSR set to: 0
  4745                           ;main.c: 850:             {;main.c: 851:                 u8_digit[0] = u16_cof/100;
  4746  0019BA  C09A  F005         	movff	_u16_cof,___lwdiv@dividend
  4747  0019BE  C09B  F006         	movff	_u16_cof+1,___lwdiv@dividend+1
  4748  0019C2  0E00               	movlw	0
  4749  0019C4  6E08               	movwf	(___lwdiv@divisor+1)^0,c
  4750  0019C6  0E64               	movlw	100
  4751  0019C8  6E07               	movwf	___lwdiv@divisor^0,c
  4752  0019CA  ECA9  F01D         	call	___lwdiv	;wreg free
  4753  0019CE  5005               	movf	?___lwdiv^0,w,c
  4754  0019D0  6E55               	movwf	_u8_digit^0,c
  4755                           
  4756                           ;main.c: 852:                 u8_digit[1] = u16_cof%100;
  4757  0019D2  C09A  F005         	movff	_u16_cof,___lwmod@dividend
  4758  0019D6  C09B  F006         	movff	_u16_cof+1,___lwmod@dividend+1
  4759  0019DA  0E00               	movlw	0
  4760  0019DC  6E08               	movwf	(___lwmod@divisor+1)^0,c
  4761  0019DE  0E64               	movlw	100
  4762  0019E0  6E07               	movwf	___lwmod@divisor^0,c
  4763  0019E2  EC1C  F01E         	call	___lwmod	;wreg free
  4764  0019E6  5005               	movf	?___lwmod^0,w,c
  4765  0019E8  6E56               	movwf	(_u8_digit+1)^0,c
  4766                           
  4767                           ;main.c: 853:                 u8_digit[1] = u8_digit[1]/10;
  4768  0019EA  C056  F005         	movff	_u8_digit+1,___awdiv@dividend
  4769  0019EE  6A06               	clrf	(___awdiv@dividend+1)^0,c
  4770  0019F0  0E00               	movlw	0
  4771  0019F2  6E08               	movwf	(___awdiv@divisor+1)^0,c
  4772  0019F4  0E0A               	movlw	10
  4773  0019F6  6E07               	movwf	___awdiv@divisor^0,c
  4774  0019F8  EC4D  F01C         	call	___awdiv	;wreg free
  4775  0019FC  5005               	movf	?___awdiv^0,w,c
  4776  0019FE  6E56               	movwf	(_u8_digit+1)^0,c
  4777                           
  4778                           ;main.c: 854:                 u8_digit[2] = u16_cof%10;
  4779  001A00  C09A  F005         	movff	_u16_cof,___lwmod@dividend
  4780  001A04  C09B  F006         	movff	_u16_cof+1,___lwmod@dividend+1
  4781  001A08  0E00               	movlw	0
  4782  001A0A  6E08               	movwf	(___lwmod@divisor+1)^0,c
  4783  001A0C  0E0A               	movlw	10
  4784  001A0E  6E07               	movwf	___lwmod@divisor^0,c
  4785  001A10  EC1C  F01E         	call	___lwmod	;wreg free
  4786  001A14  5005               	movf	?___lwmod^0,w,c
  4787  001A16  6E57               	movwf	(_u8_digit+2)^0,c
  4788                           
  4789                           ;main.c: 856:                 Sring_7segdisplay(LINE2,u8_digit[0],u8_digit[1],u8_digit[2
      +                          ],' ');
  4790  001A18  C055  F00E         	movff	_u8_digit,Sring_7segdisplay@char3
  4791  001A1C  C056  F00F         	movff	_u8_digit+1,Sring_7segdisplay@char2
  4792  001A20  C057  F010         	movff	_u8_digit+2,Sring_7segdisplay@char1
  4793  001A24  0E20               	movlw	32
  4794  001A26  6E11               	movwf	Sring_7segdisplay@char0^0,c
  4795  001A28  0E02               	movlw	2
  4796  001A2A  ECB5  F018         	call	_Sring_7segdisplay
  4797  001A2E  EF59  F00E         	goto	l7594
  4798  001A32                     l7560:
  4799                           
  4800                           ; BSR set to: 0
  4801                           ;main.c: 861:        {;main.c: 862:             if(u16_displyfirstcnt<=300)
  4802  001A32  0E2D               	movlw	45
  4803  001A34  5C59               	subwf	_u16_displyfirstcnt^0,w,c
  4804  001A36  0E01               	movlw	1
  4805  001A38  585A               	subwfb	(_u16_displyfirstcnt+1)^0,w,c
  4806  001A3A  B0D8               	btfsc	status,0,c
  4807  001A3C  EF22  F00D         	goto	u6811
  4808  001A40  EF24  F00D         	goto	u6810
  4809  001A44                     u6811:
  4810  001A44  EF33  F00D         	goto	l7568
  4811  001A48                     u6810:
  4812  001A48                     
  4813                           ; BSR set to: 0
  4814                           ;main.c: 863:             {;main.c: 864:                 u16_displyfirstcnt++;
  4815  001A48  4A59               	infsnz	_u16_displyfirstcnt^0,f,c
  4816  001A4A  2A5A               	incf	(_u16_displyfirstcnt+1)^0,f,c
  4817  001A4C                     
  4818                           ; BSR set to: 0
  4819                           ;main.c: 865:                 Sring_7segdisplay(LINE2,'M',0,'d',' ');
  4820  001A4C  0E4D               	movlw	77
  4821  001A4E  6E0E               	movwf	Sring_7segdisplay@char3^0,c
  4822  001A50  0E00               	movlw	0
  4823  001A52  6E0F               	movwf	Sring_7segdisplay@char2^0,c
  4824  001A54  0E64               	movlw	100
  4825  001A56  6E10               	movwf	Sring_7segdisplay@char1^0,c
  4826  001A58  0E20               	movlw	32
  4827  001A5A  6E11               	movwf	Sring_7segdisplay@char0^0,c
  4828  001A5C  0E02               	movlw	2
  4829  001A5E  ECB5  F018         	call	_Sring_7segdisplay
  4830  001A62  EF7C  F00A         	goto	l7486
  4831  001A66                     l7568:
  4832                           
  4833                           ; BSR set to: 0
  4834                           ;main.c: 869:             {;main.c: 870:                 u8_digit[0] = u16_mde/100;
  4835  001A66  C098  F005         	movff	_u16_mde,___lwdiv@dividend
  4836  001A6A  C099  F006         	movff	_u16_mde+1,___lwdiv@dividend+1
  4837  001A6E  0E00               	movlw	0
  4838  001A70  6E08               	movwf	(___lwdiv@divisor+1)^0,c
  4839  001A72  0E64               	movlw	100
  4840  001A74  6E07               	movwf	___lwdiv@divisor^0,c
  4841  001A76  ECA9  F01D         	call	___lwdiv	;wreg free
  4842  001A7A  5005               	movf	?___lwdiv^0,w,c
  4843  001A7C  6E55               	movwf	_u8_digit^0,c
  4844                           
  4845                           ;main.c: 871:                 u8_digit[1] = u16_mde%100;
  4846  001A7E  C098  F005         	movff	_u16_mde,___lwmod@dividend
  4847  001A82  C099  F006         	movff	_u16_mde+1,___lwmod@dividend+1
  4848  001A86  0E00               	movlw	0
  4849  001A88  6E08               	movwf	(___lwmod@divisor+1)^0,c
  4850  001A8A  0E64               	movlw	100
  4851  001A8C  6E07               	movwf	___lwmod@divisor^0,c
  4852  001A8E  EC1C  F01E         	call	___lwmod	;wreg free
  4853  001A92  5005               	movf	?___lwmod^0,w,c
  4854  001A94  6E56               	movwf	(_u8_digit+1)^0,c
  4855                           
  4856                           ;main.c: 872:                 u8_digit[1] = u8_digit[1]/10;
  4857  001A96  C056  F005         	movff	_u8_digit+1,___awdiv@dividend
  4858  001A9A  6A06               	clrf	(___awdiv@dividend+1)^0,c
  4859  001A9C  0E00               	movlw	0
  4860  001A9E  6E08               	movwf	(___awdiv@divisor+1)^0,c
  4861  001AA0  0E0A               	movlw	10
  4862  001AA2  6E07               	movwf	___awdiv@divisor^0,c
  4863  001AA4  EC4D  F01C         	call	___awdiv	;wreg free
  4864  001AA8  5005               	movf	?___awdiv^0,w,c
  4865  001AAA  6E56               	movwf	(_u8_digit+1)^0,c
  4866                           
  4867                           ;main.c: 873:                 u8_digit[2] = u16_mde%10;
  4868  001AAC  C098  F005         	movff	_u16_mde,___lwmod@dividend
  4869  001AB0  C099  F006         	movff	_u16_mde+1,___lwmod@dividend+1
  4870  001AB4  0E00               	movlw	0
  4871  001AB6  6E08               	movwf	(___lwmod@divisor+1)^0,c
  4872  001AB8  0E0A               	movlw	10
  4873  001ABA  6E07               	movwf	___lwmod@divisor^0,c
  4874  001ABC  EC1C  F01E         	call	___lwmod	;wreg free
  4875  001AC0  5005               	movf	?___lwmod^0,w,c
  4876  001AC2  6E57               	movwf	(_u8_digit+2)^0,c
  4877                           
  4878                           ;main.c: 875:                 Sring_7segdisplay(LINE2,u8_digit[0],u8_digit[1],u8_digit[2
      +                          ],' ');
  4879  001AC4  C055  F00E         	movff	_u8_digit,Sring_7segdisplay@char3
  4880  001AC8  C056  F00F         	movff	_u8_digit+1,Sring_7segdisplay@char2
  4881  001ACC  C057  F010         	movff	_u8_digit+2,Sring_7segdisplay@char1
  4882  001AD0  0E20               	movlw	32
  4883  001AD2  6E11               	movwf	Sring_7segdisplay@char0^0,c
  4884  001AD4  0E02               	movlw	2
  4885  001AD6  ECB5  F018         	call	_Sring_7segdisplay
  4886  001ADA  EF59  F00E         	goto	l7594
  4887  001ADE                     l7570:
  4888                           
  4889                           ; BSR set to: 0
  4890                           ;main.c: 880:        {;main.c: 881:             if(u16_displyfirstcnt<=300)
  4891  001ADE  0E2D               	movlw	45
  4892  001AE0  5C59               	subwf	_u16_displyfirstcnt^0,w,c
  4893  001AE2  0E01               	movlw	1
  4894  001AE4  585A               	subwfb	(_u16_displyfirstcnt+1)^0,w,c
  4895  001AE6  B0D8               	btfsc	status,0,c
  4896  001AE8  EF78  F00D         	goto	u6821
  4897  001AEC  EF7A  F00D         	goto	u6820
  4898  001AF0                     u6821:
  4899  001AF0  EF89  F00D         	goto	l7578
  4900  001AF4                     u6820:
  4901  001AF4                     
  4902                           ; BSR set to: 0
  4903                           ;main.c: 882:             {;main.c: 883:                 u16_displyfirstcnt++;
  4904  001AF4  4A59               	infsnz	_u16_displyfirstcnt^0,f,c
  4905  001AF6  2A5A               	incf	(_u16_displyfirstcnt+1)^0,f,c
  4906  001AF8                     
  4907                           ; BSR set to: 0
  4908                           ;main.c: 884:                 Sring_7segdisplay(LINE2,'S',' ',1,' ');
  4909  001AF8  0E53               	movlw	83
  4910  001AFA  6E0E               	movwf	Sring_7segdisplay@char3^0,c
  4911  001AFC  0E20               	movlw	32
  4912  001AFE  6E0F               	movwf	Sring_7segdisplay@char2^0,c
  4913  001B00  0E01               	movlw	1
  4914  001B02  6E10               	movwf	Sring_7segdisplay@char1^0,c
  4915  001B04  0E20               	movlw	32
  4916  001B06  6E11               	movwf	Sring_7segdisplay@char0^0,c
  4917  001B08  0E02               	movlw	2
  4918  001B0A  ECB5  F018         	call	_Sring_7segdisplay
  4919  001B0E  EF7C  F00A         	goto	l7486
  4920  001B12                     l7578:
  4921                           
  4922                           ; BSR set to: 0
  4923                           ;main.c: 888:             {;main.c: 889:                 u8_digit[0] = u16_SETtemp/100;
  4924  001B12  C0AC  F005         	movff	_u16_SETtemp,___lwdiv@dividend
  4925  001B16  C0AD  F006         	movff	_u16_SETtemp+1,___lwdiv@dividend+1
  4926  001B1A  0E00               	movlw	0
  4927  001B1C  6E08               	movwf	(___lwdiv@divisor+1)^0,c
  4928  001B1E  0E64               	movlw	100
  4929  001B20  6E07               	movwf	___lwdiv@divisor^0,c
  4930  001B22  ECA9  F01D         	call	___lwdiv	;wreg free
  4931  001B26  5005               	movf	?___lwdiv^0,w,c
  4932  001B28  6E55               	movwf	_u8_digit^0,c
  4933                           
  4934                           ;main.c: 890:                 u8_digit[1] = u16_SETtemp%100;
  4935  001B2A  C0AC  F005         	movff	_u16_SETtemp,___lwmod@dividend
  4936  001B2E  C0AD  F006         	movff	_u16_SETtemp+1,___lwmod@dividend+1
  4937  001B32  0E00               	movlw	0
  4938  001B34  6E08               	movwf	(___lwmod@divisor+1)^0,c
  4939  001B36  0E64               	movlw	100
  4940  001B38  6E07               	movwf	___lwmod@divisor^0,c
  4941  001B3A  EC1C  F01E         	call	___lwmod	;wreg free
  4942  001B3E  5005               	movf	?___lwmod^0,w,c
  4943  001B40  6E56               	movwf	(_u8_digit+1)^0,c
  4944                           
  4945                           ;main.c: 891:                 u8_digit[1] = u8_digit[1]/10;
  4946  001B42  C056  F005         	movff	_u8_digit+1,___awdiv@dividend
  4947  001B46  6A06               	clrf	(___awdiv@dividend+1)^0,c
  4948  001B48  0E00               	movlw	0
  4949  001B4A  6E08               	movwf	(___awdiv@divisor+1)^0,c
  4950  001B4C  0E0A               	movlw	10
  4951  001B4E  6E07               	movwf	___awdiv@divisor^0,c
  4952  001B50  EC4D  F01C         	call	___awdiv	;wreg free
  4953  001B54  5005               	movf	?___awdiv^0,w,c
  4954  001B56  6E56               	movwf	(_u8_digit+1)^0,c
  4955                           
  4956                           ;main.c: 892:                 u8_digit[2] = u16_SETtemp%10;
  4957  001B58  C0AC  F005         	movff	_u16_SETtemp,___lwmod@dividend
  4958  001B5C  C0AD  F006         	movff	_u16_SETtemp+1,___lwmod@dividend+1
  4959  001B60  0E00               	movlw	0
  4960  001B62  6E08               	movwf	(___lwmod@divisor+1)^0,c
  4961  001B64  0E0A               	movlw	10
  4962  001B66  6E07               	movwf	___lwmod@divisor^0,c
  4963  001B68  EC1C  F01E         	call	___lwmod	;wreg free
  4964  001B6C  5005               	movf	?___lwmod^0,w,c
  4965  001B6E  6E57               	movwf	(_u8_digit+2)^0,c
  4966                           
  4967                           ;main.c: 894:                 Sring_7segdisplay(LINE2,u8_digit[0],u8_digit[1],u8_digit[2
      +                          ],' ');
  4968  001B70  C055  F00E         	movff	_u8_digit,Sring_7segdisplay@char3
  4969  001B74  C056  F00F         	movff	_u8_digit+1,Sring_7segdisplay@char2
  4970  001B78  C057  F010         	movff	_u8_digit+2,Sring_7segdisplay@char1
  4971  001B7C  0E20               	movlw	32
  4972  001B7E  6E11               	movwf	Sring_7segdisplay@char0^0,c
  4973  001B80  0E02               	movlw	2
  4974  001B82  ECB5  F018         	call	_Sring_7segdisplay
  4975  001B86  EF59  F00E         	goto	l7594
  4976  001B8A                     l7580:
  4977                           
  4978                           ; BSR set to: 0
  4979                           ;main.c: 899:        {;main.c: 900:            if(u16_displyfirstcnt<=300)
  4980  001B8A  0E2D               	movlw	45
  4981  001B8C  5C59               	subwf	_u16_displyfirstcnt^0,w,c
  4982  001B8E  0E01               	movlw	1
  4983  001B90  585A               	subwfb	(_u16_displyfirstcnt+1)^0,w,c
  4984  001B92  B0D8               	btfsc	status,0,c
  4985  001B94  EFCE  F00D         	goto	u6831
  4986  001B98  EFD0  F00D         	goto	u6830
  4987  001B9C                     u6831:
  4988  001B9C  EFDF  F00D         	goto	l7588
  4989  001BA0                     u6830:
  4990  001BA0                     
  4991                           ; BSR set to: 0
  4992                           ;main.c: 901:             {;main.c: 902:                 u16_displyfirstcnt++;
  4993  001BA0  4A59               	infsnz	_u16_displyfirstcnt^0,f,c
  4994  001BA2  2A5A               	incf	(_u16_displyfirstcnt+1)^0,f,c
  4995  001BA4                     
  4996                           ; BSR set to: 0
  4997                           ;main.c: 903:                 Sring_7segdisplay(LINE2,'S',' ',2,' ');
  4998  001BA4  0E53               	movlw	83
  4999  001BA6  6E0E               	movwf	Sring_7segdisplay@char3^0,c
  5000  001BA8  0E20               	movlw	32
  5001  001BAA  6E0F               	movwf	Sring_7segdisplay@char2^0,c
  5002  001BAC  0E02               	movlw	2
  5003  001BAE  6E10               	movwf	Sring_7segdisplay@char1^0,c
  5004  001BB0  0E20               	movlw	32
  5005  001BB2  6E11               	movwf	Sring_7segdisplay@char0^0,c
  5006  001BB4  0E02               	movlw	2
  5007  001BB6  ECB5  F018         	call	_Sring_7segdisplay
  5008  001BBA  EF7C  F00A         	goto	l7486
  5009  001BBE                     l7588:
  5010                           
  5011                           ; BSR set to: 0
  5012                           ;main.c: 907:             {;main.c: 908:                 u8_digit[0] = u16_SETtime/100;
  5013  001BBE  C0AA  F005         	movff	_u16_SETtime,___lwdiv@dividend
  5014  001BC2  C0AB  F006         	movff	_u16_SETtime+1,___lwdiv@dividend+1
  5015  001BC6  0E00               	movlw	0
  5016  001BC8  6E08               	movwf	(___lwdiv@divisor+1)^0,c
  5017  001BCA  0E64               	movlw	100
  5018  001BCC  6E07               	movwf	___lwdiv@divisor^0,c
  5019  001BCE  ECA9  F01D         	call	___lwdiv	;wreg free
  5020  001BD2  5005               	movf	?___lwdiv^0,w,c
  5021  001BD4  6E55               	movwf	_u8_digit^0,c
  5022                           
  5023                           ;main.c: 909:                 u8_digit[1] = u16_SETtime%100;
  5024  001BD6  C0AA  F005         	movff	_u16_SETtime,___lwmod@dividend
  5025  001BDA  C0AB  F006         	movff	_u16_SETtime+1,___lwmod@dividend+1
  5026  001BDE  0E00               	movlw	0
  5027  001BE0  6E08               	movwf	(___lwmod@divisor+1)^0,c
  5028  001BE2  0E64               	movlw	100
  5029  001BE4  6E07               	movwf	___lwmod@divisor^0,c
  5030  001BE6  EC1C  F01E         	call	___lwmod	;wreg free
  5031  001BEA  5005               	movf	?___lwmod^0,w,c
  5032  001BEC  6E56               	movwf	(_u8_digit+1)^0,c
  5033                           
  5034                           ;main.c: 910:                 u8_digit[1] = u8_digit[1]/10;
  5035  001BEE  C056  F005         	movff	_u8_digit+1,___awdiv@dividend
  5036  001BF2  6A06               	clrf	(___awdiv@dividend+1)^0,c
  5037  001BF4  0E00               	movlw	0
  5038  001BF6  6E08               	movwf	(___awdiv@divisor+1)^0,c
  5039  001BF8  0E0A               	movlw	10
  5040  001BFA  6E07               	movwf	___awdiv@divisor^0,c
  5041  001BFC  EC4D  F01C         	call	___awdiv	;wreg free
  5042  001C00  5005               	movf	?___awdiv^0,w,c
  5043  001C02  6E56               	movwf	(_u8_digit+1)^0,c
  5044                           
  5045                           ;main.c: 911:                 u8_digit[2] = u16_SETtime%10;
  5046  001C04  C0AA  F005         	movff	_u16_SETtime,___lwmod@dividend
  5047  001C08  C0AB  F006         	movff	_u16_SETtime+1,___lwmod@dividend+1
  5048  001C0C  0E00               	movlw	0
  5049  001C0E  6E08               	movwf	(___lwmod@divisor+1)^0,c
  5050  001C10  0E0A               	movlw	10
  5051  001C12  6E07               	movwf	___lwmod@divisor^0,c
  5052  001C14  EC1C  F01E         	call	___lwmod	;wreg free
  5053  001C18  5005               	movf	?___lwmod^0,w,c
  5054  001C1A  6E57               	movwf	(_u8_digit+2)^0,c
  5055                           
  5056                           ;main.c: 913:                 Sring_7segdisplay(LINE2,u8_digit[0],u8_digit[1],u8_digit[2
      +                          ],' ');
  5057  001C1C  C055  F00E         	movff	_u8_digit,Sring_7segdisplay@char3
  5058  001C20  C056  F00F         	movff	_u8_digit+1,Sring_7segdisplay@char2
  5059  001C24  C057  F010         	movff	_u8_digit+2,Sring_7segdisplay@char1
  5060  001C28  0E20               	movlw	32
  5061  001C2A  6E11               	movwf	Sring_7segdisplay@char0^0,c
  5062  001C2C  0E02               	movlw	2
  5063  001C2E  ECB5  F018         	call	_Sring_7segdisplay
  5064  001C32  EF59  F00E         	goto	l7594
  5065  001C36                     l7592:
  5066  001C36  0100               	movlb	0	; () banked
  5067  001C38  51BD               	movf	_menu& (0+255),w,b
  5068  001C3A  6E4A               	movwf	??_ctrl_task^0,c
  5069  001C3C  6A4B               	clrf	(??_ctrl_task+1)^0,c
  5070                           
  5071                           ; Switch on 2 bytes has been partitioned into a top level switch of size 1, and 1 sub-sw
      +                          itches
  5072                           ; Switch size 1, requested type "simple"
  5073                           ; Number of cases is 1, Range of values is 0 to 0
  5074                           ; switch strategies available:
  5075                           ; Name         Instructions Cycles
  5076                           ; simple_byte            4     3 (average)
  5077                           ;	Chosen strategy is simple_byte
  5078  001C3E  504B               	movf	(??_ctrl_task+1)^0,w,c
  5079  001C40  0A00               	xorlw	0	; case 0
  5080  001C42  B4D8               	btfsc	status,2,c
  5081  001C44  EF26  F00E         	goto	l8250
  5082  001C48  EF59  F00E         	goto	l7594
  5083  001C4C                     l8250:
  5084                           
  5085                           ; BSR set to: 0
  5086                           ; Switch size 1, requested type "simple"
  5087                           ; Number of cases is 12, Range of values is 0 to 11
  5088                           ; switch strategies available:
  5089                           ; Name         Instructions Cycles
  5090                           ; simple_byte           37    19 (average)
  5091                           ;	Chosen strategy is simple_byte
  5092  001C4C  504A               	movf	??_ctrl_task^0,w,c
  5093  001C4E  0A00               	xorlw	0	; case 0
  5094  001C50  B4D8               	btfsc	status,2,c
  5095  001C52  EFD2  F009         	goto	l7474
  5096  001C56  0A01               	xorlw	1	; case 1
  5097  001C58  B4D8               	btfsc	status,2,c
  5098  001C5A  EF64  F00A         	goto	l7480
  5099  001C5E  0A03               	xorlw	3	; case 2
  5100  001C60  B4D8               	btfsc	status,2,c
  5101  001C62  EFBF  F00A         	goto	l7490
  5102  001C66  0A01               	xorlw	1	; case 3
  5103  001C68  B4D8               	btfsc	status,2,c
  5104  001C6A  EF15  F00B         	goto	l7500
  5105  001C6E  0A07               	xorlw	7	; case 4
  5106  001C70  B4D8               	btfsc	status,2,c
  5107  001C72  EF6B  F00B         	goto	l7510
  5108  001C76  0A01               	xorlw	1	; case 5
  5109  001C78  B4D8               	btfsc	status,2,c
  5110  001C7A  EFC1  F00B         	goto	l7520
  5111  001C7E  0A03               	xorlw	3	; case 6
  5112  001C80  B4D8               	btfsc	status,2,c
  5113  001C82  EF17  F00C         	goto	l7530
  5114  001C86  0A01               	xorlw	1	; case 7
  5115  001C88  B4D8               	btfsc	status,2,c
  5116  001C8A  EF6D  F00C         	goto	l7540
  5117  001C8E  0A0F               	xorlw	15	; case 8
  5118  001C90  B4D8               	btfsc	status,2,c
  5119  001C92  EFC3  F00C         	goto	l7550
  5120  001C96  0A01               	xorlw	1	; case 9
  5121  001C98  B4D8               	btfsc	status,2,c
  5122  001C9A  EF19  F00D         	goto	l7560
  5123  001C9E  0A03               	xorlw	3	; case 10
  5124  001CA0  B4D8               	btfsc	status,2,c
  5125  001CA2  EF6F  F00D         	goto	l7570
  5126  001CA6  0A01               	xorlw	1	; case 11
  5127  001CA8  B4D8               	btfsc	status,2,c
  5128  001CAA  EFC5  F00D         	goto	l7580
  5129  001CAE  EF59  F00E         	goto	l7594
  5130  001CB2                     l7594:
  5131                           
  5132                           ;main.c: 922:     if(uint_updatEN)
  5133  001CB2  0100               	movlb	0	; () banked
  5134  001CB4  51AE               	movf	_uint_updatEN& (0+255),w,b
  5135  001CB6  11AF               	iorwf	(_uint_updatEN+1)& (0+255),w,b
  5136  001CB8  B4D8               	btfsc	status,2,c
  5137  001CBA  EF61  F00E         	goto	u6841
  5138  001CBE  EF63  F00E         	goto	u6840
  5139  001CC2                     u6841:
  5140  001CC2  EFBE  F00F         	goto	l747
  5141  001CC6                     u6840:
  5142  001CC6                     
  5143                           ; BSR set to: 0
  5144                           ;main.c: 923:     {;main.c: 924:         uint_updatEN--;
  5145  001CC6  07AE               	decf	_uint_updatEN& (0+255),f,b
  5146  001CC8  A0D8               	btfss	status,0,c
  5147  001CCA  07AF               	decf	(_uint_updatEN+1)& (0+255),f,b
  5148  001CCC                     
  5149                           ; BSR set to: 0
  5150                           ;main.c: 925:         if(uint_updatEN == 0)
  5151  001CCC  51AE               	movf	_uint_updatEN& (0+255),w,b
  5152  001CCE  11AF               	iorwf	(_uint_updatEN+1)& (0+255),w,b
  5153  001CD0  A4D8               	btfss	status,2,c
  5154  001CD2  EF6D  F00E         	goto	u6851
  5155  001CD6  EF6F  F00E         	goto	u6850
  5156  001CDA                     u6851:
  5157  001CDA  EFBE  F00F         	goto	l747
  5158  001CDE                     u6850:
  5159  001CDE                     
  5160                           ; BSR set to: 0
  5161                           ;main.c: 926:         {;main.c: 927:             menu = MAIN_MENU;
  5162  001CDE  0E00               	movlw	0
  5163  001CE0  6FBD               	movwf	_menu& (0+255),b
  5164  001CE2                     
  5165                           ; BSR set to: 0
  5166                           ;main.c: 929:             if(uchr_valuemodified == 1)
  5167  001CE2  05CA               	decf	_uchr_valuemodified& (0+255),w,b
  5168  001CE4  A4D8               	btfss	status,2,c
  5169  001CE6  EF77  F00E         	goto	u6861
  5170  001CEA  EF79  F00E         	goto	u6860
  5171  001CEE                     u6861:
  5172  001CEE  EFBE  F00F         	goto	l747
  5173  001CF2                     u6860:
  5174  001CF2                     
  5175                           ; BSR set to: 0
  5176                           ;main.c: 930:             {;main.c: 931:                 uchr_valuemodified = 0;
  5177  001CF2  0E00               	movlw	0
  5178  001CF4  6FCA               	movwf	_uchr_valuemodified& (0+255),b
  5179  001CF6                     
  5180                           ; BSR set to: 0
  5181                           ;main.c: 933:                 write_2bytedata(0, u16_SETtemp);
  5182  001CF6  C0AC  F00C         	movff	_u16_SETtemp,write_2bytedata@data
  5183  001CFA  C0AD  F00D         	movff	_u16_SETtemp+1,write_2bytedata@data+1
  5184  001CFE  0E00               	movlw	0
  5185  001D00  EC4E  F01E         	call	_write_2bytedata
  5186  001D04                     
  5187                           ;main.c: 935:                 write_2bytedata(2, u16_SETtime);
  5188  001D04  C0AA  F00C         	movff	_u16_SETtime,write_2bytedata@data
  5189  001D08  C0AB  F00D         	movff	_u16_SETtime+1,write_2bytedata@data+1
  5190  001D0C  0E02               	movlw	2
  5191  001D0E  EC4E  F01E         	call	_write_2bytedata
  5192  001D12                     
  5193                           ;main.c: 937:                 write_2bytedata(4, u16_off);
  5194  001D12  C0A6  F00C         	movff	_u16_off,write_2bytedata@data
  5195  001D16  C0A7  F00D         	movff	_u16_off+1,write_2bytedata@data+1
  5196  001D1A  0E04               	movlw	4
  5197  001D1C  EC4E  F01E         	call	_write_2bytedata
  5198  001D20                     
  5199                           ;main.c: 939:                 write_2bytedata(6, u16_pb);
  5200  001D20  C0A4  F00C         	movff	_u16_pb,write_2bytedata@data
  5201  001D24  C0A5  F00D         	movff	_u16_pb+1,write_2bytedata@data+1
  5202  001D28  0E06               	movlw	6
  5203  001D2A  EC4E  F01E         	call	_write_2bytedata
  5204  001D2E                     
  5205                           ;main.c: 941:                 write_2bytedata(8, u16_ib);
  5206  001D2E  C0A2  F00C         	movff	_u16_ib,write_2bytedata@data
  5207  001D32  C0A3  F00D         	movff	_u16_ib+1,write_2bytedata@data+1
  5208  001D36  0E08               	movlw	8
  5209  001D38  EC4E  F01E         	call	_write_2bytedata
  5210  001D3C                     
  5211                           ;main.c: 943:                 write_2bytedata(10, u16_plm);
  5212  001D3C  C0D2  F00C         	movff	_u16_plm,write_2bytedata@data
  5213  001D40  C0D3  F00D         	movff	_u16_plm+1,write_2bytedata@data+1
  5214  001D44  0E0A               	movlw	10
  5215  001D46  EC4E  F01E         	call	_write_2bytedata
  5216  001D4A                     
  5217                           ;main.c: 945:                 write_2bytedata(12, u16_hys);
  5218  001D4A  C0A0  F00C         	movff	_u16_hys,write_2bytedata@data
  5219  001D4E  C0A1  F00D         	movff	_u16_hys+1,write_2bytedata@data+1
  5220  001D52  0E0C               	movlw	12
  5221  001D54  EC4E  F01E         	call	_write_2bytedata
  5222  001D58                     
  5223                           ;main.c: 947:                 write_2bytedata(14, u16_cg1);
  5224  001D58  C09E  F00C         	movff	_u16_cg1,write_2bytedata@data
  5225  001D5C  C09F  F00D         	movff	_u16_cg1+1,write_2bytedata@data+1
  5226  001D60  0E0E               	movlw	14
  5227  001D62  EC4E  F01E         	call	_write_2bytedata
  5228  001D66                     
  5229                           ;main.c: 949:                 write_2bytedata(16, u16_cg2);
  5230  001D66  C09C  F00C         	movff	_u16_cg2,write_2bytedata@data
  5231  001D6A  C09D  F00D         	movff	_u16_cg2+1,write_2bytedata@data+1
  5232  001D6E  0E10               	movlw	16
  5233  001D70  EC4E  F01E         	call	_write_2bytedata
  5234  001D74                     
  5235                           ;main.c: 951:                 write_2bytedata(18, u16_cof);
  5236  001D74  C09A  F00C         	movff	_u16_cof,write_2bytedata@data
  5237  001D78  C09B  F00D         	movff	_u16_cof+1,write_2bytedata@data+1
  5238  001D7C  0E12               	movlw	18
  5239  001D7E  EC4E  F01E         	call	_write_2bytedata
  5240  001D82                     
  5241                           ;main.c: 953:                 write_2bytedata(20, u16_mde);
  5242  001D82  C098  F00C         	movff	_u16_mde,write_2bytedata@data
  5243  001D86  C099  F00D         	movff	_u16_mde+1,write_2bytedata@data+1
  5244  001D8A  0E14               	movlw	20
  5245  001D8C  EC4E  F01E         	call	_write_2bytedata
  5246  001D90                     
  5247                           ;main.c: 956:                 kp = (1.0*u16_plm)/u16_pb;
  5248  001D90  0E00               	movlw	0
  5249  001D92  6E1C               	movwf	___flmul@a^0,c
  5250  001D94  0E00               	movlw	0
  5251  001D96  6E1D               	movwf	(___flmul@a+1)^0,c
  5252  001D98  0E80               	movlw	128
  5253  001D9A  6E1E               	movwf	(___flmul@a+2)^0,c
  5254  001D9C  0E3F               	movlw	63
  5255  001D9E  6E1F               	movwf	(___flmul@a+3)^0,c
  5256  001DA0  C0D2  F00A         	movff	_u16_plm,___xxtofl@val
  5257  001DA4  C0D3  F00B         	movff	_u16_plm+1,___xxtofl@val+1
  5258  001DA8  6A0C               	clrf	(___xxtofl@val+2)^0,c
  5259  001DAA  6A0D               	clrf	(___xxtofl@val+3)^0,c
  5260  001DAC  0E00               	movlw	0
  5261  001DAE  EC46  F017         	call	___xxtofl
  5262  001DB2  C00A  F018         	movff	?___xxtofl,___flmul@b
  5263  001DB6  C00B  F019         	movff	?___xxtofl+1,___flmul@b+1
  5264  001DBA  C00C  F01A         	movff	?___xxtofl+2,___flmul@b+2
  5265  001DBE  C00D  F01B         	movff	?___xxtofl+3,___flmul@b+3
  5266  001DC2  EC1F  F012         	call	___flmul	;wreg free
  5267  001DC6  C018  F031         	movff	?___flmul,___fldiv@b
  5268  001DCA  C019  F032         	movff	?___flmul+1,___fldiv@b+1
  5269  001DCE  C01A  F033         	movff	?___flmul+2,___fldiv@b+2
  5270  001DD2  C01B  F034         	movff	?___flmul+3,___fldiv@b+3
  5271  001DD6  C0A4  F00A         	movff	_u16_pb,___xxtofl@val
  5272  001DDA  C0A5  F00B         	movff	_u16_pb+1,___xxtofl@val+1
  5273  001DDE  6A0C               	clrf	(___xxtofl@val+2)^0,c
  5274  001DE0  6A0D               	clrf	(___xxtofl@val+3)^0,c
  5275  001DE2  0E00               	movlw	0
  5276  001DE4  EC46  F017         	call	___xxtofl
  5277  001DE8  C00A  F035         	movff	?___xxtofl,___fldiv@a
  5278  001DEC  C00B  F036         	movff	?___xxtofl+1,___fldiv@a+1
  5279  001DF0  C00C  F037         	movff	?___xxtofl+2,___fldiv@a+2
  5280  001DF4  C00D  F038         	movff	?___xxtofl+3,___fldiv@a+3
  5281  001DF8  EC34  F014         	call	___fldiv	;wreg free
  5282  001DFC  C031  F154         	movff	?___fldiv,_kp
  5283  001E00  C032  F155         	movff	?___fldiv+1,_kp+1
  5284  001E04  C033  F156         	movff	?___fldiv+2,_kp+2
  5285  001E08  C034  F157         	movff	?___fldiv+3,_kp+3
  5286  001E0C                     
  5287                           ;main.c: 957:                 ki = u16_ib;
  5288  001E0C  C0A2  F00A         	movff	_u16_ib,___xxtofl@val
  5289  001E10  C0A3  F00B         	movff	_u16_ib+1,___xxtofl@val+1
  5290  001E14  6A0C               	clrf	(___xxtofl@val+2)^0,c
  5291  001E16  6A0D               	clrf	(___xxtofl@val+3)^0,c
  5292  001E18  0E00               	movlw	0
  5293  001E1A  EC46  F017         	call	___xxtofl
  5294  001E1E  C00A  F0F4         	movff	?___xxtofl,_ki
  5295  001E22  C00B  F0F5         	movff	?___xxtofl+1,_ki+1
  5296  001E26  C00C  F0F6         	movff	?___xxtofl+2,_ki+2
  5297  001E2A  C00D  F0F7         	movff	?___xxtofl+3,_ki+3
  5298  001E2E                     
  5299                           ;main.c: 958:                 ki = 1.0/(ki*10.0);
  5300  001E2E  0E00               	movlw	0
  5301  001E30  6E31               	movwf	___fldiv@b^0,c
  5302  001E32  0E00               	movlw	0
  5303  001E34  6E32               	movwf	(___fldiv@b+1)^0,c
  5304  001E36  0E80               	movlw	128
  5305  001E38  6E33               	movwf	(___fldiv@b+2)^0,c
  5306  001E3A  0E3F               	movlw	63
  5307  001E3C  6E34               	movwf	(___fldiv@b+3)^0,c
  5308  001E3E  0E00               	movlw	0
  5309  001E40  6E1C               	movwf	___flmul@a^0,c
  5310  001E42  0E00               	movlw	0
  5311  001E44  6E1D               	movwf	(___flmul@a+1)^0,c
  5312  001E46  0E20               	movlw	32
  5313  001E48  6E1E               	movwf	(___flmul@a+2)^0,c
  5314  001E4A  0E41               	movlw	65
  5315  001E4C  6E1F               	movwf	(___flmul@a+3)^0,c
  5316  001E4E  C0F4  F018         	movff	_ki,___flmul@b
  5317  001E52  C0F5  F019         	movff	_ki+1,___flmul@b+1
  5318  001E56  C0F6  F01A         	movff	_ki+2,___flmul@b+2
  5319  001E5A  C0F7  F01B         	movff	_ki+3,___flmul@b+3
  5320  001E5E  EC1F  F012         	call	___flmul	;wreg free
  5321  001E62  C018  F035         	movff	?___flmul,___fldiv@a
  5322  001E66  C019  F036         	movff	?___flmul+1,___fldiv@a+1
  5323  001E6A  C01A  F037         	movff	?___flmul+2,___fldiv@a+2
  5324  001E6E  C01B  F038         	movff	?___flmul+3,___fldiv@a+3
  5325  001E72  EC34  F014         	call	___fldiv	;wreg free
  5326  001E76  C031  F0F4         	movff	?___fldiv,_ki
  5327  001E7A  C032  F0F5         	movff	?___fldiv+1,_ki+1
  5328  001E7E  C033  F0F6         	movff	?___fldiv+2,_ki+2
  5329  001E82  C034  F0F7         	movff	?___fldiv+3,_ki+3
  5330  001E86                     
  5331                           ;main.c: 959:                 flt_gain1 = u16_cg1*100.0 + (u16_cg2 * 0.1) ;
  5332  001E86  0E00               	movlw	0
  5333  001E88  6E1C               	movwf	___flmul@a^0,c
  5334  001E8A  0E00               	movlw	0
  5335  001E8C  6E1D               	movwf	(___flmul@a+1)^0,c
  5336  001E8E  0EC8               	movlw	200
  5337  001E90  6E1E               	movwf	(___flmul@a+2)^0,c
  5338  001E92  0E42               	movlw	66
  5339  001E94  6E1F               	movwf	(___flmul@a+3)^0,c
  5340  001E96  C09E  F00A         	movff	_u16_cg1,___xxtofl@val
  5341  001E9A  C09F  F00B         	movff	_u16_cg1+1,___xxtofl@val+1
  5342  001E9E  6A0C               	clrf	(___xxtofl@val+2)^0,c
  5343  001EA0  6A0D               	clrf	(___xxtofl@val+3)^0,c
  5344  001EA2  0E00               	movlw	0
  5345  001EA4  EC46  F017         	call	___xxtofl
  5346  001EA8  C00A  F018         	movff	?___xxtofl,___flmul@b
  5347  001EAC  C00B  F019         	movff	?___xxtofl+1,___flmul@b+1
  5348  001EB0  C00C  F01A         	movff	?___xxtofl+2,___flmul@b+2
  5349  001EB4  C00D  F01B         	movff	?___xxtofl+3,___flmul@b+3
  5350  001EB8  EC1F  F012         	call	___flmul	;wreg free
  5351  001EBC  C018  F031         	movff	?___flmul,___fladd@b
  5352  001EC0  C019  F032         	movff	?___flmul+1,___fladd@b+1
  5353  001EC4  C01A  F033         	movff	?___flmul+2,___fladd@b+2
  5354  001EC8  C01B  F034         	movff	?___flmul+3,___fladd@b+3
  5355  001ECC  0ECD               	movlw	205
  5356  001ECE  6E1C               	movwf	___flmul@a^0,c
  5357  001ED0  0ECC               	movlw	204
  5358  001ED2  6E1D               	movwf	(___flmul@a+1)^0,c
  5359  001ED4  0ECC               	movlw	204
  5360  001ED6  6E1E               	movwf	(___flmul@a+2)^0,c
  5361  001ED8  0E3D               	movlw	61
  5362  001EDA  6E1F               	movwf	(___flmul@a+3)^0,c
  5363  001EDC  C09C  F00A         	movff	_u16_cg2,___xxtofl@val
  5364  001EE0  C09D  F00B         	movff	_u16_cg2+1,___xxtofl@val+1
  5365  001EE4  6A0C               	clrf	(___xxtofl@val+2)^0,c
  5366  001EE6  6A0D               	clrf	(___xxtofl@val+3)^0,c
  5367  001EE8  0E00               	movlw	0
  5368  001EEA  EC46  F017         	call	___xxtofl
  5369  001EEE  C00A  F018         	movff	?___xxtofl,___flmul@b
  5370  001EF2  C00B  F019         	movff	?___xxtofl+1,___flmul@b+1
  5371  001EF6  C00C  F01A         	movff	?___xxtofl+2,___flmul@b+2
  5372  001EFA  C00D  F01B         	movff	?___xxtofl+3,___flmul@b+3
  5373  001EFE  EC1F  F012         	call	___flmul	;wreg free
  5374  001F02  C018  F035         	movff	?___flmul,___fladd@a
  5375  001F06  C019  F036         	movff	?___flmul+1,___fladd@a+1
  5376  001F0A  C01A  F037         	movff	?___flmul+2,___fladd@a+2
  5377  001F0E  C01B  F038         	movff	?___flmul+3,___fladd@a+3
  5378  001F12  ECBF  F00F         	call	___fladd	;wreg free
  5379  001F16  C031  F07C         	movff	?___fladd,_flt_gain1
  5380  001F1A  C032  F07D         	movff	?___fladd+1,_flt_gain1+1
  5381  001F1E  C033  F07E         	movff	?___fladd+2,_flt_gain1+2
  5382  001F22  C034  F07F         	movff	?___fladd+3,_flt_gain1+3
  5383  001F26                     
  5384                           ;main.c: 960:                 flt_gain1 = flt_gain1 * 0.001;
  5385  001F26  C07C  F018         	movff	_flt_gain1,___flmul@b
  5386  001F2A  C07D  F019         	movff	_flt_gain1+1,___flmul@b+1
  5387  001F2E  C07E  F01A         	movff	_flt_gain1+2,___flmul@b+2
  5388  001F32  C07F  F01B         	movff	_flt_gain1+3,___flmul@b+3
  5389  001F36  0E6F               	movlw	111
  5390  001F38  6E1C               	movwf	___flmul@a^0,c
  5391  001F3A  0E12               	movlw	18
  5392  001F3C  6E1D               	movwf	(___flmul@a+1)^0,c
  5393  001F3E  0E83               	movlw	131
  5394  001F40  6E1E               	movwf	(___flmul@a+2)^0,c
  5395  001F42  0E3A               	movlw	58
  5396  001F44  6E1F               	movwf	(___flmul@a+3)^0,c
  5397  001F46  EC1F  F012         	call	___flmul	;wreg free
  5398  001F4A  C018  F07C         	movff	?___flmul,_flt_gain1
  5399  001F4E  C019  F07D         	movff	?___flmul+1,_flt_gain1+1
  5400  001F52  C01A  F07E         	movff	?___flmul+2,_flt_gain1+2
  5401  001F56  C01B  F07F         	movff	?___flmul+3,_flt_gain1+3
  5402  001F5A                     
  5403                           ;main.c: 961:                 flt_offset = (float)u16_cof;
  5404  001F5A  C09A  F00A         	movff	_u16_cof,___xxtofl@val
  5405  001F5E  C09B  F00B         	movff	_u16_cof+1,___xxtofl@val+1
  5406  001F62  6A0C               	clrf	(___xxtofl@val+2)^0,c
  5407  001F64  6A0D               	clrf	(___xxtofl@val+3)^0,c
  5408  001F66  0E00               	movlw	0
  5409  001F68  EC46  F017         	call	___xxtofl
  5410  001F6C  C00A  F12C         	movff	?___xxtofl,_flt_offset
  5411  001F70  C00B  F12D         	movff	?___xxtofl+1,_flt_offset+1
  5412  001F74  C00C  F12E         	movff	?___xxtofl+2,_flt_offset+2
  5413  001F78  C00D  F12F         	movff	?___xxtofl+3,_flt_offset+3
  5414  001F7C                     l747:
  5415  001F7C  0012               	return		;funcret
  5416  001F7E                     __end_of_ctrl_task:
  5417                           	opt callstack 0
  5418                           
  5419 ;; *************** function _write_2bytedata *****************
  5420 ;; Defined at:
  5421 ;;		line 1015 in file "main.c"
  5422 ;; Parameters:    Size  Location     Type
  5423 ;;  addr            1    wreg     unsigned char 
  5424 ;;  data            2   11[COMRAM] unsigned int 
  5425 ;; Auto vars:     Size  Location     Type
  5426 ;;  addr            1   15[COMRAM] unsigned char 
  5427 ;;  uchr_dataH      1   14[COMRAM] unsigned char 
  5428 ;;  uchr_dataL      1   13[COMRAM] unsigned char 
  5429 ;; Return value:  Size  Location     Type
  5430 ;;                  1    wreg      void 
  5431 ;; Registers used:
  5432 ;;		wreg, status,2, status,0, cstack
  5433 ;; Tracked objects:
  5434 ;;		On entry : 0/0
  5435 ;;		On exit  : 0/0
  5436 ;;		Unchanged: 0/0
  5437 ;; Data sizes:     COMRAM   BANK0   BANK1   BANK2   BANK3   BANK4   BANK5   BANK6   BANK7   BANK8   BANK9  BANK10  BANK1
      +1  BANK12  BANK13  BANK14  BANK15
  5438 ;;      Params:         2       0       0       0       0       0       0       0       0       0       0       0       
      +0       0       0       0       0
  5439 ;;      Locals:         3       0       0       0       0       0       0       0       0       0       0       0       
      +0       0       0       0       0
  5440 ;;      Temps:          0       0       0       0       0       0       0       0       0       0       0       0       
      +0       0       0       0       0
  5441 ;;      Totals:         5       0       0       0       0       0       0       0       0       0       0       0       
      +0       0       0       0       0
  5442 ;;Total ram usage:        5 bytes
  5443 ;; Hardware stack levels used:    1
  5444 ;; Hardware stack levels required when called:    4
  5445 ;; This function calls:
  5446 ;;		_DATAEE_WriteByte
  5447 ;;		___lwdiv
  5448 ;;		___lwmod
  5449 ;; This function is called by:
  5450 ;;		_ctrl_task
  5451 ;; This function uses a non-reentrant model
  5452 ;;
  5453                           
  5454                           	psect	text5
  5455  003C9C                     __ptext5:
  5456                           	opt callstack 0
  5457  003C9C                     _write_2bytedata:
  5458                           	opt callstack 25
  5459                           
  5460                           ;incstack = 0
  5461                           ;write_2bytedata@addr stored from wreg
  5462  003C9C  6E10               	movwf	write_2bytedata@addr^0,c
  5463  003C9E                     
  5464                           ;main.c: 1015: void write_2bytedata(unsigned char addr, unsigned int data);main.c: 1016:
      +                           {;main.c: 1017:     unsigned char uchr_dataL;;main.c: 1018:     unsigned char uchr_data
      +                          H;;main.c: 1019:     uchr_dataL = data%100;
  5465  003C9E  C00C  F005         	movff	write_2bytedata@data,___lwmod@dividend
  5466  003CA2  C00D  F006         	movff	write_2bytedata@data+1,___lwmod@dividend+1
  5467  003CA6  0E00               	movlw	0
  5468  003CA8  6E08               	movwf	(___lwmod@divisor+1)^0,c
  5469  003CAA  0E64               	movlw	100
  5470  003CAC  6E07               	movwf	___lwmod@divisor^0,c
  5471  003CAE  EC1C  F01E         	call	___lwmod	;wreg free
  5472  003CB2  5005               	movf	?___lwmod^0,w,c
  5473  003CB4  6E0E               	movwf	write_2bytedata@uchr_dataL^0,c
  5474                           
  5475                           ;main.c: 1020:     uchr_dataH = data/100;
  5476  003CB6  C00C  F005         	movff	write_2bytedata@data,___lwdiv@dividend
  5477  003CBA  C00D  F006         	movff	write_2bytedata@data+1,___lwdiv@dividend+1
  5478  003CBE  0E00               	movlw	0
  5479  003CC0  6E08               	movwf	(___lwdiv@divisor+1)^0,c
  5480  003CC2  0E64               	movlw	100
  5481  003CC4  6E07               	movwf	___lwdiv@divisor^0,c
  5482  003CC6  ECA9  F01D         	call	___lwdiv	;wreg free
  5483  003CCA  5005               	movf	?___lwdiv^0,w,c
  5484  003CCC  6E0F               	movwf	write_2bytedata@uchr_dataH^0,c
  5485                           
  5486                           ;main.c: 1022:     DATAEE_WriteByte(addr,uchr_dataL);
  5487  003CCE  C010  F005         	movff	write_2bytedata@addr,DATAEE_WriteByte@bAdd
  5488  003CD2  6A06               	clrf	(DATAEE_WriteByte@bAdd+1)^0,c
  5489  003CD4  C00E  F007         	movff	write_2bytedata@uchr_dataL,DATAEE_WriteByte@bData
  5490  003CD8  EC9C  F01E         	call	_DATAEE_WriteByte	;wreg free
  5491                           
  5492                           ;main.c: 1023:     DATAEE_WriteByte(addr+1,uchr_dataH);
  5493  003CDC  0E01               	movlw	1
  5494  003CDE  2410               	addwf	write_2bytedata@addr^0,w,c
  5495  003CE0  6E05               	movwf	DATAEE_WriteByte@bAdd^0,c
  5496  003CE2  6A06               	clrf	(DATAEE_WriteByte@bAdd+1)^0,c
  5497  003CE4  0E00               	movlw	0
  5498  003CE6  2206               	addwfc	(DATAEE_WriteByte@bAdd+1)^0,f,c
  5499  003CE8  C00F  F007         	movff	write_2bytedata@uchr_dataH,DATAEE_WriteByte@bData
  5500  003CEC  EC9C  F01E         	call	_DATAEE_WriteByte	;wreg free
  5501  003CF0  0012               	return		;funcret
  5502  003CF2                     __end_of_write_2bytedata:
  5503                           	opt callstack 0
  5504                           
  5505 ;; *************** function ___lwmod *****************
  5506 ;; Defined at:
  5507 ;;		line 7 in file "C:\Program Files (x86)\Microchip\xc8\v2.10\pic\sources\c99\common\lwmod.c"
  5508 ;; Parameters:    Size  Location     Type
  5509 ;;  dividend        2    4[COMRAM] unsigned int 
  5510 ;;  divisor         2    6[COMRAM] unsigned int 
  5511 ;; Auto vars:     Size  Location     Type
  5512 ;;  counter         1    8[COMRAM] unsigned char 
  5513 ;; Return value:  Size  Location     Type
  5514 ;;                  2    4[COMRAM] unsigned int 
  5515 ;; Registers used:
  5516 ;;		wreg, status,2, status,0
  5517 ;; Tracked objects:
  5518 ;;		On entry : 0/0
  5519 ;;		On exit  : 0/0
  5520 ;;		Unchanged: 0/0
  5521 ;; Data sizes:     COMRAM   BANK0   BANK1   BANK2   BANK3   BANK4   BANK5   BANK6   BANK7   BANK8   BANK9  BANK10  BANK1
      +1  BANK12  BANK13  BANK14  BANK15
  5522 ;;      Params:         4       0       0       0       0       0       0       0       0       0       0       0       
      +0       0       0       0       0
  5523 ;;      Locals:         1       0       0       0       0       0       0       0       0       0       0       0       
      +0       0       0       0       0
  5524 ;;      Temps:          0       0       0       0       0       0       0       0       0       0       0       0       
      +0       0       0       0       0
  5525 ;;      Totals:         5       0       0       0       0       0       0       0       0       0       0       0       
      +0       0       0       0       0
  5526 ;;Total ram usage:        5 bytes
  5527 ;; Hardware stack levels used:    1
  5528 ;; Hardware stack levels required when called:    3
  5529 ;; This function calls:
  5530 ;;		Nothing
  5531 ;; This function is called by:
  5532 ;;		_ctrl_task
  5533 ;;		_write_2bytedata
  5534 ;;		_int2arr
  5535 ;;		_Int_7segdisplay
  5536 ;; This function uses a non-reentrant model
  5537 ;;
  5538                           
  5539                           	psect	text6
  5540  003C38                     __ptext6:
  5541                           	opt callstack 0
  5542  003C38                     ___lwmod:
  5543                           	opt callstack 25
  5544  003C38  5007               	movf	___lwmod@divisor^0,w,c
  5545  003C3A  1008               	iorwf	(___lwmod@divisor+1)^0,w,c
  5546  003C3C  B4D8               	btfsc	status,2,c
  5547  003C3E  EF23  F01E         	goto	u6061
  5548  003C42  EF25  F01E         	goto	u6060
  5549  003C46                     u6061:
  5550  003C46  EF49  F01E         	goto	l1712
  5551  003C4A                     u6060:
  5552  003C4A  0E01               	movlw	1
  5553  003C4C  6E09               	movwf	___lwmod@counter^0,c
  5554  003C4E  EF2D  F01E         	goto	l6994
  5555  003C52                     l6992:
  5556  003C52  90D8               	bcf	status,0,c
  5557  003C54  3607               	rlcf	___lwmod@divisor^0,f,c
  5558  003C56  3608               	rlcf	(___lwmod@divisor+1)^0,f,c
  5559  003C58  2A09               	incf	___lwmod@counter^0,f,c
  5560  003C5A                     l6994:
  5561  003C5A  AE08               	btfss	(___lwmod@divisor+1)^0,7,c
  5562  003C5C  EF32  F01E         	goto	u6071
  5563  003C60  EF34  F01E         	goto	u6070
  5564  003C64                     u6071:
  5565  003C64  EF29  F01E         	goto	l6992
  5566  003C68                     u6070:
  5567  003C68                     l6996:
  5568  003C68  5007               	movf	___lwmod@divisor^0,w,c
  5569  003C6A  5C05               	subwf	___lwmod@dividend^0,w,c
  5570  003C6C  5008               	movf	(___lwmod@divisor+1)^0,w,c
  5571  003C6E  5806               	subwfb	(___lwmod@dividend+1)^0,w,c
  5572  003C70  A0D8               	btfss	status,0,c
  5573  003C72  EF3D  F01E         	goto	u6081
  5574  003C76  EF3F  F01E         	goto	u6080
  5575  003C7A                     u6081:
  5576  003C7A  EF43  F01E         	goto	l7000
  5577  003C7E                     u6080:
  5578  003C7E  5007               	movf	___lwmod@divisor^0,w,c
  5579  003C80  5E05               	subwf	___lwmod@dividend^0,f,c
  5580  003C82  5008               	movf	(___lwmod@divisor+1)^0,w,c
  5581  003C84  5A06               	subwfb	(___lwmod@dividend+1)^0,f,c
  5582  003C86                     l7000:
  5583  003C86  90D8               	bcf	status,0,c
  5584  003C88  3208               	rrcf	(___lwmod@divisor+1)^0,f,c
  5585  003C8A  3207               	rrcf	___lwmod@divisor^0,f,c
  5586  003C8C  2E09               	decfsz	___lwmod@counter^0,f,c
  5587  003C8E  EF34  F01E         	goto	l6996
  5588  003C92                     l1712:
  5589  003C92  C005  F005         	movff	___lwmod@dividend,?___lwmod
  5590  003C96  C006  F006         	movff	___lwmod@dividend+1,?___lwmod+1
  5591  003C9A  0012               	return		;funcret
  5592  003C9C                     __end_of___lwmod:
  5593                           	opt callstack 0
  5594                           
  5595 ;; *************** function ___lwdiv *****************
  5596 ;; Defined at:
  5597 ;;		line 7 in file "C:\Program Files (x86)\Microchip\xc8\v2.10\pic\sources\c99\common\lwdiv.c"
  5598 ;; Parameters:    Size  Location     Type
  5599 ;;  dividend        2    4[COMRAM] unsigned int 
  5600 ;;  divisor         2    6[COMRAM] unsigned int 
  5601 ;; Auto vars:     Size  Location     Type
  5602 ;;  quotient        2    9[COMRAM] unsigned int 
  5603 ;;  counter         1    8[COMRAM] unsigned char 
  5604 ;; Return value:  Size  Location     Type
  5605 ;;                  2    4[COMRAM] unsigned int 
  5606 ;; Registers used:
  5607 ;;		wreg, status,2, status,0
  5608 ;; Tracked objects:
  5609 ;;		On entry : 0/0
  5610 ;;		On exit  : 0/0
  5611 ;;		Unchanged: 0/0
  5612 ;; Data sizes:     COMRAM   BANK0   BANK1   BANK2   BANK3   BANK4   BANK5   BANK6   BANK7   BANK8   BANK9  BANK10  BANK1
      +1  BANK12  BANK13  BANK14  BANK15
  5613 ;;      Params:         4       0       0       0       0       0       0       0       0       0       0       0       
      +0       0       0       0       0
  5614 ;;      Locals:         3       0       0       0       0       0       0       0       0       0       0       0       
      +0       0       0       0       0
  5615 ;;      Temps:          0       0       0       0       0       0       0       0       0       0       0       0       
      +0       0       0       0       0
  5616 ;;      Totals:         7       0       0       0       0       0       0       0       0       0       0       0       
      +0       0       0       0       0
  5617 ;;Total ram usage:        7 bytes
  5618 ;; Hardware stack levels used:    1
  5619 ;; Hardware stack levels required when called:    3
  5620 ;; This function calls:
  5621 ;;		Nothing
  5622 ;; This function is called by:
  5623 ;;		_ctrl_task
  5624 ;;		_write_2bytedata
  5625 ;;		_int2arr
  5626 ;;		_Int_7segdisplay
  5627 ;; This function uses a non-reentrant model
  5628 ;;
  5629                           
  5630                           	psect	text7
  5631  003B52                     __ptext7:
  5632                           	opt callstack 0
  5633  003B52                     ___lwdiv:
  5634                           	opt callstack 25
  5635  003B52  0E00               	movlw	0
  5636  003B54  6E0B               	movwf	(___lwdiv@quotient+1)^0,c
  5637  003B56  0E00               	movlw	0
  5638  003B58  6E0A               	movwf	___lwdiv@quotient^0,c
  5639  003B5A  5007               	movf	___lwdiv@divisor^0,w,c
  5640  003B5C  1008               	iorwf	(___lwdiv@divisor+1)^0,w,c
  5641  003B5E  B4D8               	btfsc	status,2,c
  5642  003B60  EFB4  F01D         	goto	u6031
  5643  003B64  EFB6  F01D         	goto	u6030
  5644  003B68                     u6031:
  5645  003B68  EFDE  F01D         	goto	l1702
  5646  003B6C                     u6030:
  5647  003B6C  0E01               	movlw	1
  5648  003B6E  6E09               	movwf	___lwdiv@counter^0,c
  5649  003B70  EFBE  F01D         	goto	l6974
  5650  003B74                     l6972:
  5651  003B74  90D8               	bcf	status,0,c
  5652  003B76  3607               	rlcf	___lwdiv@divisor^0,f,c
  5653  003B78  3608               	rlcf	(___lwdiv@divisor+1)^0,f,c
  5654  003B7A  2A09               	incf	___lwdiv@counter^0,f,c
  5655  003B7C                     l6974:
  5656  003B7C  AE08               	btfss	(___lwdiv@divisor+1)^0,7,c
  5657  003B7E  EFC3  F01D         	goto	u6041
  5658  003B82  EFC5  F01D         	goto	u6040
  5659  003B86                     u6041:
  5660  003B86  EFBA  F01D         	goto	l6972
  5661  003B8A                     u6040:
  5662  003B8A                     l6976:
  5663  003B8A  90D8               	bcf	status,0,c
  5664  003B8C  360A               	rlcf	___lwdiv@quotient^0,f,c
  5665  003B8E  360B               	rlcf	(___lwdiv@quotient+1)^0,f,c
  5666  003B90  5007               	movf	___lwdiv@divisor^0,w,c
  5667  003B92  5C05               	subwf	___lwdiv@dividend^0,w,c
  5668  003B94  5008               	movf	(___lwdiv@divisor+1)^0,w,c
  5669  003B96  5806               	subwfb	(___lwdiv@dividend+1)^0,w,c
  5670  003B98  A0D8               	btfss	status,0,c
  5671  003B9A  EFD1  F01D         	goto	u6051
  5672  003B9E  EFD3  F01D         	goto	u6050
  5673  003BA2                     u6051:
  5674  003BA2  EFD8  F01D         	goto	l6984
  5675  003BA6                     u6050:
  5676  003BA6  5007               	movf	___lwdiv@divisor^0,w,c
  5677  003BA8  5E05               	subwf	___lwdiv@dividend^0,f,c
  5678  003BAA  5008               	movf	(___lwdiv@divisor+1)^0,w,c
  5679  003BAC  5A06               	subwfb	(___lwdiv@dividend+1)^0,f,c
  5680  003BAE  800A               	bsf	___lwdiv@quotient^0,0,c
  5681  003BB0                     l6984:
  5682  003BB0  90D8               	bcf	status,0,c
  5683  003BB2  3208               	rrcf	(___lwdiv@divisor+1)^0,f,c
  5684  003BB4  3207               	rrcf	___lwdiv@divisor^0,f,c
  5685  003BB6  2E09               	decfsz	___lwdiv@counter^0,f,c
  5686  003BB8  EFC5  F01D         	goto	l6976
  5687  003BBC                     l1702:
  5688  003BBC  C00A  F005         	movff	___lwdiv@quotient,?___lwdiv
  5689  003BC0  C00B  F006         	movff	___lwdiv@quotient+1,?___lwdiv+1
  5690  003BC4  0012               	return		;funcret
  5691  003BC6                     __end_of___lwdiv:
  5692                           	opt callstack 0
  5693                           
  5694 ;; *************** function _DATAEE_WriteByte *****************
  5695 ;; Defined at:
  5696 ;;		line 176 in file "mcc_generated_files/memory.c"
  5697 ;; Parameters:    Size  Location     Type
  5698 ;;  bAdd            2    4[COMRAM] unsigned short 
  5699 ;;  bData           1    6[COMRAM] unsigned char 
  5700 ;; Auto vars:     Size  Location     Type
  5701 ;;  GIEBitValue     1    7[COMRAM] unsigned char 
  5702 ;; Return value:  Size  Location     Type
  5703 ;;                  1    wreg      void 
  5704 ;; Registers used:
  5705 ;;		wreg, status,2, status,0
  5706 ;; Tracked objects:
  5707 ;;		On entry : 0/0
  5708 ;;		On exit  : 0/0
  5709 ;;		Unchanged: 0/0
  5710 ;; Data sizes:     COMRAM   BANK0   BANK1   BANK2   BANK3   BANK4   BANK5   BANK6   BANK7   BANK8   BANK9  BANK10  BANK1
      +1  BANK12  BANK13  BANK14  BANK15
  5711 ;;      Params:         3       0       0       0       0       0       0       0       0       0       0       0       
      +0       0       0       0       0
  5712 ;;      Locals:         1       0       0       0       0       0       0       0       0       0       0       0       
      +0       0       0       0       0
  5713 ;;      Temps:          0       0       0       0       0       0       0       0       0       0       0       0       
      +0       0       0       0       0
  5714 ;;      Totals:         4       0       0       0       0       0       0       0       0       0       0       0       
      +0       0       0       0       0
  5715 ;;Total ram usage:        4 bytes
  5716 ;; Hardware stack levels used:    1
  5717 ;; Hardware stack levels required when called:    3
  5718 ;; This function calls:
  5719 ;;		Nothing
  5720 ;; This function is called by:
  5721 ;;		_write_2bytedata
  5722 ;; This function uses a non-reentrant model
  5723 ;;
  5724                           
  5725                           	psect	text8
  5726  003D38                     __ptext8:
  5727                           	opt callstack 0
  5728  003D38                     _DATAEE_WriteByte:
  5729                           	opt callstack 25
  5730  003D38                     
  5731                           ;mcc_generated_files/memory.c: 176: void DATAEE_WriteByte(uint16_t bAdd, uint8_t bData);
      +                          mcc_generated_files/memory.c: 177: {;mcc_generated_files/memory.c: 178:     uint8_t GIEB
      +                          itValue = INTCONbits.GIE;
  5732  003D38  0E00               	movlw	0
  5733  003D3A  BEF2               	btfsc	242,7,c	;volatile
  5734  003D3C  0E01               	movlw	1
  5735  003D3E  6E08               	movwf	DATAEE_WriteByte@GIEBitValue^0,c
  5736  003D40                     
  5737                           ;mcc_generated_files/memory.c: 180:     EEADRH = ((bAdd >> 8) & 0x03);
  5738  003D40  5006               	movf	(DATAEE_WriteByte@bAdd+1)^0,w,c
  5739  003D42  0B03               	andlw	3
  5740  003D44  6EAA               	movwf	170,c	;volatile
  5741  003D46                     
  5742                           ;mcc_generated_files/memory.c: 181:     EEADR = (bAdd & 0xFF);
  5743  003D46  C005  FFA9         	movff	DATAEE_WriteByte@bAdd,4009	;volatile
  5744  003D4A                     
  5745                           ;mcc_generated_files/memory.c: 182:     EEDATA = bData;
  5746  003D4A  C007  FFA8         	movff	DATAEE_WriteByte@bData,4008	;volatile
  5747  003D4E                     
  5748                           ;mcc_generated_files/memory.c: 183:     EECON1bits.EEPGD = 0;
  5749  003D4E  9EA6               	bcf	166,7,c	;volsfr
  5750  003D50                     
  5751                           ;mcc_generated_files/memory.c: 184:     EECON1bits.CFGS = 0;
  5752  003D50  9CA6               	bcf	166,6,c	;volsfr
  5753  003D52                     
  5754                           ;mcc_generated_files/memory.c: 185:     EECON1bits.WREN = 1;
  5755  003D52  84A6               	bsf	166,2,c	;volsfr
  5756  003D54                     
  5757                           ;mcc_generated_files/memory.c: 186:     INTCONbits.GIE = 0;
  5758  003D54  9EF2               	bcf	242,7,c	;volatile
  5759  003D56                     
  5760                           ;mcc_generated_files/memory.c: 187:     EECON2 = 0x55;
  5761  003D56  0E55               	movlw	85
  5762  003D58  6EA7               	movwf	167,c	;volsfr
  5763  003D5A                     
  5764                           ;mcc_generated_files/memory.c: 188:     EECON2 = 0xAA;
  5765  003D5A  0EAA               	movlw	170
  5766  003D5C  6EA7               	movwf	167,c	;volsfr
  5767  003D5E                     
  5768                           ;mcc_generated_files/memory.c: 189:     EECON1bits.WR = 1;
  5769  003D5E  82A6               	bsf	166,1,c	;volsfr
  5770  003D60                     l201:
  5771                           
  5772                           ;mcc_generated_files/memory.c: 191:     while (EECON1bits.WR)
  5773  003D60  B2A6               	btfsc	166,1,c	;volsfr
  5774  003D62  EFB5  F01E         	goto	u5791
  5775  003D66  EFB7  F01E         	goto	u5790
  5776  003D6A                     u5791:
  5777  003D6A  EFB0  F01E         	goto	l201
  5778  003D6E                     u5790:
  5779  003D6E                     
  5780                           ;mcc_generated_files/memory.c: 195:     EECON1bits.WREN = 0;
  5781  003D6E  94A6               	bcf	166,2,c	;volsfr
  5782                           
  5783                           ;mcc_generated_files/memory.c: 196:     INTCONbits.GIE = GIEBitValue;
  5784  003D70  B008               	btfsc	DATAEE_WriteByte@GIEBitValue^0,0,c
  5785  003D72  D002               	bra	u5805
  5786  003D74  9EF2               	bcf	242,7,c	;volatile
  5787  003D76  D001               	bra	u5806
  5788  003D78                     u5805:
  5789  003D78  8EF2               	bsf	242,7,c	;volatile
  5790  003D7A                     u5806:
  5791  003D7A  0012               	return		;funcret
  5792  003D7C                     __end_of_DATAEE_WriteByte:
  5793                           	opt callstack 0
  5794                           
  5795 ;; *************** function ___xxtofl *****************
  5796 ;; Defined at:
  5797 ;;		line 10 in file "C:\Program Files (x86)\Microchip\xc8\v2.10\pic\sources\c99\common\xxtofl.c"
  5798 ;; Parameters:    Size  Location     Type
  5799 ;;  sign            1    wreg     unsigned char 
  5800 ;;  val             4    9[COMRAM] long 
  5801 ;; Auto vars:     Size  Location     Type
  5802 ;;  sign            1   17[COMRAM] unsigned char 
  5803 ;;  arg             4   19[COMRAM] unsigned long 
  5804 ;;  exp             1   18[COMRAM] unsigned char 
  5805 ;; Return value:  Size  Location     Type
  5806 ;;                  4    9[COMRAM] unsigned char 
  5807 ;; Registers used:
  5808 ;;		wreg, status,2, status,0
  5809 ;; Tracked objects:
  5810 ;;		On entry : 0/0
  5811 ;;		On exit  : 0/0
  5812 ;;		Unchanged: 0/0
  5813 ;; Data sizes:     COMRAM   BANK0   BANK1   BANK2   BANK3   BANK4   BANK5   BANK6   BANK7   BANK8   BANK9  BANK10  BANK1
      +1  BANK12  BANK13  BANK14  BANK15
  5814 ;;      Params:         4       0       0       0       0       0       0       0       0       0       0       0       
      +0       0       0       0       0
  5815 ;;      Locals:         6       0       0       0       0       0       0       0       0       0       0       0       
      +0       0       0       0       0
  5816 ;;      Temps:          4       0       0       0       0       0       0       0       0       0       0       0       
      +0       0       0       0       0
  5817 ;;      Totals:        14       0       0       0       0       0       0       0       0       0       0       0       
      +0       0       0       0       0
  5818 ;;Total ram usage:       14 bytes
  5819 ;; Hardware stack levels used:    1
  5820 ;; Hardware stack levels required when called:    3
  5821 ;; This function calls:
  5822 ;;		Nothing
  5823 ;; This function is called by:
  5824 ;;		_main
  5825 ;;		_ctrl_task
  5826 ;; This function uses a non-reentrant model
  5827 ;;
  5828                           
  5829                           	psect	text9
  5830  002E8C                     __ptext9:
  5831                           	opt callstack 0
  5832  002E8C                     ___xxtofl:
  5833                           	opt callstack 26
  5834                           
  5835                           ;incstack = 0
  5836                           ;___xxtofl@sign stored from wreg
  5837  002E8C  6E12               	movwf	___xxtofl@sign^0,c
  5838  002E8E  5012               	movf	___xxtofl@sign^0,w,c
  5839  002E90  B4D8               	btfsc	status,2,c
  5840  002E92  EF4D  F017         	goto	u6531
  5841  002E96  EF4F  F017         	goto	u6530
  5842  002E9A                     u6531:
  5843  002E9A  EF71  F017         	goto	l1866
  5844  002E9E                     u6530:
  5845  002E9E  BE0D               	btfsc	(___xxtofl@val+3)^0,7,c
  5846  002EA0  EF56  F017         	goto	u6540
  5847  002EA4  EF54  F017         	goto	u6541
  5848  002EA8                     u6541:
  5849  002EA8  EF71  F017         	goto	l1866
  5850  002EAC                     u6540:
  5851  002EAC  C00A  F00E         	movff	___xxtofl@val,??___xxtofl
  5852  002EB0  C00B  F00F         	movff	___xxtofl@val+1,??___xxtofl+1
  5853  002EB4  C00C  F010         	movff	___xxtofl@val+2,??___xxtofl+2
  5854  002EB8  C00D  F011         	movff	___xxtofl@val+3,??___xxtofl+3
  5855  002EBC  1E0E               	comf	??___xxtofl^0,f,c
  5856  002EBE  1E0F               	comf	(??___xxtofl+1)^0,f,c
  5857  002EC0  1E10               	comf	(??___xxtofl+2)^0,f,c
  5858  002EC2  1E11               	comf	(??___xxtofl+3)^0,f,c
  5859  002EC4  2A0E               	incf	??___xxtofl^0,f,c
  5860  002EC6  0E00               	movlw	0
  5861  002EC8  220F               	addwfc	(??___xxtofl+1)^0,f,c
  5862  002ECA  2210               	addwfc	(??___xxtofl+2)^0,f,c
  5863  002ECC  2211               	addwfc	(??___xxtofl+3)^0,f,c
  5864  002ECE  C00E  F014         	movff	??___xxtofl,___xxtofl@arg
  5865  002ED2  C00F  F015         	movff	??___xxtofl+1,___xxtofl@arg+1
  5866  002ED6  C010  F016         	movff	??___xxtofl+2,___xxtofl@arg+2
  5867  002EDA  C011  F017         	movff	??___xxtofl+3,___xxtofl@arg+3
  5868  002EDE  EF79  F017         	goto	l7328
  5869  002EE2                     l1866:
  5870  002EE2  C00A  F014         	movff	___xxtofl@val,___xxtofl@arg
  5871  002EE6  C00B  F015         	movff	___xxtofl@val+1,___xxtofl@arg+1
  5872  002EEA  C00C  F016         	movff	___xxtofl@val+2,___xxtofl@arg+2
  5873  002EEE  C00D  F017         	movff	___xxtofl@val+3,___xxtofl@arg+3
  5874  002EF2                     l7328:
  5875  002EF2  500A               	movf	___xxtofl@val^0,w,c
  5876  002EF4  100B               	iorwf	(___xxtofl@val+1)^0,w,c
  5877  002EF6  100C               	iorwf	(___xxtofl@val+2)^0,w,c
  5878  002EF8  100D               	iorwf	(___xxtofl@val+3)^0,w,c
  5879  002EFA  A4D8               	btfss	status,2,c
  5880  002EFC  EF82  F017         	goto	u6551
  5881  002F00  EF84  F017         	goto	u6550
  5882  002F04                     u6551:
  5883  002F04  EF8E  F017         	goto	l7334
  5884  002F08                     u6550:
  5885  002F08  0E00               	movlw	0
  5886  002F0A  6E0A               	movwf	?___xxtofl^0,c
  5887  002F0C  0E00               	movlw	0
  5888  002F0E  6E0B               	movwf	(?___xxtofl+1)^0,c
  5889  002F10  0E00               	movlw	0
  5890  002F12  6E0C               	movwf	(?___xxtofl+2)^0,c
  5891  002F14  0E00               	movlw	0
  5892  002F16  6E0D               	movwf	(?___xxtofl+3)^0,c
  5893  002F18  EF1F  F018         	goto	l1869
  5894  002F1C                     l7334:
  5895  002F1C  0E96               	movlw	150
  5896  002F1E  6E13               	movwf	___xxtofl@exp^0,c
  5897  002F20  EF98  F017         	goto	l7338
  5898  002F24                     l7336:
  5899  002F24  2A13               	incf	___xxtofl@exp^0,f,c
  5900  002F26  90D8               	bcf	status,0,c
  5901  002F28  3217               	rrcf	(___xxtofl@arg+3)^0,f,c
  5902  002F2A  3216               	rrcf	(___xxtofl@arg+2)^0,f,c
  5903  002F2C  3215               	rrcf	(___xxtofl@arg+1)^0,f,c
  5904  002F2E  3214               	rrcf	___xxtofl@arg^0,f,c
  5905  002F30                     l7338:
  5906  002F30  0E00               	movlw	0
  5907  002F32  1414               	andwf	___xxtofl@arg^0,w,c
  5908  002F34  6E0E               	movwf	??___xxtofl^0,c
  5909  002F36  0E00               	movlw	0
  5910  002F38  1415               	andwf	(___xxtofl@arg+1)^0,w,c
  5911  002F3A  6E0F               	movwf	(??___xxtofl+1)^0,c
  5912  002F3C  0E00               	movlw	0
  5913  002F3E  1416               	andwf	(___xxtofl@arg+2)^0,w,c
  5914  002F40  6E10               	movwf	(??___xxtofl+2)^0,c
  5915  002F42  0EFE               	movlw	254
  5916  002F44  1417               	andwf	(___xxtofl@arg+3)^0,w,c
  5917  002F46  6E11               	movwf	(??___xxtofl+3)^0,c
  5918  002F48  500E               	movf	??___xxtofl^0,w,c
  5919  002F4A  100F               	iorwf	(??___xxtofl+1)^0,w,c
  5920  002F4C  1010               	iorwf	(??___xxtofl+2)^0,w,c
  5921  002F4E  1011               	iorwf	(??___xxtofl+3)^0,w,c
  5922  002F50  A4D8               	btfss	status,2,c
  5923  002F52  EFAD  F017         	goto	u6561
  5924  002F56  EFAF  F017         	goto	u6560
  5925  002F5A                     u6561:
  5926  002F5A  EF92  F017         	goto	l7336
  5927  002F5E                     u6560:
  5928  002F5E  EFBD  F017         	goto	l1873
  5929  002F62                     l7340:
  5930  002F62  2A13               	incf	___xxtofl@exp^0,f,c
  5931  002F64  0E01               	movlw	1
  5932  002F66  2614               	addwf	___xxtofl@arg^0,f,c
  5933  002F68  0E00               	movlw	0
  5934  002F6A  2215               	addwfc	(___xxtofl@arg+1)^0,f,c
  5935  002F6C  2216               	addwfc	(___xxtofl@arg+2)^0,f,c
  5936  002F6E  2217               	addwfc	(___xxtofl@arg+3)^0,f,c
  5937  002F70  90D8               	bcf	status,0,c
  5938  002F72  3217               	rrcf	(___xxtofl@arg+3)^0,f,c
  5939  002F74  3216               	rrcf	(___xxtofl@arg+2)^0,f,c
  5940  002F76  3215               	rrcf	(___xxtofl@arg+1)^0,f,c
  5941  002F78  3214               	rrcf	___xxtofl@arg^0,f,c
  5942  002F7A                     l1873:
  5943  002F7A  0E00               	movlw	0
  5944  002F7C  1414               	andwf	___xxtofl@arg^0,w,c
  5945  002F7E  6E0E               	movwf	??___xxtofl^0,c
  5946  002F80  0E00               	movlw	0
  5947  002F82  1415               	andwf	(___xxtofl@arg+1)^0,w,c
  5948  002F84  6E0F               	movwf	(??___xxtofl+1)^0,c
  5949  002F86  0E00               	movlw	0
  5950  002F88  1416               	andwf	(___xxtofl@arg+2)^0,w,c
  5951  002F8A  6E10               	movwf	(??___xxtofl+2)^0,c
  5952  002F8C  0EFF               	movlw	255
  5953  002F8E  1417               	andwf	(___xxtofl@arg+3)^0,w,c
  5954  002F90  6E11               	movwf	(??___xxtofl+3)^0,c
  5955  002F92  500E               	movf	??___xxtofl^0,w,c
  5956  002F94  100F               	iorwf	(??___xxtofl+1)^0,w,c
  5957  002F96  1010               	iorwf	(??___xxtofl+2)^0,w,c
  5958  002F98  1011               	iorwf	(??___xxtofl+3)^0,w,c
  5959  002F9A  A4D8               	btfss	status,2,c
  5960  002F9C  EFD2  F017         	goto	u6571
  5961  002FA0  EFD4  F017         	goto	u6570
  5962  002FA4                     u6571:
  5963  002FA4  EFB1  F017         	goto	l7340
  5964  002FA8                     u6570:
  5965  002FA8  EFDC  F017         	goto	l7348
  5966  002FAC                     l7346:
  5967  002FAC  0613               	decf	___xxtofl@exp^0,f,c
  5968  002FAE  90D8               	bcf	status,0,c
  5969  002FB0  3614               	rlcf	___xxtofl@arg^0,f,c
  5970  002FB2  3615               	rlcf	(___xxtofl@arg+1)^0,f,c
  5971  002FB4  3616               	rlcf	(___xxtofl@arg+2)^0,f,c
  5972  002FB6  3617               	rlcf	(___xxtofl@arg+3)^0,f,c
  5973  002FB8                     l7348:
  5974  002FB8  BE16               	btfsc	(___xxtofl@arg+2)^0,7,c
  5975  002FBA  EFE1  F017         	goto	u6581
  5976  002FBE  EFE3  F017         	goto	u6580
  5977  002FC2                     u6581:
  5978  002FC2  EFEB  F017         	goto	l1880
  5979  002FC6                     u6580:
  5980  002FC6  0E02               	movlw	2
  5981  002FC8  6013               	cpfslt	___xxtofl@exp^0,c
  5982  002FCA  EFE9  F017         	goto	u6591
  5983  002FCE  EFEB  F017         	goto	u6590
  5984  002FD2                     u6591:
  5985  002FD2  EFD6  F017         	goto	l7346
  5986  002FD6                     u6590:
  5987  002FD6                     l1880:
  5988  002FD6  B013               	btfsc	___xxtofl@exp^0,0,c
  5989  002FD8  EFF0  F017         	goto	u6601
  5990  002FDC  EFF2  F017         	goto	u6600
  5991  002FE0                     u6601:
  5992  002FE0  EFF3  F017         	goto	l7354
  5993  002FE4                     u6600:
  5994  002FE4  9E16               	bcf	(___xxtofl@arg+2)^0,7,c
  5995  002FE6                     l7354:
  5996  002FE6  90D8               	bcf	status,0,c
  5997  002FE8  3213               	rrcf	___xxtofl@exp^0,f,c
  5998  002FEA  C013  F00E         	movff	___xxtofl@exp,??___xxtofl
  5999  002FEE  6A0F               	clrf	(??___xxtofl+1)^0,c
  6000  002FF0  6A10               	clrf	(??___xxtofl+2)^0,c
  6001  002FF2  6A11               	clrf	(??___xxtofl+3)^0,c
  6002  002FF4  C00E  F011         	movff	??___xxtofl,??___xxtofl+3
  6003  002FF8  6A10               	clrf	(??___xxtofl+2)^0,c
  6004  002FFA  6A0F               	clrf	(??___xxtofl+1)^0,c
  6005  002FFC  6A0E               	clrf	??___xxtofl^0,c
  6006  002FFE  500E               	movf	??___xxtofl^0,w,c
  6007  003000  1214               	iorwf	___xxtofl@arg^0,f,c
  6008  003002  500F               	movf	(??___xxtofl+1)^0,w,c
  6009  003004  1215               	iorwf	(___xxtofl@arg+1)^0,f,c
  6010  003006  5010               	movf	(??___xxtofl+2)^0,w,c
  6011  003008  1216               	iorwf	(___xxtofl@arg+2)^0,f,c
  6012  00300A  5011               	movf	(??___xxtofl+3)^0,w,c
  6013  00300C  1217               	iorwf	(___xxtofl@arg+3)^0,f,c
  6014  00300E  5012               	movf	___xxtofl@sign^0,w,c
  6015  003010  B4D8               	btfsc	status,2,c
  6016  003012  EF0D  F018         	goto	u6611
  6017  003016  EF0F  F018         	goto	u6610
  6018  00301A                     u6611:
  6019  00301A  EF17  F018         	goto	l7364
  6020  00301E                     u6610:
  6021  00301E  BE0D               	btfsc	(___xxtofl@val+3)^0,7,c
  6022  003020  EF16  F018         	goto	u6620
  6023  003024  EF14  F018         	goto	u6621
  6024  003028                     u6621:
  6025  003028  EF17  F018         	goto	l7364
  6026  00302C                     u6620:
  6027  00302C  8E17               	bsf	(___xxtofl@arg+3)^0,7,c
  6028  00302E                     l7364:
  6029  00302E  C014  F00A         	movff	___xxtofl@arg,?___xxtofl
  6030  003032  C015  F00B         	movff	___xxtofl@arg+1,?___xxtofl+1
  6031  003036  C016  F00C         	movff	___xxtofl@arg+2,?___xxtofl+2
  6032  00303A  C017  F00D         	movff	___xxtofl@arg+3,?___xxtofl+3
  6033  00303E                     l1869:
  6034  00303E  0012               	return		;funcret
  6035  003040                     __end_of___xxtofl:
  6036                           	opt callstack 0
  6037                           
  6038 ;; *************** function ___fltol *****************
  6039 ;; Defined at:
  6040 ;;		line 43 in file "C:\Program Files (x86)\Microchip\xc8\v2.10\pic\sources\c99\common\fltol.c"
  6041 ;; Parameters:    Size  Location     Type
  6042 ;;  f1              4    4[COMRAM] unsigned char 
  6043 ;; Auto vars:     Size  Location     Type
  6044 ;;  exp1            1   13[COMRAM] unsigned char 
  6045 ;;  sign1           1   12[COMRAM] unsigned char 
  6046 ;; Return value:  Size  Location     Type
  6047 ;;                  4    4[COMRAM] long 
  6048 ;; Registers used:
  6049 ;;		wreg, status,2, status,0
  6050 ;; Tracked objects:
  6051 ;;		On entry : 0/0
  6052 ;;		On exit  : 0/0
  6053 ;;		Unchanged: 0/0
  6054 ;; Data sizes:     COMRAM   BANK0   BANK1   BANK2   BANK3   BANK4   BANK5   BANK6   BANK7   BANK8   BANK9  BANK10  BANK1
      +1  BANK12  BANK13  BANK14  BANK15
  6055 ;;      Params:         4       0       0       0       0       0       0       0       0       0       0       0       
      +0       0       0       0       0
  6056 ;;      Locals:         2       0       0       0       0       0       0       0       0       0       0       0       
      +0       0       0       0       0
  6057 ;;      Temps:          4       0       0       0       0       0       0       0       0       0       0       0       
      +0       0       0       0       0
  6058 ;;      Totals:        10       0       0       0       0       0       0       0       0       0       0       0       
      +0       0       0       0       0
  6059 ;;Total ram usage:       10 bytes
  6060 ;; Hardware stack levels used:    1
  6061 ;; Hardware stack levels required when called:    3
  6062 ;; This function calls:
  6063 ;;		Nothing
  6064 ;; This function is called by:
  6065 ;;		_main
  6066 ;;		_ctrl_task
  6067 ;; This function uses a non-reentrant model
  6068 ;;
  6069                           
  6070                           	psect	text10
  6071  0034B0                     __ptext10:
  6072                           	opt callstack 0
  6073  0034B0                     ___fltol:
  6074                           	opt callstack 26
  6075  0034B0  3407               	rlcf	(___fltol@f1+2)^0,w,c
  6076  0034B2  3408               	rlcf	(___fltol@f1+3)^0,w,c
  6077  0034B4  6E0E               	movwf	___fltol@exp1^0,c
  6078  0034B6  500E               	movf	___fltol@exp1^0,w,c
  6079  0034B8  A4D8               	btfss	status,2,c
  6080  0034BA  EF61  F01A         	goto	u6461
  6081  0034BE  EF63  F01A         	goto	u6460
  6082  0034C2                     u6461:
  6083  0034C2  EF6D  F01A         	goto	l7284
  6084  0034C6                     u6460:
  6085  0034C6                     l7280:
  6086  0034C6  0E00               	movlw	0
  6087  0034C8  6E05               	movwf	?___fltol^0,c
  6088  0034CA  0E00               	movlw	0
  6089  0034CC  6E06               	movwf	(?___fltol+1)^0,c
  6090  0034CE  0E00               	movlw	0
  6091  0034D0  6E07               	movwf	(?___fltol+2)^0,c
  6092  0034D2  0E00               	movlw	0
  6093  0034D4  6E08               	movwf	(?___fltol+3)^0,c
  6094  0034D6  EFDA  F01A         	goto	l1508
  6095  0034DA                     l7284:
  6096  0034DA  C005  F009         	movff	___fltol@f1,??___fltol
  6097  0034DE  C006  F00A         	movff	___fltol@f1+1,??___fltol+1
  6098  0034E2  C007  F00B         	movff	___fltol@f1+2,??___fltol+2
  6099  0034E6  C008  F00C         	movff	___fltol@f1+3,??___fltol+3
  6100  0034EA  0E20               	movlw	32
  6101  0034EC  EF7D  F01A         	goto	u6470
  6102  0034F0                     u6475:
  6103  0034F0  90D8               	bcf	status,0,c
  6104  0034F2  320C               	rrcf	(??___fltol+3)^0,f,c
  6105  0034F4  320B               	rrcf	(??___fltol+2)^0,f,c
  6106  0034F6  320A               	rrcf	(??___fltol+1)^0,f,c
  6107  0034F8  3209               	rrcf	??___fltol^0,f,c
  6108  0034FA                     u6470:
  6109  0034FA  2EE8               	decfsz	wreg,f,c
  6110  0034FC  EF78  F01A         	goto	u6475
  6111  003500  5009               	movf	??___fltol^0,w,c
  6112  003502  6E0D               	movwf	___fltol@sign1^0,c
  6113  003504  8E07               	bsf	(___fltol@f1+2)^0,7,c
  6114  003506  0EFF               	movlw	255
  6115  003508  1605               	andwf	___fltol@f1^0,f,c
  6116  00350A  0EFF               	movlw	255
  6117  00350C  1606               	andwf	(___fltol@f1+1)^0,f,c
  6118  00350E  0EFF               	movlw	255
  6119  003510  1607               	andwf	(___fltol@f1+2)^0,f,c
  6120  003512  0E00               	movlw	0
  6121  003514  1608               	andwf	(___fltol@f1+3)^0,f,c
  6122  003516  0E96               	movlw	150
  6123  003518  5E0E               	subwf	___fltol@exp1^0,f,c
  6124  00351A  BE0E               	btfsc	___fltol@exp1^0,7,c
  6125  00351C  EF94  F01A         	goto	u6480
  6126  003520  EF92  F01A         	goto	u6481
  6127  003524                     u6481:
  6128  003524  EFAA  F01A         	goto	l7304
  6129  003528                     u6480:
  6130  003528  500E               	movf	___fltol@exp1^0,w,c
  6131  00352A  0A80               	xorlw	128
  6132  00352C  0F97               	addlw	151
  6133  00352E  B0D8               	btfsc	status,0,c
  6134  003530  EF9C  F01A         	goto	u6491
  6135  003534  EF9E  F01A         	goto	u6490
  6136  003538                     u6491:
  6137  003538  EFA0  F01A         	goto	l7300
  6138  00353C                     u6490:
  6139  00353C  EF63  F01A         	goto	l7280
  6140  003540                     l7300:
  6141  003540  90D8               	bcf	status,0,c
  6142  003542  3208               	rrcf	(___fltol@f1+3)^0,f,c
  6143  003544  3207               	rrcf	(___fltol@f1+2)^0,f,c
  6144  003546  3206               	rrcf	(___fltol@f1+1)^0,f,c
  6145  003548  3205               	rrcf	___fltol@f1^0,f,c
  6146  00354A  3E0E               	incfsz	___fltol@exp1^0,f,c
  6147  00354C  EFA0  F01A         	goto	l7300
  6148  003550  EFC2  F01A         	goto	l7314
  6149  003554                     l7304:
  6150  003554  0E1F               	movlw	31
  6151  003556  640E               	cpfsgt	___fltol@exp1^0,c
  6152  003558  EFB0  F01A         	goto	u6501
  6153  00355C  EFB2  F01A         	goto	u6500
  6154  003560                     u6501:
  6155  003560  EFBA  F01A         	goto	l7312
  6156  003564                     u6500:
  6157  003564  EF63  F01A         	goto	l7280
  6158  003568                     l7310:
  6159  003568  90D8               	bcf	status,0,c
  6160  00356A  3605               	rlcf	___fltol@f1^0,f,c
  6161  00356C  3606               	rlcf	(___fltol@f1+1)^0,f,c
  6162  00356E  3607               	rlcf	(___fltol@f1+2)^0,f,c
  6163  003570  3608               	rlcf	(___fltol@f1+3)^0,f,c
  6164  003572  060E               	decf	___fltol@exp1^0,f,c
  6165  003574                     l7312:
  6166  003574  500E               	movf	___fltol@exp1^0,w,c
  6167  003576  A4D8               	btfss	status,2,c
  6168  003578  EFC0  F01A         	goto	u6511
  6169  00357C  EFC2  F01A         	goto	u6510
  6170  003580                     u6511:
  6171  003580  EFB4  F01A         	goto	l7310
  6172  003584                     u6510:
  6173  003584                     l7314:
  6174  003584  500D               	movf	___fltol@sign1^0,w,c
  6175  003586  B4D8               	btfsc	status,2,c
  6176  003588  EFC8  F01A         	goto	u6521
  6177  00358C  EFCA  F01A         	goto	u6520
  6178  003590                     u6521:
  6179  003590  EFD2  F01A         	goto	l7318
  6180  003594                     u6520:
  6181  003594  1E08               	comf	(___fltol@f1+3)^0,f,c
  6182  003596  1E07               	comf	(___fltol@f1+2)^0,f,c
  6183  003598  1E06               	comf	(___fltol@f1+1)^0,f,c
  6184  00359A  6C05               	negf	___fltol@f1^0,c
  6185  00359C  0E00               	movlw	0
  6186  00359E  2206               	addwfc	(___fltol@f1+1)^0,f,c
  6187  0035A0  2207               	addwfc	(___fltol@f1+2)^0,f,c
  6188  0035A2  2208               	addwfc	(___fltol@f1+3)^0,f,c
  6189  0035A4                     l7318:
  6190  0035A4  C005  F005         	movff	___fltol@f1,?___fltol
  6191  0035A8  C006  F006         	movff	___fltol@f1+1,?___fltol+1
  6192  0035AC  C007  F007         	movff	___fltol@f1+2,?___fltol+2
  6193  0035B0  C008  F008         	movff	___fltol@f1+3,?___fltol+3
  6194  0035B4                     l1508:
  6195  0035B4  0012               	return		;funcret
  6196  0035B6                     __end_of___fltol:
  6197                           	opt callstack 0
  6198                           
  6199 ;; *************** function ___flmul *****************
  6200 ;; Defined at:
  6201 ;;		line 8 in file "C:\Program Files (x86)\Microchip\xc8\v2.10\pic\sources\c99\common\sprcmul.c"
  6202 ;; Parameters:    Size  Location     Type
  6203 ;;  b               4   23[COMRAM] long 
  6204 ;;  a               4   27[COMRAM] long 
  6205 ;; Auto vars:     Size  Location     Type
  6206 ;;  prod            4   42[COMRAM] struct .
  6207 ;;  grs             4   37[COMRAM] unsigned long 
  6208 ;;  temp            2   46[COMRAM] struct .
  6209 ;;  bexp            1   41[COMRAM] unsigned char 
  6210 ;;  aexp            1   36[COMRAM] unsigned char 
  6211 ;;  sign            1   35[COMRAM] unsigned char 
  6212 ;; Return value:  Size  Location     Type
  6213 ;;                  4   23[COMRAM] unsigned char 
  6214 ;; Registers used:
  6215 ;;		wreg, status,2, status,0, prodl, prodh
  6216 ;; Tracked objects:
  6217 ;;		On entry : 0/0
  6218 ;;		On exit  : 0/0
  6219 ;;		Unchanged: 0/0
  6220 ;; Data sizes:     COMRAM   BANK0   BANK1   BANK2   BANK3   BANK4   BANK5   BANK6   BANK7   BANK8   BANK9  BANK10  BANK1
      +1  BANK12  BANK13  BANK14  BANK15
  6221 ;;      Params:         8       0       0       0       0       0       0       0       0       0       0       0       
      +0       0       0       0       0
  6222 ;;      Locals:        13       0       0       0       0       0       0       0       0       0       0       0       
      +0       0       0       0       0
  6223 ;;      Temps:          4       0       0       0       0       0       0       0       0       0       0       0       
      +0       0       0       0       0
  6224 ;;      Totals:        25       0       0       0       0       0       0       0       0       0       0       0       
      +0       0       0       0       0
  6225 ;;Total ram usage:       25 bytes
  6226 ;; Hardware stack levels used:    1
  6227 ;; Hardware stack levels required when called:    3
  6228 ;; This function calls:
  6229 ;;		Nothing
  6230 ;; This function is called by:
  6231 ;;		_main
  6232 ;;		_ctrl_task
  6233 ;;		_low_pass_filter
  6234 ;;		_lowPassExponential
  6235 ;; This function uses a non-reentrant model
  6236 ;;
  6237                           
  6238                           	psect	text11
  6239  00243E                     __ptext11:
  6240                           	opt callstack 0
  6241  00243E                     ___flmul:
  6242                           	opt callstack 25
  6243  00243E  501B               	movf	(___flmul@b+3)^0,w,c
  6244  002440  0B80               	andlw	128
  6245  002442  6E24               	movwf	___flmul@sign^0,c
  6246  002444  501B               	movf	(___flmul@b+3)^0,w,c
  6247  002446  241B               	addwf	(___flmul@b+3)^0,w,c
  6248  002448  6E2A               	movwf	___flmul@bexp^0,c
  6249  00244A  AE1A               	btfss	(___flmul@b+2)^0,7,c
  6250  00244C  EF2A  F012         	goto	u5841
  6251  002450  EF2C  F012         	goto	u5840
  6252  002454                     u5841:
  6253  002454  EF2D  F012         	goto	l6836
  6254  002458                     u5840:
  6255  002458  802A               	bsf	___flmul@bexp^0,0,c
  6256  00245A                     l6836:
  6257  00245A  502A               	movf	___flmul@bexp^0,w,c
  6258  00245C  B4D8               	btfsc	status,2,c
  6259  00245E  EF33  F012         	goto	u5851
  6260  002462  EF35  F012         	goto	u5850
  6261  002466                     u5851:
  6262  002466  EF48  F012         	goto	l6844
  6263  00246A                     u5850:
  6264  00246A  282A               	incf	___flmul@bexp^0,w,c
  6265  00246C  A4D8               	btfss	status,2,c
  6266  00246E  EF3B  F012         	goto	u5861
  6267  002472  EF3D  F012         	goto	u5860
  6268  002476                     u5861:
  6269  002476  EF45  F012         	goto	l6842
  6270  00247A                     u5860:
  6271  00247A  0E00               	movlw	0
  6272  00247C  6E18               	movwf	___flmul@b^0,c
  6273  00247E  0E00               	movlw	0
  6274  002480  6E19               	movwf	(___flmul@b+1)^0,c
  6275  002482  0E00               	movlw	0
  6276  002484  6E1A               	movwf	(___flmul@b+2)^0,c
  6277  002486  0E00               	movlw	0
  6278  002488  6E1B               	movwf	(___flmul@b+3)^0,c
  6279  00248A                     l6842:
  6280  00248A  8E1A               	bsf	(___flmul@b+2)^0,7,c
  6281  00248C  EF50  F012         	goto	l6846
  6282  002490                     l6844:
  6283  002490  0E00               	movlw	0
  6284  002492  6E18               	movwf	___flmul@b^0,c
  6285  002494  0E00               	movlw	0
  6286  002496  6E19               	movwf	(___flmul@b+1)^0,c
  6287  002498  0E00               	movlw	0
  6288  00249A  6E1A               	movwf	(___flmul@b+2)^0,c
  6289  00249C  0E00               	movlw	0
  6290  00249E  6E1B               	movwf	(___flmul@b+3)^0,c
  6291  0024A0                     l6846:
  6292  0024A0  501F               	movf	(___flmul@a+3)^0,w,c
  6293  0024A2  0B80               	andlw	128
  6294  0024A4  1A24               	xorwf	___flmul@sign^0,f,c
  6295  0024A6  501F               	movf	(___flmul@a+3)^0,w,c
  6296  0024A8  241F               	addwf	(___flmul@a+3)^0,w,c
  6297  0024AA  6E25               	movwf	___flmul@aexp^0,c
  6298  0024AC  AE1E               	btfss	(___flmul@a+2)^0,7,c
  6299  0024AE  EF5B  F012         	goto	u5871
  6300  0024B2  EF5D  F012         	goto	u5870
  6301  0024B6                     u5871:
  6302  0024B6  EF5E  F012         	goto	l6854
  6303  0024BA                     u5870:
  6304  0024BA  8025               	bsf	___flmul@aexp^0,0,c
  6305  0024BC                     l6854:
  6306  0024BC  5025               	movf	___flmul@aexp^0,w,c
  6307  0024BE  B4D8               	btfsc	status,2,c
  6308  0024C0  EF64  F012         	goto	u5881
  6309  0024C4  EF66  F012         	goto	u5880
  6310  0024C8                     u5881:
  6311  0024C8  EF79  F012         	goto	l6862
  6312  0024CC                     u5880:
  6313  0024CC  2825               	incf	___flmul@aexp^0,w,c
  6314  0024CE  A4D8               	btfss	status,2,c
  6315  0024D0  EF6C  F012         	goto	u5891
  6316  0024D4  EF6E  F012         	goto	u5890
  6317  0024D8                     u5891:
  6318  0024D8  EF76  F012         	goto	l6860
  6319  0024DC                     u5890:
  6320  0024DC  0E00               	movlw	0
  6321  0024DE  6E1C               	movwf	___flmul@a^0,c
  6322  0024E0  0E00               	movlw	0
  6323  0024E2  6E1D               	movwf	(___flmul@a+1)^0,c
  6324  0024E4  0E00               	movlw	0
  6325  0024E6  6E1E               	movwf	(___flmul@a+2)^0,c
  6326  0024E8  0E00               	movlw	0
  6327  0024EA  6E1F               	movwf	(___flmul@a+3)^0,c
  6328  0024EC                     l6860:
  6329  0024EC  8E1E               	bsf	(___flmul@a+2)^0,7,c
  6330  0024EE  EF81  F012         	goto	l1825
  6331  0024F2                     l6862:
  6332  0024F2  0E00               	movlw	0
  6333  0024F4  6E1C               	movwf	___flmul@a^0,c
  6334  0024F6  0E00               	movlw	0
  6335  0024F8  6E1D               	movwf	(___flmul@a+1)^0,c
  6336  0024FA  0E00               	movlw	0
  6337  0024FC  6E1E               	movwf	(___flmul@a+2)^0,c
  6338  0024FE  0E00               	movlw	0
  6339  002500  6E1F               	movwf	(___flmul@a+3)^0,c
  6340  002502                     l1825:
  6341  002502  5025               	movf	___flmul@aexp^0,w,c
  6342  002504  B4D8               	btfsc	status,2,c
  6343  002506  EF87  F012         	goto	u5901
  6344  00250A  EF89  F012         	goto	u5900
  6345  00250E                     u5901:
  6346  00250E  EF91  F012         	goto	l6866
  6347  002512                     u5900:
  6348  002512  502A               	movf	___flmul@bexp^0,w,c
  6349  002514  A4D8               	btfss	status,2,c
  6350  002516  EF8F  F012         	goto	u5911
  6351  00251A  EF91  F012         	goto	u5910
  6352  00251E                     u5911:
  6353  00251E  EF9B  F012         	goto	l6870
  6354  002522                     u5910:
  6355  002522                     l6866:
  6356  002522  0E00               	movlw	0
  6357  002524  6E18               	movwf	?___flmul^0,c
  6358  002526  0E00               	movlw	0
  6359  002528  6E19               	movwf	(?___flmul+1)^0,c
  6360  00252A  0E00               	movlw	0
  6361  00252C  6E1A               	movwf	(?___flmul+2)^0,c
  6362  00252E  0E00               	movlw	0
  6363  002530  6E1B               	movwf	(?___flmul+3)^0,c
  6364  002532  EF33  F014         	goto	l1829
  6365  002536                     l6870:
  6366  002536  501E               	movf	(___flmul@a+2)^0,w,c
  6367  002538  0218               	mulwf	___flmul@b^0,c
  6368  00253A  CFF3 F02F          	movff	prodl,___flmul@temp
  6369  00253E  CFF4 F030          	movff	prodh,___flmul@temp+1
  6370  002542  502F               	movf	___flmul@temp^0,w,c
  6371  002544  6E26               	movwf	___flmul@grs^0,c
  6372  002546  6A27               	clrf	(___flmul@grs+1)^0,c
  6373  002548  6A28               	clrf	(___flmul@grs+2)^0,c
  6374  00254A  6A29               	clrf	(___flmul@grs+3)^0,c
  6375  00254C  5030               	movf	(___flmul@temp+1)^0,w,c
  6376  00254E  6E2B               	movwf	___flmul@prod^0,c
  6377  002550  6A2C               	clrf	(___flmul@prod+1)^0,c
  6378  002552  6A2D               	clrf	(___flmul@prod+2)^0,c
  6379  002554  6A2E               	clrf	(___flmul@prod+3)^0,c
  6380  002556  501D               	movf	(___flmul@a+1)^0,w,c
  6381  002558  0219               	mulwf	(___flmul@b+1)^0,c
  6382  00255A  CFF3 F02F          	movff	prodl,___flmul@temp
  6383  00255E  CFF4 F030          	movff	prodh,___flmul@temp+1
  6384  002562  502F               	movf	___flmul@temp^0,w,c
  6385  002564  2626               	addwf	___flmul@grs^0,f,c
  6386  002566  0E00               	movlw	0
  6387  002568  2227               	addwfc	(___flmul@grs+1)^0,f,c
  6388  00256A  2228               	addwfc	(___flmul@grs+2)^0,f,c
  6389  00256C  2229               	addwfc	(___flmul@grs+3)^0,f,c
  6390  00256E  5030               	movf	(___flmul@temp+1)^0,w,c
  6391  002570  262B               	addwf	___flmul@prod^0,f,c
  6392  002572  0E00               	movlw	0
  6393  002574  222C               	addwfc	(___flmul@prod+1)^0,f,c
  6394  002576  222D               	addwfc	(___flmul@prod+2)^0,f,c
  6395  002578  222E               	addwfc	(___flmul@prod+3)^0,f,c
  6396  00257A  501C               	movf	___flmul@a^0,w,c
  6397  00257C  021A               	mulwf	(___flmul@b+2)^0,c
  6398  00257E  CFF3 F02F          	movff	prodl,___flmul@temp
  6399  002582  CFF4 F030          	movff	prodh,___flmul@temp+1
  6400  002586  502F               	movf	___flmul@temp^0,w,c
  6401  002588  2626               	addwf	___flmul@grs^0,f,c
  6402  00258A  0E00               	movlw	0
  6403  00258C  2227               	addwfc	(___flmul@grs+1)^0,f,c
  6404  00258E  2228               	addwfc	(___flmul@grs+2)^0,f,c
  6405  002590  2229               	addwfc	(___flmul@grs+3)^0,f,c
  6406  002592  5030               	movf	(___flmul@temp+1)^0,w,c
  6407  002594  262B               	addwf	___flmul@prod^0,f,c
  6408  002596  0E00               	movlw	0
  6409  002598  222C               	addwfc	(___flmul@prod+1)^0,f,c
  6410  00259A  222D               	addwfc	(___flmul@prod+2)^0,f,c
  6411  00259C  222E               	addwfc	(___flmul@prod+3)^0,f,c
  6412  00259E  C028  F029         	movff	___flmul@grs+2,___flmul@grs+3
  6413  0025A2  C027  F028         	movff	___flmul@grs+1,___flmul@grs+2
  6414  0025A6  C026  F027         	movff	___flmul@grs,___flmul@grs+1
  6415  0025AA  6A26               	clrf	___flmul@grs^0,c
  6416  0025AC  501C               	movf	___flmul@a^0,w,c
  6417  0025AE  0219               	mulwf	(___flmul@b+1)^0,c
  6418  0025B0  CFF3 F02F          	movff	prodl,___flmul@temp
  6419  0025B4  CFF4 F030          	movff	prodh,___flmul@temp+1
  6420  0025B8  502F               	movf	___flmul@temp^0,w,c
  6421  0025BA  2626               	addwf	___flmul@grs^0,f,c
  6422  0025BC  5030               	movf	(___flmul@temp+1)^0,w,c
  6423  0025BE  2227               	addwfc	(___flmul@grs+1)^0,f,c
  6424  0025C0  0E00               	movlw	0
  6425  0025C2  2228               	addwfc	(___flmul@grs+2)^0,f,c
  6426  0025C4  0E00               	movlw	0
  6427  0025C6  2229               	addwfc	(___flmul@grs+3)^0,f,c
  6428  0025C8  501D               	movf	(___flmul@a+1)^0,w,c
  6429  0025CA  0218               	mulwf	___flmul@b^0,c
  6430  0025CC  CFF3 F02F          	movff	prodl,___flmul@temp
  6431  0025D0  CFF4 F030          	movff	prodh,___flmul@temp+1
  6432  0025D4  502F               	movf	___flmul@temp^0,w,c
  6433  0025D6  2626               	addwf	___flmul@grs^0,f,c
  6434  0025D8  5030               	movf	(___flmul@temp+1)^0,w,c
  6435  0025DA  2227               	addwfc	(___flmul@grs+1)^0,f,c
  6436  0025DC  0E00               	movlw	0
  6437  0025DE  2228               	addwfc	(___flmul@grs+2)^0,f,c
  6438  0025E0  0E00               	movlw	0
  6439  0025E2  2229               	addwfc	(___flmul@grs+3)^0,f,c
  6440  0025E4  C028  F029         	movff	___flmul@grs+2,___flmul@grs+3
  6441  0025E8  C027  F028         	movff	___flmul@grs+1,___flmul@grs+2
  6442  0025EC  C026  F027         	movff	___flmul@grs,___flmul@grs+1
  6443  0025F0  6A26               	clrf	___flmul@grs^0,c
  6444  0025F2  501C               	movf	___flmul@a^0,w,c
  6445  0025F4  0218               	mulwf	___flmul@b^0,c
  6446  0025F6  CFF3 F02F          	movff	prodl,___flmul@temp
  6447  0025FA  CFF4 F030          	movff	prodh,___flmul@temp+1
  6448  0025FE  502F               	movf	___flmul@temp^0,w,c
  6449  002600  2626               	addwf	___flmul@grs^0,f,c
  6450  002602  5030               	movf	(___flmul@temp+1)^0,w,c
  6451  002604  2227               	addwfc	(___flmul@grs+1)^0,f,c
  6452  002606  0E00               	movlw	0
  6453  002608  2228               	addwfc	(___flmul@grs+2)^0,f,c
  6454  00260A  0E00               	movlw	0
  6455  00260C  2229               	addwfc	(___flmul@grs+3)^0,f,c
  6456  00260E  501E               	movf	(___flmul@a+2)^0,w,c
  6457  002610  0219               	mulwf	(___flmul@b+1)^0,c
  6458  002612  CFF3 F02F          	movff	prodl,___flmul@temp
  6459  002616  CFF4 F030          	movff	prodh,___flmul@temp+1
  6460  00261A  502F               	movf	___flmul@temp^0,w,c
  6461  00261C  262B               	addwf	___flmul@prod^0,f,c
  6462  00261E  5030               	movf	(___flmul@temp+1)^0,w,c
  6463  002620  222C               	addwfc	(___flmul@prod+1)^0,f,c
  6464  002622  0E00               	movlw	0
  6465  002624  222D               	addwfc	(___flmul@prod+2)^0,f,c
  6466  002626  0E00               	movlw	0
  6467  002628  222E               	addwfc	(___flmul@prod+3)^0,f,c
  6468  00262A  501D               	movf	(___flmul@a+1)^0,w,c
  6469  00262C  021A               	mulwf	(___flmul@b+2)^0,c
  6470  00262E  CFF3 F02F          	movff	prodl,___flmul@temp
  6471  002632  CFF4 F030          	movff	prodh,___flmul@temp+1
  6472  002636  502F               	movf	___flmul@temp^0,w,c
  6473  002638  262B               	addwf	___flmul@prod^0,f,c
  6474  00263A  5030               	movf	(___flmul@temp+1)^0,w,c
  6475  00263C  222C               	addwfc	(___flmul@prod+1)^0,f,c
  6476  00263E  0E00               	movlw	0
  6477  002640  222D               	addwfc	(___flmul@prod+2)^0,f,c
  6478  002642  0E00               	movlw	0
  6479  002644  222E               	addwfc	(___flmul@prod+3)^0,f,c
  6480  002646  501E               	movf	(___flmul@a+2)^0,w,c
  6481  002648  021A               	mulwf	(___flmul@b+2)^0,c
  6482  00264A  CFF3 F02F          	movff	prodl,___flmul@temp
  6483  00264E  CFF4 F030          	movff	prodh,___flmul@temp+1
  6484  002652  502F               	movf	___flmul@temp^0,w,c
  6485  002654  6E20               	movwf	??___flmul^0,c
  6486  002656  5030               	movf	(___flmul@temp+1)^0,w,c
  6487  002658  6E21               	movwf	(??___flmul+1)^0,c
  6488  00265A  6A22               	clrf	(??___flmul+2)^0,c
  6489  00265C  6A23               	clrf	(??___flmul+3)^0,c
  6490  00265E  C022  F023         	movff	??___flmul+2,??___flmul+3
  6491  002662  C021  F022         	movff	??___flmul+1,??___flmul+2
  6492  002666  C020  F021         	movff	??___flmul,??___flmul+1
  6493  00266A  6A20               	clrf	??___flmul^0,c
  6494  00266C  5020               	movf	??___flmul^0,w,c
  6495  00266E  262B               	addwf	___flmul@prod^0,f,c
  6496  002670  5021               	movf	(??___flmul+1)^0,w,c
  6497  002672  222C               	addwfc	(___flmul@prod+1)^0,f,c
  6498  002674  5022               	movf	(??___flmul+2)^0,w,c
  6499  002676  222D               	addwfc	(___flmul@prod+2)^0,f,c
  6500  002678  5023               	movf	(??___flmul+3)^0,w,c
  6501  00267A  222E               	addwfc	(___flmul@prod+3)^0,f,c
  6502  00267C  C026  F020         	movff	___flmul@grs,??___flmul
  6503  002680  C027  F021         	movff	___flmul@grs+1,??___flmul+1
  6504  002684  C028  F022         	movff	___flmul@grs+2,??___flmul+2
  6505  002688  C029  F023         	movff	___flmul@grs+3,??___flmul+3
  6506  00268C  0E19               	movlw	25
  6507  00268E  EF4E  F013         	goto	u5920
  6508  002692                     u5925:
  6509  002692  90D8               	bcf	status,0,c
  6510  002694  3223               	rrcf	(??___flmul+3)^0,f,c
  6511  002696  3222               	rrcf	(??___flmul+2)^0,f,c
  6512  002698  3221               	rrcf	(??___flmul+1)^0,f,c
  6513  00269A  3220               	rrcf	??___flmul^0,f,c
  6514  00269C                     u5920:
  6515  00269C  2EE8               	decfsz	wreg,f,c
  6516  00269E  EF49  F013         	goto	u5925
  6517  0026A2  5020               	movf	??___flmul^0,w,c
  6518  0026A4  262B               	addwf	___flmul@prod^0,f,c
  6519  0026A6  5021               	movf	(??___flmul+1)^0,w,c
  6520  0026A8  222C               	addwfc	(___flmul@prod+1)^0,f,c
  6521  0026AA  5022               	movf	(??___flmul+2)^0,w,c
  6522  0026AC  222D               	addwfc	(___flmul@prod+2)^0,f,c
  6523  0026AE  5023               	movf	(??___flmul+3)^0,w,c
  6524  0026B0  222E               	addwfc	(___flmul@prod+3)^0,f,c
  6525  0026B2  C028  F029         	movff	___flmul@grs+2,___flmul@grs+3
  6526  0026B6  C027  F028         	movff	___flmul@grs+1,___flmul@grs+2
  6527  0026BA  C026  F027         	movff	___flmul@grs,___flmul@grs+1
  6528  0026BE  6A26               	clrf	___flmul@grs^0,c
  6529  0026C0  5025               	movf	___flmul@aexp^0,w,c
  6530  0026C2  C02A  F020         	movff	___flmul@bexp,??___flmul
  6531  0026C6  6A21               	clrf	(??___flmul+1)^0,c
  6532  0026C8  2620               	addwf	??___flmul^0,f,c
  6533  0026CA  0E00               	movlw	0
  6534  0026CC  2221               	addwfc	(??___flmul+1)^0,f,c
  6535  0026CE  0E82               	movlw	130
  6536  0026D0  2420               	addwf	??___flmul^0,w,c
  6537  0026D2  6E2F               	movwf	___flmul@temp^0,c
  6538  0026D4  0EFF               	movlw	255
  6539  0026D6  2021               	addwfc	(??___flmul+1)^0,w,c
  6540  0026D8  6E30               	movwf	(___flmul@temp+1)^0,c
  6541  0026DA  EF84  F013         	goto	l6918
  6542  0026DE                     l6912:
  6543  0026DE  90D8               	bcf	status,0,c
  6544  0026E0  362B               	rlcf	___flmul@prod^0,f,c
  6545  0026E2  362C               	rlcf	(___flmul@prod+1)^0,f,c
  6546  0026E4  362D               	rlcf	(___flmul@prod+2)^0,f,c
  6547  0026E6  362E               	rlcf	(___flmul@prod+3)^0,f,c
  6548  0026E8  AE29               	btfss	(___flmul@grs+3)^0,7,c
  6549  0026EA  EF79  F013         	goto	u5931
  6550  0026EE  EF7B  F013         	goto	u5930
  6551  0026F2                     u5931:
  6552  0026F2  EF7C  F013         	goto	l1832
  6553  0026F6                     u5930:
  6554  0026F6  802B               	bsf	___flmul@prod^0,0,c
  6555  0026F8                     l1832:
  6556  0026F8  90D8               	bcf	status,0,c
  6557  0026FA  3626               	rlcf	___flmul@grs^0,f,c
  6558  0026FC  3627               	rlcf	(___flmul@grs+1)^0,f,c
  6559  0026FE  3628               	rlcf	(___flmul@grs+2)^0,f,c
  6560  002700  3629               	rlcf	(___flmul@grs+3)^0,f,c
  6561  002702  062F               	decf	___flmul@temp^0,f,c
  6562  002704  A0D8               	btfss	status,0,c
  6563  002706  0630               	decf	(___flmul@temp+1)^0,f,c
  6564  002708                     l6918:
  6565  002708  AE2D               	btfss	(___flmul@prod+2)^0,7,c
  6566  00270A  EF89  F013         	goto	u5941
  6567  00270E  EF8B  F013         	goto	u5940
  6568  002712                     u5941:
  6569  002712  EF6F  F013         	goto	l6912
  6570  002716                     u5940:
  6571  002716  0E00               	movlw	0
  6572  002718  6E25               	movwf	___flmul@aexp^0,c
  6573  00271A  AE29               	btfss	(___flmul@grs+3)^0,7,c
  6574  00271C  EF92  F013         	goto	u5951
  6575  002720  EF94  F013         	goto	u5950
  6576  002724                     u5951:
  6577  002724  EFB8  F013         	goto	l1834
  6578  002728                     u5950:
  6579  002728  0EFF               	movlw	255
  6580  00272A  1426               	andwf	___flmul@grs^0,w,c
  6581  00272C  6E20               	movwf	??___flmul^0,c
  6582  00272E  0EFF               	movlw	255
  6583  002730  1427               	andwf	(___flmul@grs+1)^0,w,c
  6584  002732  6E21               	movwf	(??___flmul+1)^0,c
  6585  002734  0EFF               	movlw	255
  6586  002736  1428               	andwf	(___flmul@grs+2)^0,w,c
  6587  002738  6E22               	movwf	(??___flmul+2)^0,c
  6588  00273A  0E7F               	movlw	127
  6589  00273C  1429               	andwf	(___flmul@grs+3)^0,w,c
  6590  00273E  6E23               	movwf	(??___flmul+3)^0,c
  6591  002740  5020               	movf	??___flmul^0,w,c
  6592  002742  1021               	iorwf	(??___flmul+1)^0,w,c
  6593  002744  1022               	iorwf	(??___flmul+2)^0,w,c
  6594  002746  1023               	iorwf	(??___flmul+3)^0,w,c
  6595  002748  B4D8               	btfsc	status,2,c
  6596  00274A  EFA9  F013         	goto	u5961
  6597  00274E  EFAB  F013         	goto	u5960
  6598  002752                     u5961:
  6599  002752  EFAF  F013         	goto	l1835
  6600  002756                     u5960:
  6601  002756                     l6926:
  6602  002756  0E01               	movlw	1
  6603  002758  6E25               	movwf	___flmul@aexp^0,c
  6604  00275A  EFB8  F013         	goto	l1834
  6605  00275E                     l1835:
  6606  00275E  A02B               	btfss	___flmul@prod^0,0,c
  6607  002760  EFB4  F013         	goto	u5971
  6608  002764  EFB6  F013         	goto	u5970
  6609  002768                     u5971:
  6610  002768  EFB8  F013         	goto	l1834
  6611  00276C                     u5970:
  6612  00276C  EFAB  F013         	goto	l6926
  6613  002770                     l1834:
  6614  002770  5025               	movf	___flmul@aexp^0,w,c
  6615  002772  B4D8               	btfsc	status,2,c
  6616  002774  EFBE  F013         	goto	u5981
  6617  002778  EFC0  F013         	goto	u5980
  6618  00277C                     u5981:
  6619  00277C  EFE4  F013         	goto	l6938
  6620  002780                     u5980:
  6621  002780  0E01               	movlw	1
  6622  002782  262B               	addwf	___flmul@prod^0,f,c
  6623  002784  0E00               	movlw	0
  6624  002786  222C               	addwfc	(___flmul@prod+1)^0,f,c
  6625  002788  222D               	addwfc	(___flmul@prod+2)^0,f,c
  6626  00278A  222E               	addwfc	(___flmul@prod+3)^0,f,c
  6627  00278C  A02E               	btfss	(___flmul@prod+3)^0,0,c
  6628  00278E  EFCB  F013         	goto	u5991
  6629  002792  EFCD  F013         	goto	u5990
  6630  002796                     u5991:
  6631  002796  EFE4  F013         	goto	l6938
  6632  00279A                     u5990:
  6633  00279A  C02B  F020         	movff	___flmul@prod,??___flmul
  6634  00279E  C02C  F021         	movff	___flmul@prod+1,??___flmul+1
  6635  0027A2  C02D  F022         	movff	___flmul@prod+2,??___flmul+2
  6636  0027A6  C02E  F023         	movff	___flmul@prod+3,??___flmul+3
  6637  0027AA  3423               	rlcf	(??___flmul+3)^0,w,c
  6638  0027AC  3223               	rrcf	(??___flmul+3)^0,f,c
  6639  0027AE  3222               	rrcf	(??___flmul+2)^0,f,c
  6640  0027B0  3221               	rrcf	(??___flmul+1)^0,f,c
  6641  0027B2  3220               	rrcf	??___flmul^0,f,c
  6642  0027B4  C020  F02B         	movff	??___flmul,___flmul@prod
  6643  0027B8  C021  F02C         	movff	??___flmul+1,___flmul@prod+1
  6644  0027BC  C022  F02D         	movff	??___flmul+2,___flmul@prod+2
  6645  0027C0  C023  F02E         	movff	??___flmul+3,___flmul@prod+3
  6646  0027C4  4A2F               	infsnz	___flmul@temp^0,f,c
  6647  0027C6  2A30               	incf	(___flmul@temp+1)^0,f,c
  6648  0027C8                     l6938:
  6649  0027C8  BE30               	btfsc	(___flmul@temp+1)^0,7,c
  6650  0027CA  EFEF  F013         	goto	u6001
  6651  0027CE  5030               	movf	(___flmul@temp+1)^0,w,c
  6652  0027D0  E108               	bnz	u6000
  6653  0027D2  282F               	incf	___flmul@temp^0,w,c
  6654  0027D4  A0D8               	btfss	status,0,c
  6655  0027D6  EFEF  F013         	goto	u6001
  6656  0027DA  EFF1  F013         	goto	u6000
  6657  0027DE                     u6001:
  6658  0027DE  EFFB  F013         	goto	l6942
  6659  0027E2                     u6000:
  6660  0027E2  0E00               	movlw	0
  6661  0027E4  6E2B               	movwf	___flmul@prod^0,c
  6662  0027E6  0E00               	movlw	0
  6663  0027E8  6E2C               	movwf	(___flmul@prod+1)^0,c
  6664  0027EA  0E80               	movlw	128
  6665  0027EC  6E2D               	movwf	(___flmul@prod+2)^0,c
  6666  0027EE  0E7F               	movlw	127
  6667  0027F0  6E2E               	movwf	(___flmul@prod+3)^0,c
  6668  0027F2  EF29  F014         	goto	l6954
  6669  0027F6                     l6942:
  6670  0027F6  BE30               	btfsc	(___flmul@temp+1)^0,7,c
  6671  0027F8  EF08  F014         	goto	u6010
  6672  0027FC  5030               	movf	(___flmul@temp+1)^0,w,c
  6673  0027FE  E106               	bnz	u6011
  6674  002800  042F               	decf	___flmul@temp^0,w,c
  6675  002802  B0D8               	btfsc	status,0,c
  6676  002804  EF06  F014         	goto	u6011
  6677  002808  EF08  F014         	goto	u6010
  6678  00280C                     u6011:
  6679  00280C  EF14  F014         	goto	l1842
  6680  002810                     u6010:
  6681  002810  0E00               	movlw	0
  6682  002812  6E2B               	movwf	___flmul@prod^0,c
  6683  002814  0E00               	movlw	0
  6684  002816  6E2C               	movwf	(___flmul@prod+1)^0,c
  6685  002818  0E00               	movlw	0
  6686  00281A  6E2D               	movwf	(___flmul@prod+2)^0,c
  6687  00281C  0E00               	movlw	0
  6688  00281E  6E2E               	movwf	(___flmul@prod+3)^0,c
  6689  002820  0E00               	movlw	0
  6690  002822  6E24               	movwf	___flmul@sign^0,c
  6691  002824  EF29  F014         	goto	l6954
  6692  002828                     l1842:
  6693  002828  C02F  F02A         	movff	___flmul@temp,___flmul@bexp
  6694  00282C  0EFF               	movlw	255
  6695  00282E  162B               	andwf	___flmul@prod^0,f,c
  6696  002830  0EFF               	movlw	255
  6697  002832  162C               	andwf	(___flmul@prod+1)^0,f,c
  6698  002834  0E7F               	movlw	127
  6699  002836  162D               	andwf	(___flmul@prod+2)^0,f,c
  6700  002838  0E00               	movlw	0
  6701  00283A  162E               	andwf	(___flmul@prod+3)^0,f,c
  6702  00283C  A02A               	btfss	___flmul@bexp^0,0,c
  6703  00283E  EF23  F014         	goto	u6021
  6704  002842  EF25  F014         	goto	u6020
  6705  002846                     u6021:
  6706  002846  EF26  F014         	goto	l6952
  6707  00284A                     u6020:
  6708  00284A  8E2D               	bsf	(___flmul@prod+2)^0,7,c
  6709  00284C                     l6952:
  6710  00284C  90D8               	bcf	status,0,c
  6711  00284E  302A               	rrcf	___flmul@bexp^0,w,c
  6712  002850  6E2E               	movwf	(___flmul@prod+3)^0,c
  6713  002852                     l6954:
  6714  002852  5024               	movf	___flmul@sign^0,w,c
  6715  002854  122E               	iorwf	(___flmul@prod+3)^0,f,c
  6716  002856  C02B  F018         	movff	___flmul@prod,?___flmul
  6717  00285A  C02C  F019         	movff	___flmul@prod+1,?___flmul+1
  6718  00285E  C02D  F01A         	movff	___flmul@prod+2,?___flmul+2
  6719  002862  C02E  F01B         	movff	___flmul@prod+3,?___flmul+3
  6720  002866                     l1829:
  6721  002866  0012               	return		;funcret
  6722  002868                     __end_of___flmul:
  6723                           	opt callstack 0
  6724                           
  6725 ;; *************** function ___fldiv *****************
  6726 ;; Defined at:
  6727 ;;		line 11 in file "C:\Program Files (x86)\Microchip\xc8\v2.10\pic\sources\c99\common\sprcdiv.c"
  6728 ;; Parameters:    Size  Location     Type
  6729 ;;  b               4   48[COMRAM] unsigned char 
  6730 ;;  a               4   52[COMRAM] unsigned char 
  6731 ;; Auto vars:     Size  Location     Type
  6732 ;;  grs             4   67[COMRAM] unsigned long 
  6733 ;;  rem             4   60[COMRAM] unsigned long 
  6734 ;;  new_exp         2   65[COMRAM] short 
  6735 ;;  aexp            1   72[COMRAM] unsigned char 
  6736 ;;  bexp            1   71[COMRAM] unsigned char 
  6737 ;;  sign            1   64[COMRAM] unsigned char 
  6738 ;; Return value:  Size  Location     Type
  6739 ;;                  4   48[COMRAM] unsigned char 
  6740 ;; Registers used:
  6741 ;;		wreg, status,2, status,0
  6742 ;; Tracked objects:
  6743 ;;		On entry : 0/0
  6744 ;;		On exit  : 0/0
  6745 ;;		Unchanged: 0/0
  6746 ;; Data sizes:     COMRAM   BANK0   BANK1   BANK2   BANK3   BANK4   BANK5   BANK6   BANK7   BANK8   BANK9  BANK10  BANK1
      +1  BANK12  BANK13  BANK14  BANK15
  6747 ;;      Params:         8       0       0       0       0       0       0       0       0       0       0       0       
      +0       0       0       0       0
  6748 ;;      Locals:        13       0       0       0       0       0       0       0       0       0       0       0       
      +0       0       0       0       0
  6749 ;;      Temps:          4       0       0       0       0       0       0       0       0       0       0       0       
      +0       0       0       0       0
  6750 ;;      Totals:        25       0       0       0       0       0       0       0       0       0       0       0       
      +0       0       0       0       0
  6751 ;;Total ram usage:       25 bytes
  6752 ;; Hardware stack levels used:    1
  6753 ;; Hardware stack levels required when called:    3
  6754 ;; This function calls:
  6755 ;;		Nothing
  6756 ;; This function is called by:
  6757 ;;		_main
  6758 ;;		_ctrl_task
  6759 ;; This function uses a non-reentrant model
  6760 ;;
  6761                           
  6762                           	psect	text12
  6763  002868                     __ptext12:
  6764                           	opt callstack 0
  6765  002868                     ___fldiv:
  6766                           	opt callstack 26
  6767  002868  5034               	movf	(___fldiv@b+3)^0,w,c
  6768  00286A  0B80               	andlw	128
  6769  00286C  6E41               	movwf	___fldiv@sign^0,c
  6770  00286E  5034               	movf	(___fldiv@b+3)^0,w,c
  6771  002870  2434               	addwf	(___fldiv@b+3)^0,w,c
  6772  002872  6E48               	movwf	___fldiv@bexp^0,c
  6773  002874  AE33               	btfss	(___fldiv@b+2)^0,7,c
  6774  002876  EF3F  F014         	goto	u6171
  6775  00287A  EF41  F014         	goto	u6170
  6776  00287E                     u6171:
  6777  00287E  EF42  F014         	goto	l7102
  6778  002882                     u6170:
  6779  002882  8048               	bsf	___fldiv@bexp^0,0,c
  6780  002884                     l7102:
  6781  002884  5048               	movf	___fldiv@bexp^0,w,c
  6782  002886  B4D8               	btfsc	status,2,c
  6783  002888  EF48  F014         	goto	u6181
  6784  00288C  EF4A  F014         	goto	u6180
  6785  002890                     u6181:
  6786  002890  EF5F  F014         	goto	l7112
  6787  002894                     u6180:
  6788  002894  2848               	incf	___fldiv@bexp^0,w,c
  6789  002896  A4D8               	btfss	status,2,c
  6790  002898  EF50  F014         	goto	u6191
  6791  00289C  EF52  F014         	goto	u6190
  6792  0028A0                     u6191:
  6793  0028A0  EF5A  F014         	goto	l7108
  6794  0028A4                     u6190:
  6795  0028A4  0E00               	movlw	0
  6796  0028A6  6E31               	movwf	___fldiv@b^0,c
  6797  0028A8  0E00               	movlw	0
  6798  0028AA  6E32               	movwf	(___fldiv@b+1)^0,c
  6799  0028AC  0E00               	movlw	0
  6800  0028AE  6E33               	movwf	(___fldiv@b+2)^0,c
  6801  0028B0  0E00               	movlw	0
  6802  0028B2  6E34               	movwf	(___fldiv@b+3)^0,c
  6803  0028B4                     l7108:
  6804  0028B4  8E33               	bsf	(___fldiv@b+2)^0,7,c
  6805  0028B6  0E00               	movlw	0
  6806  0028B8  6E34               	movwf	(___fldiv@b+3)^0,c
  6807  0028BA  EF67  F014         	goto	l7114
  6808  0028BE                     l7112:
  6809  0028BE  0E00               	movlw	0
  6810  0028C0  6E31               	movwf	___fldiv@b^0,c
  6811  0028C2  0E00               	movlw	0
  6812  0028C4  6E32               	movwf	(___fldiv@b+1)^0,c
  6813  0028C6  0E00               	movlw	0
  6814  0028C8  6E33               	movwf	(___fldiv@b+2)^0,c
  6815  0028CA  0E00               	movlw	0
  6816  0028CC  6E34               	movwf	(___fldiv@b+3)^0,c
  6817  0028CE                     l7114:
  6818  0028CE  5038               	movf	(___fldiv@a+3)^0,w,c
  6819  0028D0  0B80               	andlw	128
  6820  0028D2  1A41               	xorwf	___fldiv@sign^0,f,c
  6821  0028D4  5038               	movf	(___fldiv@a+3)^0,w,c
  6822  0028D6  2438               	addwf	(___fldiv@a+3)^0,w,c
  6823  0028D8  6E49               	movwf	___fldiv@aexp^0,c
  6824  0028DA  AE37               	btfss	(___fldiv@a+2)^0,7,c
  6825  0028DC  EF72  F014         	goto	u6201
  6826  0028E0  EF74  F014         	goto	u6200
  6827  0028E4                     u6201:
  6828  0028E4  EF75  F014         	goto	l7122
  6829  0028E8                     u6200:
  6830  0028E8  8049               	bsf	___fldiv@aexp^0,0,c
  6831  0028EA                     l7122:
  6832  0028EA  5049               	movf	___fldiv@aexp^0,w,c
  6833  0028EC  B4D8               	btfsc	status,2,c
  6834  0028EE  EF7B  F014         	goto	u6211
  6835  0028F2  EF7D  F014         	goto	u6210
  6836  0028F6                     u6211:
  6837  0028F6  EF92  F014         	goto	l7132
  6838  0028FA                     u6210:
  6839  0028FA  2849               	incf	___fldiv@aexp^0,w,c
  6840  0028FC  A4D8               	btfss	status,2,c
  6841  0028FE  EF83  F014         	goto	u6221
  6842  002902  EF85  F014         	goto	u6220
  6843  002906                     u6221:
  6844  002906  EF8D  F014         	goto	l7128
  6845  00290A                     u6220:
  6846  00290A  0E00               	movlw	0
  6847  00290C  6E35               	movwf	___fldiv@a^0,c
  6848  00290E  0E00               	movlw	0
  6849  002910  6E36               	movwf	(___fldiv@a+1)^0,c
  6850  002912  0E00               	movlw	0
  6851  002914  6E37               	movwf	(___fldiv@a+2)^0,c
  6852  002916  0E00               	movlw	0
  6853  002918  6E38               	movwf	(___fldiv@a+3)^0,c
  6854  00291A                     l7128:
  6855  00291A  8E37               	bsf	(___fldiv@a+2)^0,7,c
  6856  00291C  0E00               	movlw	0
  6857  00291E  6E38               	movwf	(___fldiv@a+3)^0,c
  6858  002920  EF9A  F014         	goto	l7134
  6859  002924                     l7132:
  6860  002924  0E00               	movlw	0
  6861  002926  6E35               	movwf	___fldiv@a^0,c
  6862  002928  0E00               	movlw	0
  6863  00292A  6E36               	movwf	(___fldiv@a+1)^0,c
  6864  00292C  0E00               	movlw	0
  6865  00292E  6E37               	movwf	(___fldiv@a+2)^0,c
  6866  002930  0E00               	movlw	0
  6867  002932  6E38               	movwf	(___fldiv@a+3)^0,c
  6868  002934                     l7134:
  6869  002934  5035               	movf	___fldiv@a^0,w,c
  6870  002936  1036               	iorwf	(___fldiv@a+1)^0,w,c
  6871  002938  1037               	iorwf	(___fldiv@a+2)^0,w,c
  6872  00293A  1038               	iorwf	(___fldiv@a+3)^0,w,c
  6873  00293C  A4D8               	btfss	status,2,c
  6874  00293E  EFA3  F014         	goto	u6231
  6875  002942  EFA5  F014         	goto	u6230
  6876  002946                     u6231:
  6877  002946  EFBD  F014         	goto	l7146
  6878  00294A                     u6230:
  6879  00294A  0E00               	movlw	0
  6880  00294C  6E31               	movwf	___fldiv@b^0,c
  6881  00294E  0E00               	movlw	0
  6882  002950  6E32               	movwf	(___fldiv@b+1)^0,c
  6883  002952  0E00               	movlw	0
  6884  002954  6E33               	movwf	(___fldiv@b+2)^0,c
  6885  002956  0E00               	movlw	0
  6886  002958  6E34               	movwf	(___fldiv@b+3)^0,c
  6887  00295A  0E80               	movlw	128
  6888  00295C  1233               	iorwf	(___fldiv@b+2)^0,f,c
  6889  00295E  0E7F               	movlw	127
  6890  002960  1234               	iorwf	(___fldiv@b+3)^0,f,c
  6891  002962                     l7140:
  6892  002962  5041               	movf	___fldiv@sign^0,w,c
  6893  002964  1234               	iorwf	(___fldiv@b+3)^0,f,c
  6894  002966  C031  F031         	movff	___fldiv@b,?___fldiv
  6895  00296A  C032  F032         	movff	___fldiv@b+1,?___fldiv+1
  6896  00296E  C033  F033         	movff	___fldiv@b+2,?___fldiv+2
  6897  002972  C034  F034         	movff	___fldiv@b+3,?___fldiv+3
  6898  002976  EF00  F016         	goto	l1793
  6899  00297A                     l7146:
  6900  00297A  5048               	movf	___fldiv@bexp^0,w,c
  6901  00297C  A4D8               	btfss	status,2,c
  6902  00297E  EFC3  F014         	goto	u6241
  6903  002982  EFC5  F014         	goto	u6240
  6904  002986                     u6241:
  6905  002986  EFCF  F014         	goto	l7154
  6906  00298A                     u6240:
  6907  00298A  0E00               	movlw	0
  6908  00298C  6E31               	movwf	?___fldiv^0,c
  6909  00298E  0E00               	movlw	0
  6910  002990  6E32               	movwf	(?___fldiv+1)^0,c
  6911  002992  0E00               	movlw	0
  6912  002994  6E33               	movwf	(?___fldiv+2)^0,c
  6913  002996  0E00               	movlw	0
  6914  002998  6E34               	movwf	(?___fldiv+3)^0,c
  6915  00299A  EF00  F016         	goto	l1793
  6916  00299E                     l7154:
  6917  00299E  5049               	movf	___fldiv@aexp^0,w,c
  6918  0029A0  C048  F039         	movff	___fldiv@bexp,??___fldiv
  6919  0029A4  6A3A               	clrf	(??___fldiv+1)^0,c
  6920  0029A6  5E39               	subwf	??___fldiv^0,f,c
  6921  0029A8  0E00               	movlw	0
  6922  0029AA  5A3A               	subwfb	(??___fldiv+1)^0,f,c
  6923  0029AC  0E7F               	movlw	127
  6924  0029AE  2439               	addwf	??___fldiv^0,w,c
  6925  0029B0  6E42               	movwf	___fldiv@new_exp^0,c
  6926  0029B2  0E00               	movlw	0
  6927  0029B4  203A               	addwfc	(??___fldiv+1)^0,w,c
  6928  0029B6  6E43               	movwf	(___fldiv@new_exp+1)^0,c
  6929  0029B8  C031  F03D         	movff	___fldiv@b,___fldiv@rem
  6930  0029BC  C032  F03E         	movff	___fldiv@b+1,___fldiv@rem+1
  6931  0029C0  C033  F03F         	movff	___fldiv@b+2,___fldiv@rem+2
  6932  0029C4  C034  F040         	movff	___fldiv@b+3,___fldiv@rem+3
  6933  0029C8  0E00               	movlw	0
  6934  0029CA  6E31               	movwf	___fldiv@b^0,c
  6935  0029CC  0E00               	movlw	0
  6936  0029CE  6E32               	movwf	(___fldiv@b+1)^0,c
  6937  0029D0  0E00               	movlw	0
  6938  0029D2  6E33               	movwf	(___fldiv@b+2)^0,c
  6939  0029D4  0E00               	movlw	0
  6940  0029D6  6E34               	movwf	(___fldiv@b+3)^0,c
  6941  0029D8  0E00               	movlw	0
  6942  0029DA  6E44               	movwf	___fldiv@grs^0,c
  6943  0029DC  0E00               	movlw	0
  6944  0029DE  6E45               	movwf	(___fldiv@grs+1)^0,c
  6945  0029E0  0E00               	movlw	0
  6946  0029E2  6E46               	movwf	(___fldiv@grs+2)^0,c
  6947  0029E4  0E00               	movlw	0
  6948  0029E6  6E47               	movwf	(___fldiv@grs+3)^0,c
  6949  0029E8  0E00               	movlw	0
  6950  0029EA  6E49               	movwf	___fldiv@aexp^0,c
  6951  0029EC  EF30  F015         	goto	l1795
  6952  0029F0                     l7164:
  6953  0029F0  5049               	movf	___fldiv@aexp^0,w,c
  6954  0029F2  B4D8               	btfsc	status,2,c
  6955  0029F4  EFFE  F014         	goto	u6251
  6956  0029F8  EF00  F015         	goto	u6250
  6957  0029FC                     u6251:
  6958  0029FC  EF17  F015         	goto	l7172
  6959  002A00                     u6250:
  6960  002A00  90D8               	bcf	status,0,c
  6961  002A02  363D               	rlcf	___fldiv@rem^0,f,c
  6962  002A04  363E               	rlcf	(___fldiv@rem+1)^0,f,c
  6963  002A06  363F               	rlcf	(___fldiv@rem+2)^0,f,c
  6964  002A08  3640               	rlcf	(___fldiv@rem+3)^0,f,c
  6965  002A0A  90D8               	bcf	status,0,c
  6966  002A0C  3631               	rlcf	___fldiv@b^0,f,c
  6967  002A0E  3632               	rlcf	(___fldiv@b+1)^0,f,c
  6968  002A10  3633               	rlcf	(___fldiv@b+2)^0,f,c
  6969  002A12  3634               	rlcf	(___fldiv@b+3)^0,f,c
  6970  002A14  AE47               	btfss	(___fldiv@grs+3)^0,7,c
  6971  002A16  EF0F  F015         	goto	u6261
  6972  002A1A  EF11  F015         	goto	u6260
  6973  002A1E                     u6261:
  6974  002A1E  EF12  F015         	goto	l1798
  6975  002A22                     u6260:
  6976  002A22  8031               	bsf	___fldiv@b^0,0,c
  6977  002A24                     l1798:
  6978  002A24  90D8               	bcf	status,0,c
  6979  002A26  3644               	rlcf	___fldiv@grs^0,f,c
  6980  002A28  3645               	rlcf	(___fldiv@grs+1)^0,f,c
  6981  002A2A  3646               	rlcf	(___fldiv@grs+2)^0,f,c
  6982  002A2C  3647               	rlcf	(___fldiv@grs+3)^0,f,c
  6983  002A2E                     l7172:
  6984  002A2E  5035               	movf	___fldiv@a^0,w,c
  6985  002A30  5C3D               	subwf	___fldiv@rem^0,w,c
  6986  002A32  5036               	movf	(___fldiv@a+1)^0,w,c
  6987  002A34  583E               	subwfb	(___fldiv@rem+1)^0,w,c
  6988  002A36  5037               	movf	(___fldiv@a+2)^0,w,c
  6989  002A38  583F               	subwfb	(___fldiv@rem+2)^0,w,c
  6990  002A3A  5038               	movf	(___fldiv@a+3)^0,w,c
  6991  002A3C  5840               	subwfb	(___fldiv@rem+3)^0,w,c
  6992  002A3E  A0D8               	btfss	status,0,c
  6993  002A40  EF24  F015         	goto	u6271
  6994  002A44  EF26  F015         	goto	u6270
  6995  002A48                     u6271:
  6996  002A48  EF2F  F015         	goto	l7178
  6997  002A4C                     u6270:
  6998  002A4C  8C47               	bsf	(___fldiv@grs+3)^0,6,c
  6999  002A4E  5035               	movf	___fldiv@a^0,w,c
  7000  002A50  5E3D               	subwf	___fldiv@rem^0,f,c
  7001  002A52  5036               	movf	(___fldiv@a+1)^0,w,c
  7002  002A54  5A3E               	subwfb	(___fldiv@rem+1)^0,f,c
  7003  002A56  5037               	movf	(___fldiv@a+2)^0,w,c
  7004  002A58  5A3F               	subwfb	(___fldiv@rem+2)^0,f,c
  7005  002A5A  5038               	movf	(___fldiv@a+3)^0,w,c
  7006  002A5C  5A40               	subwfb	(___fldiv@rem+3)^0,f,c
  7007  002A5E                     l7178:
  7008  002A5E  2A49               	incf	___fldiv@aexp^0,f,c
  7009  002A60                     l1795:
  7010  002A60  0E19               	movlw	25
  7011  002A62  6449               	cpfsgt	___fldiv@aexp^0,c
  7012  002A64  EF36  F015         	goto	u6281
  7013  002A68  EF38  F015         	goto	u6280
  7014  002A6C                     u6281:
  7015  002A6C  EFF8  F014         	goto	l7164
  7016  002A70                     u6280:
  7017  002A70  503D               	movf	___fldiv@rem^0,w,c
  7018  002A72  103E               	iorwf	(___fldiv@rem+1)^0,w,c
  7019  002A74  103F               	iorwf	(___fldiv@rem+2)^0,w,c
  7020  002A76  1040               	iorwf	(___fldiv@rem+3)^0,w,c
  7021  002A78  B4D8               	btfsc	status,2,c
  7022  002A7A  EF41  F015         	goto	u6291
  7023  002A7E  EF43  F015         	goto	u6290
  7024  002A82                     u6291:
  7025  002A82  EF5B  F015         	goto	l7190
  7026  002A86                     u6290:
  7027  002A86  8044               	bsf	___fldiv@grs^0,0,c
  7028  002A88  EF5B  F015         	goto	l7190
  7029  002A8C                     l7184:
  7030  002A8C  90D8               	bcf	status,0,c
  7031  002A8E  3631               	rlcf	___fldiv@b^0,f,c
  7032  002A90  3632               	rlcf	(___fldiv@b+1)^0,f,c
  7033  002A92  3633               	rlcf	(___fldiv@b+2)^0,f,c
  7034  002A94  3634               	rlcf	(___fldiv@b+3)^0,f,c
  7035  002A96  AE47               	btfss	(___fldiv@grs+3)^0,7,c
  7036  002A98  EF50  F015         	goto	u6301
  7037  002A9C  EF52  F015         	goto	u6300
  7038  002AA0                     u6301:
  7039  002AA0  EF53  F015         	goto	l1804
  7040  002AA4                     u6300:
  7041  002AA4  8031               	bsf	___fldiv@b^0,0,c
  7042  002AA6                     l1804:
  7043  002AA6  90D8               	bcf	status,0,c
  7044  002AA8  3644               	rlcf	___fldiv@grs^0,f,c
  7045  002AAA  3645               	rlcf	(___fldiv@grs+1)^0,f,c
  7046  002AAC  3646               	rlcf	(___fldiv@grs+2)^0,f,c
  7047  002AAE  3647               	rlcf	(___fldiv@grs+3)^0,f,c
  7048  002AB0  0642               	decf	___fldiv@new_exp^0,f,c
  7049  002AB2  A0D8               	btfss	status,0,c
  7050  002AB4  0643               	decf	(___fldiv@new_exp+1)^0,f,c
  7051  002AB6                     l7190:
  7052  002AB6  AE33               	btfss	(___fldiv@b+2)^0,7,c
  7053  002AB8  EF60  F015         	goto	u6311
  7054  002ABC  EF62  F015         	goto	u6310
  7055  002AC0                     u6311:
  7056  002AC0  EF46  F015         	goto	l7184
  7057  002AC4                     u6310:
  7058  002AC4  0E00               	movlw	0
  7059  002AC6  6E49               	movwf	___fldiv@aexp^0,c
  7060  002AC8  AE47               	btfss	(___fldiv@grs+3)^0,7,c
  7061  002ACA  EF69  F015         	goto	u6321
  7062  002ACE  EF6B  F015         	goto	u6320
  7063  002AD2                     u6321:
  7064  002AD2  EF8F  F015         	goto	l1806
  7065  002AD6                     u6320:
  7066  002AD6  0EFF               	movlw	255
  7067  002AD8  1444               	andwf	___fldiv@grs^0,w,c
  7068  002ADA  6E39               	movwf	??___fldiv^0,c
  7069  002ADC  0EFF               	movlw	255
  7070  002ADE  1445               	andwf	(___fldiv@grs+1)^0,w,c
  7071  002AE0  6E3A               	movwf	(??___fldiv+1)^0,c
  7072  002AE2  0EFF               	movlw	255
  7073  002AE4  1446               	andwf	(___fldiv@grs+2)^0,w,c
  7074  002AE6  6E3B               	movwf	(??___fldiv+2)^0,c
  7075  002AE8  0E7F               	movlw	127
  7076  002AEA  1447               	andwf	(___fldiv@grs+3)^0,w,c
  7077  002AEC  6E3C               	movwf	(??___fldiv+3)^0,c
  7078  002AEE  5039               	movf	??___fldiv^0,w,c
  7079  002AF0  103A               	iorwf	(??___fldiv+1)^0,w,c
  7080  002AF2  103B               	iorwf	(??___fldiv+2)^0,w,c
  7081  002AF4  103C               	iorwf	(??___fldiv+3)^0,w,c
  7082  002AF6  B4D8               	btfsc	status,2,c
  7083  002AF8  EF80  F015         	goto	u6331
  7084  002AFC  EF82  F015         	goto	u6330
  7085  002B00                     u6331:
  7086  002B00  EF86  F015         	goto	l1807
  7087  002B04                     u6330:
  7088  002B04                     l7198:
  7089  002B04  0E01               	movlw	1
  7090  002B06  6E49               	movwf	___fldiv@aexp^0,c
  7091  002B08  EF8F  F015         	goto	l1806
  7092  002B0C                     l1807:
  7093  002B0C  A031               	btfss	___fldiv@b^0,0,c
  7094  002B0E  EF8B  F015         	goto	u6341
  7095  002B12  EF8D  F015         	goto	u6340
  7096  002B16                     u6341:
  7097  002B16  EF8F  F015         	goto	l1806
  7098  002B1A                     u6340:
  7099  002B1A  EF82  F015         	goto	l7198
  7100  002B1E                     l1806:
  7101  002B1E  5049               	movf	___fldiv@aexp^0,w,c
  7102  002B20  B4D8               	btfsc	status,2,c
  7103  002B22  EF95  F015         	goto	u6351
  7104  002B26  EF97  F015         	goto	u6350
  7105  002B2A                     u6351:
  7106  002B2A  EFBB  F015         	goto	l7210
  7107  002B2E                     u6350:
  7108  002B2E  0E01               	movlw	1
  7109  002B30  2631               	addwf	___fldiv@b^0,f,c
  7110  002B32  0E00               	movlw	0
  7111  002B34  2232               	addwfc	(___fldiv@b+1)^0,f,c
  7112  002B36  2233               	addwfc	(___fldiv@b+2)^0,f,c
  7113  002B38  2234               	addwfc	(___fldiv@b+3)^0,f,c
  7114  002B3A  A034               	btfss	(___fldiv@b+3)^0,0,c
  7115  002B3C  EFA2  F015         	goto	u6361
  7116  002B40  EFA4  F015         	goto	u6360
  7117  002B44                     u6361:
  7118  002B44  EFBB  F015         	goto	l7210
  7119  002B48                     u6360:
  7120  002B48  C031  F039         	movff	___fldiv@b,??___fldiv
  7121  002B4C  C032  F03A         	movff	___fldiv@b+1,??___fldiv+1
  7122  002B50  C033  F03B         	movff	___fldiv@b+2,??___fldiv+2
  7123  002B54  C034  F03C         	movff	___fldiv@b+3,??___fldiv+3
  7124  002B58  343C               	rlcf	(??___fldiv+3)^0,w,c
  7125  002B5A  323C               	rrcf	(??___fldiv+3)^0,f,c
  7126  002B5C  323B               	rrcf	(??___fldiv+2)^0,f,c
  7127  002B5E  323A               	rrcf	(??___fldiv+1)^0,f,c
  7128  002B60  3239               	rrcf	??___fldiv^0,f,c
  7129  002B62  C039  F031         	movff	??___fldiv,___fldiv@b
  7130  002B66  C03A  F032         	movff	??___fldiv+1,___fldiv@b+1
  7131  002B6A  C03B  F033         	movff	??___fldiv+2,___fldiv@b+2
  7132  002B6E  C03C  F034         	movff	??___fldiv+3,___fldiv@b+3
  7133  002B72  4A42               	infsnz	___fldiv@new_exp^0,f,c
  7134  002B74  2A43               	incf	(___fldiv@new_exp+1)^0,f,c
  7135  002B76                     l7210:
  7136  002B76  BE43               	btfsc	(___fldiv@new_exp+1)^0,7,c
  7137  002B78  EFC6  F015         	goto	u6371
  7138  002B7C  5043               	movf	(___fldiv@new_exp+1)^0,w,c
  7139  002B7E  E108               	bnz	u6370
  7140  002B80  2842               	incf	___fldiv@new_exp^0,w,c
  7141  002B82  A0D8               	btfss	status,0,c
  7142  002B84  EFC6  F015         	goto	u6371
  7143  002B88  EFC8  F015         	goto	u6370
  7144  002B8C                     u6371:
  7145  002B8C  EFD3  F015         	goto	l7214
  7146  002B90                     u6370:
  7147  002B90  0E00               	movlw	0
  7148  002B92  6E43               	movwf	(___fldiv@new_exp+1)^0,c
  7149  002B94  6842               	setf	___fldiv@new_exp^0,c
  7150  002B96  0E00               	movlw	0
  7151  002B98  6E31               	movwf	___fldiv@b^0,c
  7152  002B9A  0E00               	movlw	0
  7153  002B9C  6E32               	movwf	(___fldiv@b+1)^0,c
  7154  002B9E  0E00               	movlw	0
  7155  002BA0  6E33               	movwf	(___fldiv@b+2)^0,c
  7156  002BA2  0E00               	movlw	0
  7157  002BA4  6E34               	movwf	(___fldiv@b+3)^0,c
  7158  002BA6                     l7214:
  7159  002BA6  BE43               	btfsc	(___fldiv@new_exp+1)^0,7,c
  7160  002BA8  EFE0  F015         	goto	u6380
  7161  002BAC  5043               	movf	(___fldiv@new_exp+1)^0,w,c
  7162  002BAE  E106               	bnz	u6381
  7163  002BB0  0442               	decf	___fldiv@new_exp^0,w,c
  7164  002BB2  B0D8               	btfsc	status,0,c
  7165  002BB4  EFDE  F015         	goto	u6381
  7166  002BB8  EFE0  F015         	goto	u6380
  7167  002BBC                     u6381:
  7168  002BBC  EFEE  F015         	goto	l7218
  7169  002BC0                     u6380:
  7170  002BC0  0E00               	movlw	0
  7171  002BC2  6E43               	movwf	(___fldiv@new_exp+1)^0,c
  7172  002BC4  0E00               	movlw	0
  7173  002BC6  6E42               	movwf	___fldiv@new_exp^0,c
  7174  002BC8  0E00               	movlw	0
  7175  002BCA  6E31               	movwf	___fldiv@b^0,c
  7176  002BCC  0E00               	movlw	0
  7177  002BCE  6E32               	movwf	(___fldiv@b+1)^0,c
  7178  002BD0  0E00               	movlw	0
  7179  002BD2  6E33               	movwf	(___fldiv@b+2)^0,c
  7180  002BD4  0E00               	movlw	0
  7181  002BD6  6E34               	movwf	(___fldiv@b+3)^0,c
  7182  002BD8  0E00               	movlw	0
  7183  002BDA  6E41               	movwf	___fldiv@sign^0,c
  7184  002BDC                     l7218:
  7185  002BDC  C042  F048         	movff	___fldiv@new_exp,___fldiv@bexp
  7186  002BE0  A048               	btfss	___fldiv@bexp^0,0,c
  7187  002BE2  EFF5  F015         	goto	u6391
  7188  002BE6  EFF7  F015         	goto	u6390
  7189  002BEA                     u6391:
  7190  002BEA  EFFA  F015         	goto	l7224
  7191  002BEE                     u6390:
  7192  002BEE  8E33               	bsf	(___fldiv@b+2)^0,7,c
  7193  002BF0  EFFB  F015         	goto	l7226
  7194  002BF4                     l7224:
  7195  002BF4  9E33               	bcf	(___fldiv@b+2)^0,7,c
  7196  002BF6                     l7226:
  7197  002BF6  90D8               	bcf	status,0,c
  7198  002BF8  3048               	rrcf	___fldiv@bexp^0,w,c
  7199  002BFA  6E34               	movwf	(___fldiv@b+3)^0,c
  7200  002BFC  EFB1  F014         	goto	l7140
  7201  002C00                     l1793:
  7202  002C00  0012               	return		;funcret
  7203  002C02                     __end_of___fldiv:
  7204                           	opt callstack 0
  7205                           
  7206 ;; *************** function ___fladd *****************
  7207 ;; Defined at:
  7208 ;;		line 10 in file "C:\Program Files (x86)\Microchip\xc8\v2.10\pic\sources\c99\common\sprcadd.c"
  7209 ;; Parameters:    Size  Location     Type
  7210 ;;  b               4   48[COMRAM] unsigned char 
  7211 ;;  a               4   52[COMRAM] unsigned char 
  7212 ;; Auto vars:     Size  Location     Type
  7213 ;;  grs             1   63[COMRAM] unsigned char 
  7214 ;;  bexp            1   62[COMRAM] unsigned char 
  7215 ;;  aexp            1   61[COMRAM] unsigned char 
  7216 ;;  signs           1   60[COMRAM] unsigned char 
  7217 ;; Return value:  Size  Location     Type
  7218 ;;                  4   48[COMRAM] unsigned char 
  7219 ;; Registers used:
  7220 ;;		wreg, status,2, status,0
  7221 ;; Tracked objects:
  7222 ;;		On entry : 0/0
  7223 ;;		On exit  : 0/0
  7224 ;;		Unchanged: 0/0
  7225 ;; Data sizes:     COMRAM   BANK0   BANK1   BANK2   BANK3   BANK4   BANK5   BANK6   BANK7   BANK8   BANK9  BANK10  BANK1
      +1  BANK12  BANK13  BANK14  BANK15
  7226 ;;      Params:         8       0       0       0       0       0       0       0       0       0       0       0       
      +0       0       0       0       0
  7227 ;;      Locals:         4       0       0       0       0       0       0       0       0       0       0       0       
      +0       0       0       0       0
  7228 ;;      Temps:          4       0       0       0       0       0       0       0       0       0       0       0       
      +0       0       0       0       0
  7229 ;;      Totals:        16       0       0       0       0       0       0       0       0       0       0       0       
      +0       0       0       0       0
  7230 ;;Total ram usage:       16 bytes
  7231 ;; Hardware stack levels used:    1
  7232 ;; Hardware stack levels required when called:    3
  7233 ;; This function calls:
  7234 ;;		Nothing
  7235 ;; This function is called by:
  7236 ;;		_main
  7237 ;;		_ctrl_task
  7238 ;;		_lowPassExponential
  7239 ;;		___flsub
  7240 ;; This function uses a non-reentrant model
  7241 ;;
  7242                           
  7243                           	psect	text13
  7244  001F7E                     __ptext13:
  7245                           	opt callstack 0
  7246  001F7E                     ___fladd:
  7247                           	opt callstack 24
  7248  001F7E  5034               	movf	(___fladd@b+3)^0,w,c
  7249  001F80  0B80               	andlw	128
  7250  001F82  6E3D               	movwf	___fladd@signs^0,c
  7251  001F84  5034               	movf	(___fladd@b+3)^0,w,c
  7252  001F86  2434               	addwf	(___fladd@b+3)^0,w,c
  7253  001F88  6E3F               	movwf	___fladd@bexp^0,c
  7254  001F8A  AE33               	btfss	(___fladd@b+2)^0,7,c
  7255  001F8C  EFCA  F00F         	goto	u5401
  7256  001F90  EFCC  F00F         	goto	u5400
  7257  001F94                     u5401:
  7258  001F94  EFCD  F00F         	goto	l6278
  7259  001F98                     u5400:
  7260  001F98  803F               	bsf	___fladd@bexp^0,0,c
  7261  001F9A                     l6278:
  7262  001F9A  503F               	movf	___fladd@bexp^0,w,c
  7263  001F9C  B4D8               	btfsc	status,2,c
  7264  001F9E  EFD3  F00F         	goto	u5411
  7265  001FA2  EFD5  F00F         	goto	u5410
  7266  001FA6                     u5411:
  7267  001FA6  EFEA  F00F         	goto	l6288
  7268  001FAA                     u5410:
  7269  001FAA  283F               	incf	___fladd@bexp^0,w,c
  7270  001FAC  A4D8               	btfss	status,2,c
  7271  001FAE  EFDB  F00F         	goto	u5421
  7272  001FB2  EFDD  F00F         	goto	u5420
  7273  001FB6                     u5421:
  7274  001FB6  EFE5  F00F         	goto	l6284
  7275  001FBA                     u5420:
  7276  001FBA  0E00               	movlw	0
  7277  001FBC  6E31               	movwf	___fladd@b^0,c
  7278  001FBE  0E00               	movlw	0
  7279  001FC0  6E32               	movwf	(___fladd@b+1)^0,c
  7280  001FC2  0E00               	movlw	0
  7281  001FC4  6E33               	movwf	(___fladd@b+2)^0,c
  7282  001FC6  0E00               	movlw	0
  7283  001FC8  6E34               	movwf	(___fladd@b+3)^0,c
  7284  001FCA                     l6284:
  7285  001FCA  8E33               	bsf	(___fladd@b+2)^0,7,c
  7286  001FCC  0E00               	movlw	0
  7287  001FCE  6E34               	movwf	(___fladd@b+3)^0,c
  7288  001FD0  EFF2  F00F         	goto	l6290
  7289  001FD4                     l6288:
  7290  001FD4  0E00               	movlw	0
  7291  001FD6  6E31               	movwf	___fladd@b^0,c
  7292  001FD8  0E00               	movlw	0
  7293  001FDA  6E32               	movwf	(___fladd@b+1)^0,c
  7294  001FDC  0E00               	movlw	0
  7295  001FDE  6E33               	movwf	(___fladd@b+2)^0,c
  7296  001FE0  0E00               	movlw	0
  7297  001FE2  6E34               	movwf	(___fladd@b+3)^0,c
  7298  001FE4                     l6290:
  7299  001FE4  5038               	movf	(___fladd@a+3)^0,w,c
  7300  001FE6  0B80               	andlw	128
  7301  001FE8  6E3E               	movwf	___fladd@aexp^0,c
  7302  001FEA  503D               	movf	___fladd@signs^0,w,c
  7303  001FEC  183E               	xorwf	___fladd@aexp^0,w,c
  7304  001FEE  B4D8               	btfsc	status,2,c
  7305  001FF0  EFFC  F00F         	goto	u5431
  7306  001FF4  EFFE  F00F         	goto	u5430
  7307  001FF8                     u5431:
  7308  001FF8  EFFF  F00F         	goto	l6296
  7309  001FFC                     u5430:
  7310  001FFC  8C3D               	bsf	___fladd@signs^0,6,c
  7311  001FFE                     l6296:
  7312  001FFE  5038               	movf	(___fladd@a+3)^0,w,c
  7313  002000  2438               	addwf	(___fladd@a+3)^0,w,c
  7314  002002  6E3E               	movwf	___fladd@aexp^0,c
  7315  002004  AE37               	btfss	(___fladd@a+2)^0,7,c
  7316  002006  EF07  F010         	goto	u5441
  7317  00200A  EF09  F010         	goto	u5440
  7318  00200E                     u5441:
  7319  00200E  EF0A  F010         	goto	l6302
  7320  002012                     u5440:
  7321  002012  803E               	bsf	___fladd@aexp^0,0,c
  7322  002014                     l6302:
  7323  002014  503E               	movf	___fladd@aexp^0,w,c
  7324  002016  B4D8               	btfsc	status,2,c
  7325  002018  EF10  F010         	goto	u5451
  7326  00201C  EF12  F010         	goto	u5450
  7327  002020                     u5451:
  7328  002020  EF27  F010         	goto	l6312
  7329  002024                     u5450:
  7330  002024  283E               	incf	___fladd@aexp^0,w,c
  7331  002026  A4D8               	btfss	status,2,c
  7332  002028  EF18  F010         	goto	u5461
  7333  00202C  EF1A  F010         	goto	u5460
  7334  002030                     u5461:
  7335  002030  EF22  F010         	goto	l6308
  7336  002034                     u5460:
  7337  002034  0E00               	movlw	0
  7338  002036  6E35               	movwf	___fladd@a^0,c
  7339  002038  0E00               	movlw	0
  7340  00203A  6E36               	movwf	(___fladd@a+1)^0,c
  7341  00203C  0E00               	movlw	0
  7342  00203E  6E37               	movwf	(___fladd@a+2)^0,c
  7343  002040  0E00               	movlw	0
  7344  002042  6E38               	movwf	(___fladd@a+3)^0,c
  7345  002044                     l6308:
  7346  002044  8E37               	bsf	(___fladd@a+2)^0,7,c
  7347  002046  0E00               	movlw	0
  7348  002048  6E38               	movwf	(___fladd@a+3)^0,c
  7349  00204A  EF2F  F010         	goto	l6314
  7350  00204E                     l6312:
  7351  00204E  0E00               	movlw	0
  7352  002050  6E35               	movwf	___fladd@a^0,c
  7353  002052  0E00               	movlw	0
  7354  002054  6E36               	movwf	(___fladd@a+1)^0,c
  7355  002056  0E00               	movlw	0
  7356  002058  6E37               	movwf	(___fladd@a+2)^0,c
  7357  00205A  0E00               	movlw	0
  7358  00205C  6E38               	movwf	(___fladd@a+3)^0,c
  7359  00205E                     l6314:
  7360  00205E  503F               	movf	___fladd@bexp^0,w,c
  7361  002060  5C3E               	subwf	___fladd@aexp^0,w,c
  7362  002062  B0D8               	btfsc	status,0,c
  7363  002064  EF36  F010         	goto	u5471
  7364  002068  EF38  F010         	goto	u5470
  7365  00206C                     u5471:
  7366  00206C  EF5F  F010         	goto	l6350
  7367  002070                     u5470:
  7368  002070  AC3D               	btfss	___fladd@signs^0,6,c
  7369  002072  EF3D  F010         	goto	u5481
  7370  002076  EF3F  F010         	goto	u5480
  7371  00207A                     u5481:
  7372  00207A  EF41  F010         	goto	l6320
  7373  00207E                     u5480:
  7374  00207E  0E80               	movlw	128
  7375  002080  1A3D               	xorwf	___fladd@signs^0,f,c
  7376  002082                     l6320:
  7377  002082  C03F  F040         	movff	___fladd@bexp,___fladd@grs
  7378  002086  C03E  F03F         	movff	___fladd@aexp,___fladd@bexp
  7379  00208A  C040  F03E         	movff	___fladd@grs,___fladd@aexp
  7380  00208E  C031  F040         	movff	___fladd@b,___fladd@grs
  7381  002092  C035  F031         	movff	___fladd@a,___fladd@b
  7382  002096  C040  F035         	movff	___fladd@grs,___fladd@a
  7383  00209A  C032  F040         	movff	___fladd@b+1,___fladd@grs
  7384  00209E  C036  F032         	movff	___fladd@a+1,___fladd@b+1
  7385  0020A2  C040  F036         	movff	___fladd@grs,___fladd@a+1
  7386  0020A6  C033  F040         	movff	___fladd@b+2,___fladd@grs
  7387  0020AA  C037  F033         	movff	___fladd@a+2,___fladd@b+2
  7388  0020AE  C040  F037         	movff	___fladd@grs,___fladd@a+2
  7389  0020B2  C034  F040         	movff	___fladd@b+3,___fladd@grs
  7390  0020B6  C038  F034         	movff	___fladd@a+3,___fladd@b+3
  7391  0020BA  C040  F038         	movff	___fladd@grs,___fladd@a+3
  7392  0020BE                     l6350:
  7393  0020BE  0E00               	movlw	0
  7394  0020C0  6E40               	movwf	___fladd@grs^0,c
  7395  0020C2  503F               	movf	___fladd@bexp^0,w,c
  7396  0020C4  C03E  F039         	movff	___fladd@aexp,??___fladd
  7397  0020C8  6A3A               	clrf	(??___fladd+1)^0,c
  7398  0020CA  5E39               	subwf	??___fladd^0,f,c
  7399  0020CC  0E00               	movlw	0
  7400  0020CE  5A3A               	subwfb	(??___fladd+1)^0,f,c
  7401  0020D0  BE3A               	btfsc	(??___fladd+1)^0,7,c
  7402  0020D2  EF74  F010         	goto	u5491
  7403  0020D6  503A               	movf	(??___fladd+1)^0,w,c
  7404  0020D8  E109               	bnz	u5490
  7405  0020DA  0E1A               	movlw	26
  7406  0020DC  5C39               	subwf	??___fladd^0,w,c
  7407  0020DE  A0D8               	btfss	status,0,c
  7408  0020E0  EF74  F010         	goto	u5491
  7409  0020E4  EF76  F010         	goto	u5490
  7410  0020E8                     u5491:
  7411  0020E8  EFAD  F010         	goto	l1740
  7412  0020EC                     u5490:
  7413  0020EC  5031               	movf	___fladd@b^0,w,c
  7414  0020EE  1032               	iorwf	(___fladd@b+1)^0,w,c
  7415  0020F0  1033               	iorwf	(___fladd@b+2)^0,w,c
  7416  0020F2  1034               	iorwf	(___fladd@b+3)^0,w,c
  7417  0020F4  A4D8               	btfss	status,2,c
  7418  0020F6  EF7F  F010         	goto	u5501
  7419  0020FA  EF82  F010         	goto	u5500
  7420  0020FE                     u5501:
  7421  0020FE  0E01               	movlw	1
  7422  002100  EF83  F010         	goto	u5510
  7423  002104                     u5500:
  7424  002104  0E00               	movlw	0
  7425  002106                     u5510:
  7426  002106  6E40               	movwf	___fladd@grs^0,c
  7427  002108  0E00               	movlw	0
  7428  00210A  6E31               	movwf	___fladd@b^0,c
  7429  00210C  0E00               	movlw	0
  7430  00210E  6E32               	movwf	(___fladd@b+1)^0,c
  7431  002110  0E00               	movlw	0
  7432  002112  6E33               	movwf	(___fladd@b+2)^0,c
  7433  002114  0E00               	movlw	0
  7434  002116  6E34               	movwf	(___fladd@b+3)^0,c
  7435  002118  C03E  F03F         	movff	___fladd@aexp,___fladd@bexp
  7436  00211C  EFB6  F010         	goto	l1739
  7437  002120                     l1741:
  7438  002120  A040               	btfss	___fladd@grs^0,0,c
  7439  002122  EF95  F010         	goto	u5521
  7440  002126  EF97  F010         	goto	u5520
  7441  00212A                     u5521:
  7442  00212A  EF9D  F010         	goto	l6362
  7443  00212E                     u5520:
  7444  00212E  90D8               	bcf	status,0,c
  7445  002130  3040               	rrcf	___fladd@grs^0,w,c
  7446  002132  0901               	iorlw	1
  7447  002134  6E40               	movwf	___fladd@grs^0,c
  7448  002136  EF9F  F010         	goto	l6364
  7449  00213A                     l6362:
  7450  00213A  90D8               	bcf	status,0,c
  7451  00213C  3240               	rrcf	___fladd@grs^0,f,c
  7452  00213E                     l6364:
  7453  00213E  A031               	btfss	___fladd@b^0,0,c
  7454  002140  EFA4  F010         	goto	u5531
  7455  002144  EFA6  F010         	goto	u5530
  7456  002148                     u5531:
  7457  002148  EFA7  F010         	goto	l6368
  7458  00214C                     u5530:
  7459  00214C  8E40               	bsf	___fladd@grs^0,7,c
  7460  00214E                     l6368:
  7461  00214E  3434               	rlcf	(___fladd@b+3)^0,w,c
  7462  002150  3234               	rrcf	(___fladd@b+3)^0,f,c
  7463  002152  3233               	rrcf	(___fladd@b+2)^0,f,c
  7464  002154  3232               	rrcf	(___fladd@b+1)^0,f,c
  7465  002156  3231               	rrcf	___fladd@b^0,f,c
  7466  002158  2A3F               	incf	___fladd@bexp^0,f,c
  7467  00215A                     l1740:
  7468  00215A  503E               	movf	___fladd@aexp^0,w,c
  7469  00215C  5C3F               	subwf	___fladd@bexp^0,w,c
  7470  00215E  A0D8               	btfss	status,0,c
  7471  002160  EFB4  F010         	goto	u5541
  7472  002164  EFB6  F010         	goto	u5540
  7473  002168                     u5541:
  7474  002168  EF90  F010         	goto	l1741
  7475  00216C                     u5540:
  7476  00216C                     l1739:
  7477  00216C  BC3D               	btfsc	___fladd@signs^0,6,c
  7478  00216E  EFBB  F010         	goto	u5551
  7479  002172  EFBD  F010         	goto	u5550
  7480  002176                     u5551:
  7481  002176  EFFD  F010         	goto	l6396
  7482  00217A                     u5550:
  7483  00217A  503F               	movf	___fladd@bexp^0,w,c
  7484  00217C  A4D8               	btfss	status,2,c
  7485  00217E  EFC3  F010         	goto	u5561
  7486  002182  EFC5  F010         	goto	u5560
  7487  002186                     u5561:
  7488  002186  EFCF  F010         	goto	l6378
  7489  00218A                     u5560:
  7490  00218A  0E00               	movlw	0
  7491  00218C  6E31               	movwf	?___fladd^0,c
  7492  00218E  0E00               	movlw	0
  7493  002190  6E32               	movwf	(?___fladd+1)^0,c
  7494  002192  0E00               	movlw	0
  7495  002194  6E33               	movwf	(?___fladd+2)^0,c
  7496  002196  0E00               	movlw	0
  7497  002198  6E34               	movwf	(?___fladd+3)^0,c
  7498  00219A  EF1E  F012         	goto	l1748
  7499  00219E                     l6378:
  7500  00219E  5035               	movf	___fladd@a^0,w,c
  7501  0021A0  2631               	addwf	___fladd@b^0,f,c
  7502  0021A2  5036               	movf	(___fladd@a+1)^0,w,c
  7503  0021A4  2232               	addwfc	(___fladd@b+1)^0,f,c
  7504  0021A6  5037               	movf	(___fladd@a+2)^0,w,c
  7505  0021A8  2233               	addwfc	(___fladd@b+2)^0,f,c
  7506  0021AA  5038               	movf	(___fladd@a+3)^0,w,c
  7507  0021AC  2234               	addwfc	(___fladd@b+3)^0,f,c
  7508  0021AE  A034               	btfss	(___fladd@b+3)^0,0,c
  7509  0021B0  EFDC  F010         	goto	u5571
  7510  0021B4  EFDE  F010         	goto	u5570
  7511  0021B8                     u5571:
  7512  0021B8  EF8A  F011         	goto	l6432
  7513  0021BC                     u5570:
  7514  0021BC  A040               	btfss	___fladd@grs^0,0,c
  7515  0021BE  EFE3  F010         	goto	u5581
  7516  0021C2  EFE5  F010         	goto	u5580
  7517  0021C6                     u5581:
  7518  0021C6  EFEB  F010         	goto	l6386
  7519  0021CA                     u5580:
  7520  0021CA  90D8               	bcf	status,0,c
  7521  0021CC  3040               	rrcf	___fladd@grs^0,w,c
  7522  0021CE  0901               	iorlw	1
  7523  0021D0  6E40               	movwf	___fladd@grs^0,c
  7524  0021D2  EFED  F010         	goto	l6388
  7525  0021D6                     l6386:
  7526  0021D6  90D8               	bcf	status,0,c
  7527  0021D8  3240               	rrcf	___fladd@grs^0,f,c
  7528  0021DA                     l6388:
  7529  0021DA  A031               	btfss	___fladd@b^0,0,c
  7530  0021DC  EFF2  F010         	goto	u5591
  7531  0021E0  EFF4  F010         	goto	u5590
  7532  0021E4                     u5591:
  7533  0021E4  EFF5  F010         	goto	l6392
  7534  0021E8                     u5590:
  7535  0021E8  8E40               	bsf	___fladd@grs^0,7,c
  7536  0021EA                     l6392:
  7537  0021EA  3434               	rlcf	(___fladd@b+3)^0,w,c
  7538  0021EC  3234               	rrcf	(___fladd@b+3)^0,f,c
  7539  0021EE  3233               	rrcf	(___fladd@b+2)^0,f,c
  7540  0021F0  3232               	rrcf	(___fladd@b+1)^0,f,c
  7541  0021F2  3231               	rrcf	___fladd@b^0,f,c
  7542  0021F4  2A3F               	incf	___fladd@bexp^0,f,c
  7543  0021F6  EF8A  F011         	goto	l6432
  7544  0021FA                     l6396:
  7545  0021FA  5035               	movf	___fladd@a^0,w,c
  7546  0021FC  5C31               	subwf	___fladd@b^0,w,c
  7547  0021FE  5036               	movf	(___fladd@a+1)^0,w,c
  7548  002200  5832               	subwfb	(___fladd@b+1)^0,w,c
  7549  002202  5037               	movf	(___fladd@a+2)^0,w,c
  7550  002204  5833               	subwfb	(___fladd@b+2)^0,w,c
  7551  002206  5034               	movf	(___fladd@b+3)^0,w,c
  7552  002208  0A80               	xorlw	128
  7553  00220A  6E39               	movwf	??___fladd^0,c
  7554  00220C  5038               	movf	(___fladd@a+3)^0,w,c
  7555  00220E  0A80               	xorlw	128
  7556  002210  5839               	subwfb	??___fladd^0,w,c
  7557  002212  B0D8               	btfsc	status,0,c
  7558  002214  EF0E  F011         	goto	u5601
  7559  002218  EF10  F011         	goto	u5600
  7560  00221C                     u5601:
  7561  00221C  EF3B  F011         	goto	l6406
  7562  002220                     u5600:
  7563  002220  5031               	movf	___fladd@b^0,w,c
  7564  002222  5C35               	subwf	___fladd@a^0,w,c
  7565  002224  6E39               	movwf	??___fladd^0,c
  7566  002226  5032               	movf	(___fladd@b+1)^0,w,c
  7567  002228  5836               	subwfb	(___fladd@a+1)^0,w,c
  7568  00222A  6E3A               	movwf	(??___fladd+1)^0,c
  7569  00222C  5033               	movf	(___fladd@b+2)^0,w,c
  7570  00222E  5837               	subwfb	(___fladd@a+2)^0,w,c
  7571  002230  6E3B               	movwf	(??___fladd+2)^0,c
  7572  002232  5034               	movf	(___fladd@b+3)^0,w,c
  7573  002234  5838               	subwfb	(___fladd@a+3)^0,w,c
  7574  002236  6E3C               	movwf	(??___fladd+3)^0,c
  7575  002238  0EFF               	movlw	255
  7576  00223A  2439               	addwf	??___fladd^0,w,c
  7577  00223C  6E31               	movwf	___fladd@b^0,c
  7578  00223E  0EFF               	movlw	255
  7579  002240  203A               	addwfc	(??___fladd+1)^0,w,c
  7580  002242  6E32               	movwf	(___fladd@b+1)^0,c
  7581  002244  0EFF               	movlw	255
  7582  002246  203B               	addwfc	(??___fladd+2)^0,w,c
  7583  002248  6E33               	movwf	(___fladd@b+2)^0,c
  7584  00224A  0EFF               	movlw	255
  7585  00224C  203C               	addwfc	(??___fladd+3)^0,w,c
  7586  00224E  6E34               	movwf	(___fladd@b+3)^0,c
  7587  002250  0E80               	movlw	128
  7588  002252  1A3D               	xorwf	___fladd@signs^0,f,c
  7589  002254  6C40               	negf	___fladd@grs^0,c
  7590  002256  5040               	movf	___fladd@grs^0,w,c
  7591  002258  A4D8               	btfss	status,2,c
  7592  00225A  EF31  F011         	goto	u5611
  7593  00225E  EF33  F011         	goto	u5610
  7594  002262                     u5611:
  7595  002262  EF43  F011         	goto	l1756
  7596  002266                     u5610:
  7597  002266  0E01               	movlw	1
  7598  002268  2631               	addwf	___fladd@b^0,f,c
  7599  00226A  0E00               	movlw	0
  7600  00226C  2232               	addwfc	(___fladd@b+1)^0,f,c
  7601  00226E  2233               	addwfc	(___fladd@b+2)^0,f,c
  7602  002270  2234               	addwfc	(___fladd@b+3)^0,f,c
  7603  002272  EF43  F011         	goto	l1756
  7604  002276                     l6406:
  7605  002276  5035               	movf	___fladd@a^0,w,c
  7606  002278  5E31               	subwf	___fladd@b^0,f,c
  7607  00227A  5036               	movf	(___fladd@a+1)^0,w,c
  7608  00227C  5A32               	subwfb	(___fladd@b+1)^0,f,c
  7609  00227E  5037               	movf	(___fladd@a+2)^0,w,c
  7610  002280  5A33               	subwfb	(___fladd@b+2)^0,f,c
  7611  002282  5038               	movf	(___fladd@a+3)^0,w,c
  7612  002284  5A34               	subwfb	(___fladd@b+3)^0,f,c
  7613  002286                     l1756:
  7614  002286  5031               	movf	___fladd@b^0,w,c
  7615  002288  1032               	iorwf	(___fladd@b+1)^0,w,c
  7616  00228A  1033               	iorwf	(___fladd@b+2)^0,w,c
  7617  00228C  1034               	iorwf	(___fladd@b+3)^0,w,c
  7618  00228E  A4D8               	btfss	status,2,c
  7619  002290  EF4C  F011         	goto	u5621
  7620  002294  EF4E  F011         	goto	u5620
  7621  002298                     u5621:
  7622  002298  EF83  F011         	goto	l6430
  7623  00229C                     u5620:
  7624  00229C  5040               	movf	___fladd@grs^0,w,c
  7625  00229E  A4D8               	btfss	status,2,c
  7626  0022A0  EF54  F011         	goto	u5631
  7627  0022A4  EF56  F011         	goto	u5630
  7628  0022A8                     u5631:
  7629  0022A8  EF83  F011         	goto	l6430
  7630  0022AC                     u5630:
  7631  0022AC  0E00               	movlw	0
  7632  0022AE  6E31               	movwf	?___fladd^0,c
  7633  0022B0  0E00               	movlw	0
  7634  0022B2  6E32               	movwf	(?___fladd+1)^0,c
  7635  0022B4  0E00               	movlw	0
  7636  0022B6  6E33               	movwf	(?___fladd+2)^0,c
  7637  0022B8  0E00               	movlw	0
  7638  0022BA  6E34               	movwf	(?___fladd+3)^0,c
  7639  0022BC  EF1E  F012         	goto	l1748
  7640  0022C0                     l6414:
  7641  0022C0  90D8               	bcf	status,0,c
  7642  0022C2  3631               	rlcf	___fladd@b^0,f,c
  7643  0022C4  3632               	rlcf	(___fladd@b+1)^0,f,c
  7644  0022C6  3633               	rlcf	(___fladd@b+2)^0,f,c
  7645  0022C8  3634               	rlcf	(___fladd@b+3)^0,f,c
  7646  0022CA  AE40               	btfss	___fladd@grs^0,7,c
  7647  0022CC  EF6A  F011         	goto	u5641
  7648  0022D0  EF6C  F011         	goto	u5640
  7649  0022D4                     u5641:
  7650  0022D4  EF6D  F011         	goto	l6420
  7651  0022D8                     u5640:
  7652  0022D8  8031               	bsf	___fladd@b^0,0,c
  7653  0022DA                     l6420:
  7654  0022DA  A040               	btfss	___fladd@grs^0,0,c
  7655  0022DC  EF72  F011         	goto	u5651
  7656  0022E0  EF74  F011         	goto	u5650
  7657  0022E4                     u5651:
  7658  0022E4  EF78  F011         	goto	l6424
  7659  0022E8                     u5650:
  7660  0022E8  80D8               	bsf	status,0,c
  7661  0022EA  3640               	rlcf	___fladd@grs^0,f,c
  7662  0022EC  EF7A  F011         	goto	l6426
  7663  0022F0                     l6424:
  7664  0022F0  90D8               	bcf	status,0,c
  7665  0022F2  3640               	rlcf	___fladd@grs^0,f,c
  7666  0022F4                     l6426:
  7667  0022F4  503F               	movf	___fladd@bexp^0,w,c
  7668  0022F6  B4D8               	btfsc	status,2,c
  7669  0022F8  EF80  F011         	goto	u5661
  7670  0022FC  EF82  F011         	goto	u5660
  7671  002300                     u5661:
  7672  002300  EF83  F011         	goto	l6430
  7673  002304                     u5660:
  7674  002304  063F               	decf	___fladd@bexp^0,f,c
  7675  002306                     l6430:
  7676  002306  AE33               	btfss	(___fladd@b+2)^0,7,c
  7677  002308  EF88  F011         	goto	u5671
  7678  00230C  EF8A  F011         	goto	u5670
  7679  002310                     u5671:
  7680  002310  EF60  F011         	goto	l6414
  7681  002314                     u5670:
  7682  002314                     l6432:
  7683  002314  0E00               	movlw	0
  7684  002316  6E3E               	movwf	___fladd@aexp^0,c
  7685  002318  AE40               	btfss	___fladd@grs^0,7,c
  7686  00231A  EF91  F011         	goto	u5681
  7687  00231E  EF93  F011         	goto	u5680
  7688  002322                     u5681:
  7689  002322  EFAB  F011         	goto	l1765
  7690  002326                     u5680:
  7691  002326  C040  F039         	movff	___fladd@grs,??___fladd
  7692  00232A  0E7F               	movlw	127
  7693  00232C  1639               	andwf	??___fladd^0,f,c
  7694  00232E  B4D8               	btfsc	status,2,c
  7695  002330  EF9C  F011         	goto	u5691
  7696  002334  EF9E  F011         	goto	u5690
  7697  002338                     u5691:
  7698  002338  EFA2  F011         	goto	l1766
  7699  00233C                     u5690:
  7700  00233C                     l6438:
  7701  00233C  0E01               	movlw	1
  7702  00233E  6E3E               	movwf	___fladd@aexp^0,c
  7703  002340  EFAB  F011         	goto	l1765
  7704  002344                     l1766:
  7705  002344  A031               	btfss	___fladd@b^0,0,c
  7706  002346  EFA7  F011         	goto	u5701
  7707  00234A  EFA9  F011         	goto	u5700
  7708  00234E                     u5701:
  7709  00234E  EFAB  F011         	goto	l1765
  7710  002352                     u5700:
  7711  002352  EF9E  F011         	goto	l6438
  7712  002356                     l1765:
  7713  002356  503E               	movf	___fladd@aexp^0,w,c
  7714  002358  B4D8               	btfsc	status,2,c
  7715  00235A  EFB1  F011         	goto	u5711
  7716  00235E  EFB3  F011         	goto	u5710
  7717  002362                     u5711:
  7718  002362  EFDE  F011         	goto	l6450
  7719  002366                     u5710:
  7720  002366  0E01               	movlw	1
  7721  002368  2631               	addwf	___fladd@b^0,f,c
  7722  00236A  0E00               	movlw	0
  7723  00236C  2232               	addwfc	(___fladd@b+1)^0,f,c
  7724  00236E  2233               	addwfc	(___fladd@b+2)^0,f,c
  7725  002370  2234               	addwfc	(___fladd@b+3)^0,f,c
  7726  002372  A034               	btfss	(___fladd@b+3)^0,0,c
  7727  002374  EFBE  F011         	goto	u5721
  7728  002378  EFC0  F011         	goto	u5720
  7729  00237C                     u5721:
  7730  00237C  EFDE  F011         	goto	l6450
  7731  002380                     u5720:
  7732  002380  C031  F039         	movff	___fladd@b,??___fladd
  7733  002384  C032  F03A         	movff	___fladd@b+1,??___fladd+1
  7734  002388  C033  F03B         	movff	___fladd@b+2,??___fladd+2
  7735  00238C  C034  F03C         	movff	___fladd@b+3,??___fladd+3
  7736  002390  343C               	rlcf	(??___fladd+3)^0,w,c
  7737  002392  323C               	rrcf	(??___fladd+3)^0,f,c
  7738  002394  323B               	rrcf	(??___fladd+2)^0,f,c
  7739  002396  323A               	rrcf	(??___fladd+1)^0,f,c
  7740  002398  3239               	rrcf	??___fladd^0,f,c
  7741  00239A  C039  F031         	movff	??___fladd,___fladd@b
  7742  00239E  C03A  F032         	movff	??___fladd+1,___fladd@b+1
  7743  0023A2  C03B  F033         	movff	??___fladd+2,___fladd@b+2
  7744  0023A6  C03C  F034         	movff	??___fladd+3,___fladd@b+3
  7745  0023AA  283F               	incf	___fladd@bexp^0,w,c
  7746  0023AC  B4D8               	btfsc	status,2,c
  7747  0023AE  EFDB  F011         	goto	u5731
  7748  0023B2  EFDD  F011         	goto	u5730
  7749  0023B6                     u5731:
  7750  0023B6  EFDE  F011         	goto	l6450
  7751  0023BA                     u5730:
  7752  0023BA  2A3F               	incf	___fladd@bexp^0,f,c
  7753  0023BC                     l6450:
  7754  0023BC  283F               	incf	___fladd@bexp^0,w,c
  7755  0023BE  B4D8               	btfsc	status,2,c
  7756  0023C0  EFE4  F011         	goto	u5741
  7757  0023C4  EFE6  F011         	goto	u5740
  7758  0023C8                     u5741:
  7759  0023C8  EFEE  F011         	goto	l6454
  7760  0023CC                     u5740:
  7761  0023CC  503F               	movf	___fladd@bexp^0,w,c
  7762  0023CE  A4D8               	btfss	status,2,c
  7763  0023D0  EFEC  F011         	goto	u5751
  7764  0023D4  EFEE  F011         	goto	u5750
  7765  0023D8                     u5751:
  7766  0023D8  EF00  F012         	goto	l6458
  7767  0023DC                     u5750:
  7768  0023DC                     l6454:
  7769  0023DC  0E00               	movlw	0
  7770  0023DE  6E31               	movwf	___fladd@b^0,c
  7771  0023E0  0E00               	movlw	0
  7772  0023E2  6E32               	movwf	(___fladd@b+1)^0,c
  7773  0023E4  0E00               	movlw	0
  7774  0023E6  6E33               	movwf	(___fladd@b+2)^0,c
  7775  0023E8  0E00               	movlw	0
  7776  0023EA  6E34               	movwf	(___fladd@b+3)^0,c
  7777  0023EC  503F               	movf	___fladd@bexp^0,w,c
  7778  0023EE  A4D8               	btfss	status,2,c
  7779  0023F0  EFFC  F011         	goto	u5761
  7780  0023F4  EFFE  F011         	goto	u5760
  7781  0023F8                     u5761:
  7782  0023F8  EF00  F012         	goto	l6458
  7783  0023FC                     u5760:
  7784  0023FC  0E00               	movlw	0
  7785  0023FE  6E3D               	movwf	___fladd@signs^0,c
  7786  002400                     l6458:
  7787  002400  A03F               	btfss	___fladd@bexp^0,0,c
  7788  002402  EF05  F012         	goto	u5771
  7789  002406  EF07  F012         	goto	u5770
  7790  00240A                     u5771:
  7791  00240A  EF0A  F012         	goto	l6462
  7792  00240E                     u5770:
  7793  00240E  8E33               	bsf	(___fladd@b+2)^0,7,c
  7794  002410  EF0B  F012         	goto	l6464
  7795  002414                     l6462:
  7796  002414  9E33               	bcf	(___fladd@b+2)^0,7,c
  7797  002416                     l6464:
  7798  002416  90D8               	bcf	status,0,c
  7799  002418  303F               	rrcf	___fladd@bexp^0,w,c
  7800  00241A  6E34               	movwf	(___fladd@b+3)^0,c
  7801  00241C  AE3D               	btfss	___fladd@signs^0,7,c
  7802  00241E  EF13  F012         	goto	u5781
  7803  002422  EF15  F012         	goto	u5780
  7804  002426                     u5781:
  7805  002426  EF16  F012         	goto	l6470
  7806  00242A                     u5780:
  7807  00242A  8E34               	bsf	(___fladd@b+3)^0,7,c
  7808  00242C                     l6470:
  7809  00242C  C031  F031         	movff	___fladd@b,?___fladd
  7810  002430  C032  F032         	movff	___fladd@b+1,?___fladd+1
  7811  002434  C033  F033         	movff	___fladd@b+2,?___fladd+2
  7812  002438  C034  F034         	movff	___fladd@b+3,?___fladd+3
  7813  00243C                     l1748:
  7814  00243C  0012               	return		;funcret
  7815  00243E                     __end_of___fladd:
  7816                           	opt callstack 0
  7817                           
  7818 ;; *************** function ___awdiv *****************
  7819 ;; Defined at:
  7820 ;;		line 7 in file "C:\Program Files (x86)\Microchip\xc8\v2.10\pic\sources\c99\common\awdiv.c"
  7821 ;; Parameters:    Size  Location     Type
  7822 ;;  dividend        2    4[COMRAM] int 
  7823 ;;  divisor         2    6[COMRAM] int 
  7824 ;; Auto vars:     Size  Location     Type
  7825 ;;  quotient        2   10[COMRAM] int 
  7826 ;;  sign            1    9[COMRAM] unsigned char 
  7827 ;;  counter         1    8[COMRAM] unsigned char 
  7828 ;; Return value:  Size  Location     Type
  7829 ;;                  2    4[COMRAM] int 
  7830 ;; Registers used:
  7831 ;;		wreg, status,2, status,0
  7832 ;; Tracked objects:
  7833 ;;		On entry : 0/0
  7834 ;;		On exit  : 0/0
  7835 ;;		Unchanged: 0/0
  7836 ;; Data sizes:     COMRAM   BANK0   BANK1   BANK2   BANK3   BANK4   BANK5   BANK6   BANK7   BANK8   BANK9  BANK10  BANK1
      +1  BANK12  BANK13  BANK14  BANK15
  7837 ;;      Params:         4       0       0       0       0       0       0       0       0       0       0       0       
      +0       0       0       0       0
  7838 ;;      Locals:         4       0       0       0       0       0       0       0       0       0       0       0       
      +0       0       0       0       0
  7839 ;;      Temps:          0       0       0       0       0       0       0       0       0       0       0       0       
      +0       0       0       0       0
  7840 ;;      Totals:         8       0       0       0       0       0       0       0       0       0       0       0       
      +0       0       0       0       0
  7841 ;;Total ram usage:        8 bytes
  7842 ;; Hardware stack levels used:    1
  7843 ;; Hardware stack levels required when called:    3
  7844 ;; This function calls:
  7845 ;;		Nothing
  7846 ;; This function is called by:
  7847 ;;		_ctrl_task
  7848 ;; This function uses a non-reentrant model
  7849 ;;
  7850                           
  7851                           	psect	text14
  7852  00389A                     __ptext14:
  7853                           	opt callstack 0
  7854  00389A                     ___awdiv:
  7855                           	opt callstack 26
  7856  00389A  0E00               	movlw	0
  7857  00389C  6E0A               	movwf	___awdiv@sign^0,c
  7858  00389E  BE08               	btfsc	(___awdiv@divisor+1)^0,7,c
  7859  0038A0  EF56  F01C         	goto	u6400
  7860  0038A4  EF54  F01C         	goto	u6401
  7861  0038A8                     u6401:
  7862  0038A8  EF5C  F01C         	goto	l7242
  7863  0038AC                     u6400:
  7864  0038AC  6C07               	negf	___awdiv@divisor^0,c
  7865  0038AE  1E08               	comf	(___awdiv@divisor+1)^0,f,c
  7866  0038B0  B0D8               	btfsc	status,0,c
  7867  0038B2  2A08               	incf	(___awdiv@divisor+1)^0,f,c
  7868  0038B4  0E01               	movlw	1
  7869  0038B6  6E0A               	movwf	___awdiv@sign^0,c
  7870  0038B8                     l7242:
  7871  0038B8  BE06               	btfsc	(___awdiv@dividend+1)^0,7,c
  7872  0038BA  EF63  F01C         	goto	u6410
  7873  0038BE  EF61  F01C         	goto	u6411
  7874  0038C2                     u6411:
  7875  0038C2  EF69  F01C         	goto	l7248
  7876  0038C6                     u6410:
  7877  0038C6  6C05               	negf	___awdiv@dividend^0,c
  7878  0038C8  1E06               	comf	(___awdiv@dividend+1)^0,f,c
  7879  0038CA  B0D8               	btfsc	status,0,c
  7880  0038CC  2A06               	incf	(___awdiv@dividend+1)^0,f,c
  7881  0038CE  0E01               	movlw	1
  7882  0038D0  1A0A               	xorwf	___awdiv@sign^0,f,c
  7883  0038D2                     l7248:
  7884  0038D2  0E00               	movlw	0
  7885  0038D4  6E0C               	movwf	(___awdiv@quotient+1)^0,c
  7886  0038D6  0E00               	movlw	0
  7887  0038D8  6E0B               	movwf	___awdiv@quotient^0,c
  7888  0038DA  5007               	movf	___awdiv@divisor^0,w,c
  7889  0038DC  1008               	iorwf	(___awdiv@divisor+1)^0,w,c
  7890  0038DE  B4D8               	btfsc	status,2,c
  7891  0038E0  EF74  F01C         	goto	u6421
  7892  0038E4  EF76  F01C         	goto	u6420
  7893  0038E8                     u6421:
  7894  0038E8  EF9E  F01C         	goto	l7270
  7895  0038EC                     u6420:
  7896  0038EC  0E01               	movlw	1
  7897  0038EE  6E09               	movwf	___awdiv@counter^0,c
  7898  0038F0  EF7E  F01C         	goto	l7256
  7899  0038F4                     l7254:
  7900  0038F4  90D8               	bcf	status,0,c
  7901  0038F6  3607               	rlcf	___awdiv@divisor^0,f,c
  7902  0038F8  3608               	rlcf	(___awdiv@divisor+1)^0,f,c
  7903  0038FA  2A09               	incf	___awdiv@counter^0,f,c
  7904  0038FC                     l7256:
  7905  0038FC  AE08               	btfss	(___awdiv@divisor+1)^0,7,c
  7906  0038FE  EF83  F01C         	goto	u6431
  7907  003902  EF85  F01C         	goto	u6430
  7908  003906                     u6431:
  7909  003906  EF7A  F01C         	goto	l7254
  7910  00390A                     u6430:
  7911  00390A                     l7258:
  7912  00390A  90D8               	bcf	status,0,c
  7913  00390C  360B               	rlcf	___awdiv@quotient^0,f,c
  7914  00390E  360C               	rlcf	(___awdiv@quotient+1)^0,f,c
  7915  003910  5007               	movf	___awdiv@divisor^0,w,c
  7916  003912  5C05               	subwf	___awdiv@dividend^0,w,c
  7917  003914  5008               	movf	(___awdiv@divisor+1)^0,w,c
  7918  003916  5806               	subwfb	(___awdiv@dividend+1)^0,w,c
  7919  003918  A0D8               	btfss	status,0,c
  7920  00391A  EF91  F01C         	goto	u6441
  7921  00391E  EF93  F01C         	goto	u6440
  7922  003922                     u6441:
  7923  003922  EF98  F01C         	goto	l7266
  7924  003926                     u6440:
  7925  003926  5007               	movf	___awdiv@divisor^0,w,c
  7926  003928  5E05               	subwf	___awdiv@dividend^0,f,c
  7927  00392A  5008               	movf	(___awdiv@divisor+1)^0,w,c
  7928  00392C  5A06               	subwfb	(___awdiv@dividend+1)^0,f,c
  7929  00392E  800B               	bsf	___awdiv@quotient^0,0,c
  7930  003930                     l7266:
  7931  003930  90D8               	bcf	status,0,c
  7932  003932  3208               	rrcf	(___awdiv@divisor+1)^0,f,c
  7933  003934  3207               	rrcf	___awdiv@divisor^0,f,c
  7934  003936  2E09               	decfsz	___awdiv@counter^0,f,c
  7935  003938  EF85  F01C         	goto	l7258
  7936  00393C                     l7270:
  7937  00393C  500A               	movf	___awdiv@sign^0,w,c
  7938  00393E  B4D8               	btfsc	status,2,c
  7939  003940  EFA4  F01C         	goto	u6451
  7940  003944  EFA6  F01C         	goto	u6450
  7941  003948                     u6451:
  7942  003948  EFAA  F01C         	goto	l7274
  7943  00394C                     u6450:
  7944  00394C  6C0B               	negf	___awdiv@quotient^0,c
  7945  00394E  1E0C               	comf	(___awdiv@quotient+1)^0,f,c
  7946  003950  B0D8               	btfsc	status,0,c
  7947  003952  2A0C               	incf	(___awdiv@quotient+1)^0,f,c
  7948  003954                     l7274:
  7949  003954  C00B  F005         	movff	___awdiv@quotient,?___awdiv
  7950  003958  C00C  F006         	movff	___awdiv@quotient+1,?___awdiv+1
  7951  00395C  0012               	return		;funcret
  7952  00395E                     __end_of___awdiv:
  7953                           	opt callstack 0
  7954                           
  7955 ;; *************** function _Sring_7segdisplay *****************
  7956 ;; Defined at:
  7957 ;;		line 1175 in file "main.c"
  7958 ;; Parameters:    Size  Location     Type
  7959 ;;  line            1    wreg     unsigned char 
  7960 ;;  char3           1   13[COMRAM] unsigned char 
  7961 ;;  char2           1   14[COMRAM] unsigned char 
  7962 ;;  char1           1   15[COMRAM] unsigned char 
  7963 ;;  char0           1   16[COMRAM] unsigned char 
  7964 ;; Auto vars:     Size  Location     Type
  7965 ;;  line            1   17[COMRAM] unsigned char 
  7966 ;; Return value:  Size  Location     Type
  7967 ;;                  1    wreg      void 
  7968 ;; Registers used:
  7969 ;;		wreg, status,2, status,0, cstack
  7970 ;; Tracked objects:
  7971 ;;		On entry : 0/0
  7972 ;;		On exit  : 0/0
  7973 ;;		Unchanged: 0/0
  7974 ;; Data sizes:     COMRAM   BANK0   BANK1   BANK2   BANK3   BANK4   BANK5   BANK6   BANK7   BANK8   BANK9  BANK10  BANK1
      +1  BANK12  BANK13  BANK14  BANK15
  7975 ;;      Params:         4       0       0       0       0       0       0       0       0       0       0       0       
      +0       0       0       0       0
  7976 ;;      Locals:         1       0       0       0       0       0       0       0       0       0       0       0       
      +0       0       0       0       0
  7977 ;;      Temps:          0       0       0       0       0       0       0       0       0       0       0       0       
      +0       0       0       0       0
  7978 ;;      Totals:         5       0       0       0       0       0       0       0       0       0       0       0       
      +0       0       0       0       0
  7979 ;;Total ram usage:        5 bytes
  7980 ;; Hardware stack levels used:    1
  7981 ;; Hardware stack levels required when called:    5
  7982 ;; This function calls:
  7983 ;;		_mask
  7984 ;;		_sev_display1
  7985 ;;		_sev_display2
  7986 ;; This function is called by:
  7987 ;;		_ctrl_task
  7988 ;; This function uses a non-reentrant model
  7989 ;;
  7990                           
  7991                           	psect	text15
  7992  00316A                     __ptext15:
  7993                           	opt callstack 0
  7994  00316A                     _Sring_7segdisplay:
  7995                           	opt callstack 24
  7996                           
  7997                           ;incstack = 0
  7998                           ;Sring_7segdisplay@line stored from wreg
  7999  00316A  6E12               	movwf	Sring_7segdisplay@line^0,c
  8000  00316C                     
  8001                           ;main.c: 1175: void Sring_7segdisplay(char line,char char3,char char2,char char1,char ch
      +                          ar0);main.c: 1176: {;main.c: 1177:     static unsigned int uint_blinkcnt = 0;;main.c: 11
      +                          78:     if(line == 1)
  8002  00316C  0412               	decf	Sring_7segdisplay@line^0,w,c
  8003  00316E  A4D8               	btfss	status,2,c
  8004  003170  EFBC  F018         	goto	u6101
  8005  003174  EFBE  F018         	goto	u6100
  8006  003178                     u6101:
  8007  003178  EF1F  F019         	goto	l7054
  8008  00317C                     u6100:
  8009  00317C                     
  8010                           ;main.c: 1179:     {;main.c: 1180:         uint_blinkcnt++;
  8011  00317C  0100               	movlb	0	; () banked
  8012  00317E  4B88               	infsnz	Sring_7segdisplay@uint_blinkcnt& (0+255),f,b
  8013  003180  2B89               	incf	(Sring_7segdisplay@uint_blinkcnt+1)& (0+255),f,b
  8014  003182                     
  8015                           ; BSR set to: 0
  8016                           ;main.c: 1181:         if(uint_blinkcnt > 200)
  8017  003182  5189               	movf	(Sring_7segdisplay@uint_blinkcnt+1)& (0+255),w,b
  8018  003184  E109               	bnz	u6110
  8019  003186  0EC9               	movlw	201
  8020  003188  5D88               	subwf	Sring_7segdisplay@uint_blinkcnt& (0+255),w,b
  8021  00318A  A0D8               	btfss	status,0,c
  8022  00318C  EFCA  F018         	goto	u6111
  8023  003190  EFCC  F018         	goto	u6110
  8024  003194                     u6111:
  8025  003194  EFD2  F018         	goto	l7048
  8026  003198                     u6110:
  8027  003198                     
  8028                           ; BSR set to: 0
  8029                           ;main.c: 1182:         {;main.c: 1183:             uint_blinkcnt = 0;
  8030  003198  0E00               	movlw	0
  8031  00319A  6F89               	movwf	(Sring_7segdisplay@uint_blinkcnt+1)& (0+255),b
  8032  00319C  0E00               	movlw	0
  8033  00319E  6F88               	movwf	Sring_7segdisplay@uint_blinkcnt& (0+255),b
  8034                           
  8035                           ;main.c: 1184:         }
  8036  0031A0  EF45  F019         	goto	l834
  8037  0031A4                     l7048:
  8038                           
  8039                           ; BSR set to: 0
  8040  0031A4  5189               	movf	(Sring_7segdisplay@uint_blinkcnt+1)& (0+255),w,b
  8041  0031A6  E109               	bnz	u6120
  8042  0031A8  0E97               	movlw	151
  8043  0031AA  5D88               	subwf	Sring_7segdisplay@uint_blinkcnt& (0+255),w,b
  8044  0031AC  A0D8               	btfss	status,0,c
  8045  0031AE  EFDB  F018         	goto	u6121
  8046  0031B2  EFDD  F018         	goto	u6120
  8047  0031B6                     u6121:
  8048  0031B6  EF00  F019         	goto	l7052
  8049  0031BA                     u6120:
  8050  0031BA                     
  8051                           ; BSR set to: 0
  8052                           ;main.c: 1186:         {;main.c: 1187:             sev_display1(mask(10),mask(10),mask(1
      +                          0),mask(10));
  8053  0031BA  0E00               	movlw	0
  8054  0031BC  6E06               	movwf	(mask@num+1)^0,c
  8055  0031BE  0E0A               	movlw	10
  8056  0031C0  6E05               	movwf	mask@num^0,c
  8057  0031C2  EC01  F016         	call	_mask	;wreg free
  8058  0031C6  5005               	movf	?_mask^0,w,c
  8059  0031C8  6E09               	movwf	sev_display1@DD1^0,c
  8060  0031CA  0E00               	movlw	0
  8061  0031CC  6E06               	movwf	(mask@num+1)^0,c
  8062  0031CE  0E0A               	movlw	10
  8063  0031D0  6E05               	movwf	mask@num^0,c
  8064  0031D2  EC01  F016         	call	_mask	;wreg free
  8065  0031D6  5005               	movf	?_mask^0,w,c
  8066  0031D8  6E0A               	movwf	sev_display1@DD2^0,c
  8067  0031DA  0E00               	movlw	0
  8068  0031DC  6E06               	movwf	(mask@num+1)^0,c
  8069  0031DE  0E0A               	movlw	10
  8070  0031E0  6E05               	movwf	mask@num^0,c
  8071  0031E2  EC01  F016         	call	_mask	;wreg free
  8072  0031E6  5005               	movf	?_mask^0,w,c
  8073  0031E8  6E0B               	movwf	sev_display1@DD3^0,c
  8074  0031EA  0E00               	movlw	0
  8075  0031EC  6E06               	movwf	(mask@num+1)^0,c
  8076  0031EE  0E0A               	movlw	10
  8077  0031F0  6E05               	movwf	mask@num^0,c
  8078  0031F2  EC01  F016         	call	_mask	;wreg free
  8079  0031F6  5005               	movf	?_mask^0,w,c
  8080  0031F8  ECAF  F01C         	call	_sev_display1
  8081                           
  8082                           ;main.c: 1188:         }
  8083  0031FC  EF45  F019         	goto	l834
  8084  003200                     l7052:
  8085                           
  8086                           ; BSR set to: 0
  8087                           ;main.c: 1190:         {;main.c: 1191:             sev_display1(mask(char0),mask(char1),
      +                          mask(char2),mask(char3));
  8088  003200  C010  F005         	movff	Sring_7segdisplay@char1,mask@num
  8089  003204  6A06               	clrf	(mask@num+1)^0,c
  8090  003206  EC01  F016         	call	_mask	;wreg free
  8091  00320A  5005               	movf	?_mask^0,w,c
  8092  00320C  6E09               	movwf	sev_display1@DD1^0,c
  8093  00320E  C00F  F005         	movff	Sring_7segdisplay@char2,mask@num
  8094  003212  6A06               	clrf	(mask@num+1)^0,c
  8095  003214  EC01  F016         	call	_mask	;wreg free
  8096  003218  5005               	movf	?_mask^0,w,c
  8097  00321A  6E0A               	movwf	sev_display1@DD2^0,c
  8098  00321C  C00E  F005         	movff	Sring_7segdisplay@char3,mask@num
  8099  003220  6A06               	clrf	(mask@num+1)^0,c
  8100  003222  EC01  F016         	call	_mask	;wreg free
  8101  003226  5005               	movf	?_mask^0,w,c
  8102  003228  6E0B               	movwf	sev_display1@DD3^0,c
  8103  00322A  C011  F005         	movff	Sring_7segdisplay@char0,mask@num
  8104  00322E  6A06               	clrf	(mask@num+1)^0,c
  8105  003230  EC01  F016         	call	_mask	;wreg free
  8106  003234  5005               	movf	?_mask^0,w,c
  8107  003236  ECAF  F01C         	call	_sev_display1
  8108  00323A  EF45  F019         	goto	l834
  8109  00323E                     l7054:
  8110  00323E  0E02               	movlw	2
  8111  003240  1812               	xorwf	Sring_7segdisplay@line^0,w,c
  8112  003242  A4D8               	btfss	status,2,c
  8113  003244  EF26  F019         	goto	u6131
  8114  003248  EF28  F019         	goto	u6130
  8115  00324C                     u6131:
  8116  00324C  EF45  F019         	goto	l834
  8117  003250                     u6130:
  8118  003250                     
  8119                           ;main.c: 1195:         sev_display2(mask(char0),mask(char1),mask(char2),mask(char3));
  8120  003250  C010  F005         	movff	Sring_7segdisplay@char1,mask@num
  8121  003254  6A06               	clrf	(mask@num+1)^0,c
  8122  003256  EC01  F016         	call	_mask	;wreg free
  8123  00325A  5005               	movf	?_mask^0,w,c
  8124  00325C  6E09               	movwf	sev_display2@DD1^0,c
  8125  00325E  C00F  F005         	movff	Sring_7segdisplay@char2,mask@num
  8126  003262  6A06               	clrf	(mask@num+1)^0,c
  8127  003264  EC01  F016         	call	_mask	;wreg free
  8128  003268  5005               	movf	?_mask^0,w,c
  8129  00326A  6E0A               	movwf	sev_display2@DD2^0,c
  8130  00326C  C00E  F005         	movff	Sring_7segdisplay@char3,mask@num
  8131  003270  6A06               	clrf	(mask@num+1)^0,c
  8132  003272  EC01  F016         	call	_mask	;wreg free
  8133  003276  5005               	movf	?_mask^0,w,c
  8134  003278  6E0B               	movwf	sev_display2@DD3^0,c
  8135  00327A  C011  F005         	movff	Sring_7segdisplay@char0,mask@num
  8136  00327E  6A06               	clrf	(mask@num+1)^0,c
  8137  003280  EC01  F016         	call	_mask	;wreg free
  8138  003284  5005               	movf	?_mask^0,w,c
  8139  003286  EC5D  F01B         	call	_sev_display2
  8140  00328A                     l834:
  8141  00328A  0012               	return		;funcret
  8142  00328C                     __end_of_Sring_7segdisplay:
  8143                           	opt callstack 0
  8144                           
  8145 ;; *************** function _sev_display2 *****************
  8146 ;; Defined at:
  8147 ;;		line 1239 in file "main.c"
  8148 ;; Parameters:    Size  Location     Type
  8149 ;;  DD0             1    wreg     unsigned char 
  8150 ;;  DD1             1    8[COMRAM] unsigned char 
  8151 ;;  DD2             1    9[COMRAM] unsigned char 
  8152 ;;  DD3             1   10[COMRAM] unsigned char 
  8153 ;; Auto vars:     Size  Location     Type
  8154 ;;  DD0             1   12[COMRAM] unsigned char 
  8155 ;; Return value:  Size  Location     Type
  8156 ;;                  1    wreg      void 
  8157 ;; Registers used:
  8158 ;;		wreg, status,2, status,0, cstack
  8159 ;; Tracked objects:
  8160 ;;		On entry : 0/0
  8161 ;;		On exit  : 0/0
  8162 ;;		Unchanged: 0/0
  8163 ;; Data sizes:     COMRAM   BANK0   BANK1   BANK2   BANK3   BANK4   BANK5   BANK6   BANK7   BANK8   BANK9  BANK10  BANK1
      +1  BANK12  BANK13  BANK14  BANK15
  8164 ;;      Params:         3       0       0       0       0       0       0       0       0       0       0       0       
      +0       0       0       0       0
  8165 ;;      Locals:         1       0       0       0       0       0       0       0       0       0       0       0       
      +0       0       0       0       0
  8166 ;;      Temps:          1       0       0       0       0       0       0       0       0       0       0       0       
      +0       0       0       0       0
  8167 ;;      Totals:         5       0       0       0       0       0       0       0       0       0       0       0       
      +0       0       0       0       0
  8168 ;;Total ram usage:        5 bytes
  8169 ;; Hardware stack levels used:    1
  8170 ;; Hardware stack levels required when called:    4
  8171 ;; This function calls:
  8172 ;;		_display7seg
  8173 ;; This function is called by:
  8174 ;;		_Sring_7segdisplay
  8175 ;;		_Int_7segdisplay
  8176 ;; This function uses a non-reentrant model
  8177 ;;
  8178                           
  8179                           	psect	text16
  8180  0036BA                     __ptext16:
  8181                           	opt callstack 0
  8182  0036BA                     _sev_display2:
  8183                           	opt callstack 24
  8184                           
  8185                           ;incstack = 0
  8186                           ;sev_display2@DD0 stored from wreg
  8187  0036BA  6E0D               	movwf	sev_display2@DD0^0,c
  8188  0036BC  9E8A               	bcf	138,7,c	;volatile
  8189  0036BE  9C8A               	bcf	138,6,c	;volatile
  8190  0036C0  928A               	bcf	138,1,c	;volatile
  8191  0036C2  948A               	bcf	138,2,c	;volatile
  8192  0036C4  968A               	bcf	138,3,c	;volatile
  8193  0036C6  9A8A               	bcf	138,5,c	;volatile
  8194  0036C8  988A               	bcf	138,4,c	;volatile
  8195  0036CA  908B               	bcf	139,0,c	;volatile
  8196  0036CC  8A8B               	bsf	139,5,c	;volatile
  8197  0036CE  8C8B               	bsf	139,6,c	;volatile
  8198  0036D0  8E8B               	bsf	139,7,c	;volatile
  8199  0036D2                     
  8200                           ;main.c: 1248:     display7seg(DD3);
  8201  0036D2  500B               	movf	sev_display2@DD3^0,w,c
  8202  0036D4  ECCF  F019         	call	_display7seg
  8203  0036D8                     
  8204                           ;main.c: 1249:     _delay((unsigned long)((600)*(32000000/4000000.0)));
  8205  0036D8  0E07               	movlw	7
  8206  0036DA  6E0C               	movwf	??_sev_display2^0,c
  8207  0036DC  0E3A               	movlw	58
  8208  0036DE                     u7717:
  8209  0036DE  2EE8               	decfsz	wreg,f,c
  8210  0036E0  D7FE               	bra	u7717
  8211  0036E2  2E0C               	decfsz	??_sev_display2^0,f,c
  8212  0036E4  D7FC               	bra	u7717
  8213  0036E6  D000               	nop2	
  8214  0036E8  9E8A               	bcf	138,7,c	;volatile
  8215  0036EA  9C8A               	bcf	138,6,c	;volatile
  8216  0036EC  928A               	bcf	138,1,c	;volatile
  8217  0036EE  948A               	bcf	138,2,c	;volatile
  8218  0036F0  968A               	bcf	138,3,c	;volatile
  8219  0036F2  9A8A               	bcf	138,5,c	;volatile
  8220  0036F4  988A               	bcf	138,4,c	;volatile
  8221  0036F6  908B               	bcf	139,0,c	;volatile
  8222  0036F8  8A8B               	bsf	139,5,c	;volatile
  8223  0036FA  8C8B               	bsf	139,6,c	;volatile
  8224  0036FC  9E8B               	bcf	139,7,c	;volatile
  8225  0036FE                     
  8226                           ;main.c: 1256:     display7seg(DD2);
  8227  0036FE  500A               	movf	sev_display2@DD2^0,w,c
  8228  003700  ECCF  F019         	call	_display7seg
  8229                           
  8230                           ;main.c: 1257:     _delay((unsigned long)((600)*(32000000/4000000.0)));
  8231  003704  0E07               	movlw	7
  8232  003706  6E0C               	movwf	??_sev_display2^0,c
  8233  003708  0E3A               	movlw	58
  8234  00370A                     u7727:
  8235  00370A  2EE8               	decfsz	wreg,f,c
  8236  00370C  D7FE               	bra	u7727
  8237  00370E  2E0C               	decfsz	??_sev_display2^0,f,c
  8238  003710  D7FC               	bra	u7727
  8239  003712  D000               	nop2	
  8240  003714  9E8A               	bcf	138,7,c	;volatile
  8241  003716  9C8A               	bcf	138,6,c	;volatile
  8242  003718  928A               	bcf	138,1,c	;volatile
  8243  00371A  948A               	bcf	138,2,c	;volatile
  8244  00371C  968A               	bcf	138,3,c	;volatile
  8245  00371E  9A8A               	bcf	138,5,c	;volatile
  8246  003720  988A               	bcf	138,4,c	;volatile
  8247  003722  908B               	bcf	139,0,c	;volatile
  8248  003724  8A8B               	bsf	139,5,c	;volatile
  8249  003726  9C8B               	bcf	139,6,c	;volatile
  8250  003728  9E8B               	bcf	139,7,c	;volatile
  8251  00372A                     
  8252                           ;main.c: 1264:     display7seg(DD1);
  8253  00372A  5009               	movf	sev_display2@DD1^0,w,c
  8254  00372C  ECCF  F019         	call	_display7seg
  8255  003730                     
  8256                           ;main.c: 1265:     _delay((unsigned long)((600)*(32000000/4000000.0)));
  8257  003730  0E07               	movlw	7
  8258  003732  6E0C               	movwf	??_sev_display2^0,c
  8259  003734  0E3A               	movlw	58
  8260  003736                     u7737:
  8261  003736  2EE8               	decfsz	wreg,f,c
  8262  003738  D7FE               	bra	u7737
  8263  00373A  2E0C               	decfsz	??_sev_display2^0,f,c
  8264  00373C  D7FC               	bra	u7737
  8265  00373E  D000               	nop2	
  8266  003740  9E8A               	bcf	138,7,c	;volatile
  8267  003742  9C8A               	bcf	138,6,c	;volatile
  8268  003744  928A               	bcf	138,1,c	;volatile
  8269  003746  948A               	bcf	138,2,c	;volatile
  8270  003748  968A               	bcf	138,3,c	;volatile
  8271  00374A  9A8A               	bcf	138,5,c	;volatile
  8272  00374C  988A               	bcf	138,4,c	;volatile
  8273  00374E  908B               	bcf	139,0,c	;volatile
  8274  003750  9A8B               	bcf	139,5,c	;volatile
  8275  003752  8C8B               	bsf	139,6,c	;volatile
  8276  003754  8E8B               	bsf	139,7,c	;volatile
  8277  003756                     
  8278                           ;main.c: 1272:     display7seg(DD0);
  8279  003756  500D               	movf	sev_display2@DD0^0,w,c
  8280  003758  ECCF  F019         	call	_display7seg
  8281  00375C                     
  8282                           ;main.c: 1273:     if(uchr_LED2 == 1)
  8283  00375C  0100               	movlb	0	; () banked
  8284  00375E  05B9               	decf	_uchr_LED2& (0+255),w,b
  8285  003760  A4D8               	btfss	status,2,c
  8286  003762  EFB5  F01B         	goto	u5811
  8287  003766  EFB7  F01B         	goto	u5810
  8288  00376A                     u5811:
  8289  00376A  EFB8  F01B         	goto	l6808
  8290  00376E                     u5810:
  8291  00376E                     
  8292                           ; BSR set to: 0
  8293  00376E  808B               	bsf	139,0,c	;volatile
  8294  003770                     l6808:
  8295                           
  8296                           ; BSR set to: 0
  8297                           ;main.c: 1275:     if(u8_led1==1)
  8298  003770  05C4               	decf	_u8_led1& (0+255),w,b
  8299  003772  A4D8               	btfss	status,2,c
  8300  003774  EFBE  F01B         	goto	u5821
  8301  003778  EFC0  F01B         	goto	u5820
  8302  00377C                     u5821:
  8303  00377C  EFC1  F01B         	goto	l6810
  8304  003780                     u5820:
  8305  003780                     
  8306                           ; BSR set to: 0
  8307  003780  8E8A               	bsf	138,7,c	;volatile
  8308  003782                     l6810:
  8309                           
  8310                           ; BSR set to: 0
  8311                           ;main.c: 1279:     if(u8_led2==1)
  8312  003782  05C3               	decf	_u8_led2& (0+255),w,b
  8313  003784  A4D8               	btfss	status,2,c
  8314  003786  EFC7  F01B         	goto	u5831
  8315  00378A  EFC9  F01B         	goto	u5830
  8316  00378E                     u5831:
  8317  00378E  EFCA  F01B         	goto	l6812
  8318  003792                     u5830:
  8319  003792                     
  8320                           ; BSR set to: 0
  8321  003792  8C8A               	bsf	138,6,c	;volatile
  8322  003794                     l6812:
  8323                           
  8324                           ; BSR set to: 0
  8325                           ;main.c: 1287:     _delay((unsigned long)((600)*(32000000/4000000.0)));
  8326  003794  0E07               	movlw	7
  8327  003796  6E0C               	movwf	??_sev_display2^0,c
  8328  003798  0E3A               	movlw	58
  8329  00379A                     u7747:
  8330  00379A  2EE8               	decfsz	wreg,f,c
  8331  00379C  D7FE               	bra	u7747
  8332  00379E  2E0C               	decfsz	??_sev_display2^0,f,c
  8333  0037A0  D7FC               	bra	u7747
  8334  0037A2  D000               	nop2	
  8335  0037A4  9E8A               	bcf	138,7,c	;volatile
  8336  0037A6  9C8A               	bcf	138,6,c	;volatile
  8337  0037A8  928A               	bcf	138,1,c	;volatile
  8338  0037AA  948A               	bcf	138,2,c	;volatile
  8339  0037AC  968A               	bcf	138,3,c	;volatile
  8340  0037AE  9A8A               	bcf	138,5,c	;volatile
  8341  0037B0  988A               	bcf	138,4,c	;volatile
  8342  0037B2  908B               	bcf	139,0,c	;volatile
  8343  0037B4  0012               	return		;funcret
  8344  0037B6                     __end_of_sev_display2:
  8345                           	opt callstack 0
  8346                           
  8347 ;; *************** function _sev_display1 *****************
  8348 ;; Defined at:
  8349 ;;		line 1197 in file "main.c"
  8350 ;; Parameters:    Size  Location     Type
  8351 ;;  DD0             1    wreg     unsigned char 
  8352 ;;  DD1             1    8[COMRAM] unsigned char 
  8353 ;;  DD2             1    9[COMRAM] unsigned char 
  8354 ;;  DD3             1   10[COMRAM] unsigned char 
  8355 ;; Auto vars:     Size  Location     Type
  8356 ;;  DD0             1   12[COMRAM] unsigned char 
  8357 ;; Return value:  Size  Location     Type
  8358 ;;                  1    wreg      void 
  8359 ;; Registers used:
  8360 ;;		wreg, status,2, status,0, cstack
  8361 ;; Tracked objects:
  8362 ;;		On entry : 0/0
  8363 ;;		On exit  : 0/0
  8364 ;;		Unchanged: 0/0
  8365 ;; Data sizes:     COMRAM   BANK0   BANK1   BANK2   BANK3   BANK4   BANK5   BANK6   BANK7   BANK8   BANK9  BANK10  BANK1
      +1  BANK12  BANK13  BANK14  BANK15
  8366 ;;      Params:         3       0       0       0       0       0       0       0       0       0       0       0       
      +0       0       0       0       0
  8367 ;;      Locals:         1       0       0       0       0       0       0       0       0       0       0       0       
      +0       0       0       0       0
  8368 ;;      Temps:          1       0       0       0       0       0       0       0       0       0       0       0       
      +0       0       0       0       0
  8369 ;;      Totals:         5       0       0       0       0       0       0       0       0       0       0       0       
      +0       0       0       0       0
  8370 ;;Total ram usage:        5 bytes
  8371 ;; Hardware stack levels used:    1
  8372 ;; Hardware stack levels required when called:    4
  8373 ;; This function calls:
  8374 ;;		_display7seg
  8375 ;;		_display7seg2
  8376 ;; This function is called by:
  8377 ;;		_Sring_7segdisplay
  8378 ;;		_Int_7segdisplay
  8379 ;; This function uses a non-reentrant model
  8380 ;;
  8381                           
  8382                           	psect	text17
  8383  00395E                     __ptext17:
  8384                           	opt callstack 0
  8385  00395E                     _sev_display1:
  8386                           	opt callstack 24
  8387                           
  8388                           ;incstack = 0
  8389                           ;sev_display1@DD0 stored from wreg
  8390  00395E  6E0D               	movwf	sev_display1@DD0^0,c
  8391  003960  9E8A               	bcf	138,7,c	;volatile
  8392  003962  9C8A               	bcf	138,6,c	;volatile
  8393  003964  928A               	bcf	138,1,c	;volatile
  8394  003966  948A               	bcf	138,2,c	;volatile
  8395  003968  968A               	bcf	138,3,c	;volatile
  8396  00396A  9A8A               	bcf	138,5,c	;volatile
  8397  00396C  988A               	bcf	138,4,c	;volatile
  8398  00396E  908B               	bcf	139,0,c	;volatile
  8399  003970  8A8B               	bsf	139,5,c	;volatile
  8400  003972  9C8B               	bcf	139,6,c	;volatile
  8401  003974  8E8B               	bsf	139,7,c	;volatile
  8402  003976                     
  8403                           ;main.c: 1206:     display7seg2(DD3);
  8404  003976  500B               	movf	sev_display1@DD3^0,w,c
  8405  003978  EC46  F019         	call	_display7seg2
  8406  00397C                     
  8407                           ;main.c: 1207:     _delay((unsigned long)((600)*(32000000/4000000.0)));
  8408  00397C  0E07               	movlw	7
  8409  00397E  6E0C               	movwf	??_sev_display1^0,c
  8410  003980  0E3A               	movlw	58
  8411  003982                     u7757:
  8412  003982  2EE8               	decfsz	wreg,f,c
  8413  003984  D7FE               	bra	u7757
  8414  003986  2E0C               	decfsz	??_sev_display1^0,f,c
  8415  003988  D7FC               	bra	u7757
  8416  00398A  D000               	nop2	
  8417  00398C  9E8A               	bcf	138,7,c	;volatile
  8418  00398E  9C8A               	bcf	138,6,c	;volatile
  8419  003990  928A               	bcf	138,1,c	;volatile
  8420  003992  948A               	bcf	138,2,c	;volatile
  8421  003994  968A               	bcf	138,3,c	;volatile
  8422  003996  9A8A               	bcf	138,5,c	;volatile
  8423  003998  988A               	bcf	138,4,c	;volatile
  8424  00399A  908B               	bcf	139,0,c	;volatile
  8425  00399C  9A8B               	bcf	139,5,c	;volatile
  8426  00399E  8C8B               	bsf	139,6,c	;volatile
  8427  0039A0  9E8B               	bcf	139,7,c	;volatile
  8428  0039A2                     
  8429                           ;main.c: 1214:     display7seg(DD2);
  8430  0039A2  500A               	movf	sev_display1@DD2^0,w,c
  8431  0039A4  ECCF  F019         	call	_display7seg
  8432                           
  8433                           ;main.c: 1215:     _delay((unsigned long)((600)*(32000000/4000000.0)));
  8434  0039A8  0E07               	movlw	7
  8435  0039AA  6E0C               	movwf	??_sev_display1^0,c
  8436  0039AC  0E3A               	movlw	58
  8437  0039AE                     u7767:
  8438  0039AE  2EE8               	decfsz	wreg,f,c
  8439  0039B0  D7FE               	bra	u7767
  8440  0039B2  2E0C               	decfsz	??_sev_display1^0,f,c
  8441  0039B4  D7FC               	bra	u7767
  8442  0039B6  D000               	nop2	
  8443  0039B8  9E8A               	bcf	138,7,c	;volatile
  8444  0039BA  9C8A               	bcf	138,6,c	;volatile
  8445  0039BC  928A               	bcf	138,1,c	;volatile
  8446  0039BE  948A               	bcf	138,2,c	;volatile
  8447  0039C0  968A               	bcf	138,3,c	;volatile
  8448  0039C2  9A8A               	bcf	138,5,c	;volatile
  8449  0039C4  988A               	bcf	138,4,c	;volatile
  8450  0039C6  908B               	bcf	139,0,c	;volatile
  8451  0039C8  9A8B               	bcf	139,5,c	;volatile
  8452  0039CA  9C8B               	bcf	139,6,c	;volatile
  8453  0039CC  8E8B               	bsf	139,7,c	;volatile
  8454  0039CE                     
  8455                           ;main.c: 1222:     display7seg2(DD1);
  8456  0039CE  5009               	movf	sev_display1@DD1^0,w,c
  8457  0039D0  EC46  F019         	call	_display7seg2
  8458  0039D4                     
  8459                           ;main.c: 1223:     _delay((unsigned long)((600)*(32000000/4000000.0)));
  8460  0039D4  0E07               	movlw	7
  8461  0039D6  6E0C               	movwf	??_sev_display1^0,c
  8462  0039D8  0E3A               	movlw	58
  8463  0039DA                     u7777:
  8464  0039DA  2EE8               	decfsz	wreg,f,c
  8465  0039DC  D7FE               	bra	u7777
  8466  0039DE  2E0C               	decfsz	??_sev_display1^0,f,c
  8467  0039E0  D7FC               	bra	u7777
  8468  0039E2  D000               	nop2	
  8469  0039E4  9E8A               	bcf	138,7,c	;volatile
  8470  0039E6  9C8A               	bcf	138,6,c	;volatile
  8471  0039E8  928A               	bcf	138,1,c	;volatile
  8472  0039EA  948A               	bcf	138,2,c	;volatile
  8473  0039EC  968A               	bcf	138,3,c	;volatile
  8474  0039EE  9A8A               	bcf	138,5,c	;volatile
  8475  0039F0  988A               	bcf	138,4,c	;volatile
  8476  0039F2  908B               	bcf	139,0,c	;volatile
  8477  0039F4  9A8B               	bcf	139,5,c	;volatile
  8478  0039F6  9C8B               	bcf	139,6,c	;volatile
  8479  0039F8  9E8B               	bcf	139,7,c	;volatile
  8480  0039FA                     
  8481                           ;main.c: 1231:     display7seg(DD0);
  8482  0039FA  500D               	movf	sev_display1@DD0^0,w,c
  8483  0039FC  ECCF  F019         	call	_display7seg
  8484  003A00                     
  8485                           ;main.c: 1235:     _delay((unsigned long)((600)*(32000000/4000000.0)));
  8486  003A00  0E07               	movlw	7
  8487  003A02  6E0C               	movwf	??_sev_display1^0,c
  8488  003A04  0E3A               	movlw	58
  8489  003A06                     u7787:
  8490  003A06  2EE8               	decfsz	wreg,f,c
  8491  003A08  D7FE               	bra	u7787
  8492  003A0A  2E0C               	decfsz	??_sev_display1^0,f,c
  8493  003A0C  D7FC               	bra	u7787
  8494  003A0E  D000               	nop2	
  8495  003A10  9E8A               	bcf	138,7,c	;volatile
  8496  003A12  9C8A               	bcf	138,6,c	;volatile
  8497  003A14  928A               	bcf	138,1,c	;volatile
  8498  003A16  948A               	bcf	138,2,c	;volatile
  8499  003A18  968A               	bcf	138,3,c	;volatile
  8500  003A1A  9A8A               	bcf	138,5,c	;volatile
  8501  003A1C  988A               	bcf	138,4,c	;volatile
  8502  003A1E  908B               	bcf	139,0,c	;volatile
  8503  003A20  0012               	return		;funcret
  8504  003A22                     __end_of_sev_display1:
  8505                           	opt callstack 0
  8506                           
  8507 ;; *************** function _display7seg2 *****************
  8508 ;; Defined at:
  8509 ;;		line 1344 in file "main.c"
  8510 ;; Parameters:    Size  Location     Type
  8511 ;;  data            1    wreg     unsigned char 
  8512 ;; Auto vars:     Size  Location     Type
  8513 ;;  data            1    4[COMRAM] unsigned char 
  8514 ;;  mask            1    5[COMRAM] unsigned char 
  8515 ;; Return value:  Size  Location     Type
  8516 ;;                  1    wreg      void 
  8517 ;; Registers used:
  8518 ;;		wreg, status,2, status,0
  8519 ;; Tracked objects:
  8520 ;;		On entry : 0/0
  8521 ;;		On exit  : 0/0
  8522 ;;		Unchanged: 0/0
  8523 ;; Data sizes:     COMRAM   BANK0   BANK1   BANK2   BANK3   BANK4   BANK5   BANK6   BANK7   BANK8   BANK9  BANK10  BANK1
      +1  BANK12  BANK13  BANK14  BANK15
  8524 ;;      Params:         0       0       0       0       0       0       0       0       0       0       0       0       
      +0       0       0       0       0
  8525 ;;      Locals:         2       0       0       0       0       0       0       0       0       0       0       0       
      +0       0       0       0       0
  8526 ;;      Temps:          0       0       0       0       0       0       0       0       0       0       0       0       
      +0       0       0       0       0
  8527 ;;      Totals:         2       0       0       0       0       0       0       0       0       0       0       0       
      +0       0       0       0       0
  8528 ;;Total ram usage:        2 bytes
  8529 ;; Hardware stack levels used:    1
  8530 ;; Hardware stack levels required when called:    3
  8531 ;; This function calls:
  8532 ;;		Nothing
  8533 ;; This function is called by:
  8534 ;;		_sev_display1
  8535 ;; This function uses a non-reentrant model
  8536 ;;
  8537                           
  8538                           	psect	text18
  8539  00328C                     __ptext18:
  8540                           	opt callstack 0
  8541  00328C                     _display7seg2:
  8542                           	opt callstack 24
  8543                           
  8544                           ;incstack = 0
  8545                           ;display7seg2@data stored from wreg
  8546  00328C  6E05               	movwf	display7seg2@data^0,c
  8547  00328E                     
  8548                           ;main.c: 1344: void display7seg2(unsigned char data);main.c: 1345: {;main.c: 1346:     u
      +                          nsigned char mask = 0x80;
  8549  00328E  0E80               	movlw	128
  8550  003290  6E06               	movwf	display7seg2@mask^0,c
  8551  003292                     
  8552                           ;main.c: 1348:     if (data & mask)
  8553  003292  AE05               	btfss	display7seg2@data^0,7,c
  8554  003294  EF4E  F019         	goto	u5241
  8555  003298  EF50  F019         	goto	u5240
  8556  00329C                     u5241:
  8557  00329C  EF53  F019         	goto	l1121
  8558  0032A0                     u5240:
  8559  0032A0  8C8A               	bsf	138,6,c	;volatile
  8560  0032A2  EF54  F019         	goto	l6236
  8561  0032A6                     l1121:
  8562  0032A6  9C8A               	bcf	138,6,c	;volatile
  8563  0032A8                     l6236:
  8564                           
  8565                           ;main.c: 1352:     mask = mask >> 1;
  8566  0032A8  90D8               	bcf	status,0,c
  8567  0032AA  3006               	rrcf	display7seg2@mask^0,w,c
  8568  0032AC  6E06               	movwf	display7seg2@mask^0,c
  8569                           
  8570                           ;main.c: 1354:     if (data & mask)
  8571  0032AE  5005               	movf	display7seg2@data^0,w,c
  8572  0032B0  1406               	andwf	display7seg2@mask^0,w,c
  8573  0032B2  0900               	iorlw	0
  8574  0032B4  B4D8               	btfsc	status,2,c
  8575  0032B6  EF5F  F019         	goto	u5251
  8576  0032BA  EF61  F019         	goto	u5250
  8577  0032BE                     u5251:
  8578  0032BE  EF64  F019         	goto	l1127
  8579  0032C2                     u5250:
  8580  0032C2  868A               	bsf	138,3,c	;volatile
  8581  0032C4  EF65  F019         	goto	l6238
  8582  0032C8                     l1127:
  8583  0032C8  968A               	bcf	138,3,c	;volatile
  8584  0032CA                     l6238:
  8585                           
  8586                           ;main.c: 1358:     mask = mask >> 1;
  8587  0032CA  90D8               	bcf	status,0,c
  8588  0032CC  3006               	rrcf	display7seg2@mask^0,w,c
  8589  0032CE  6E06               	movwf	display7seg2@mask^0,c
  8590                           
  8591                           ;main.c: 1360:     if (data & mask)
  8592  0032D0  5005               	movf	display7seg2@data^0,w,c
  8593  0032D2  1406               	andwf	display7seg2@mask^0,w,c
  8594  0032D4  0900               	iorlw	0
  8595  0032D6  B4D8               	btfsc	status,2,c
  8596  0032D8  EF70  F019         	goto	u5261
  8597  0032DC  EF72  F019         	goto	u5260
  8598  0032E0                     u5261:
  8599  0032E0  EF75  F019         	goto	l1133
  8600  0032E4                     u5260:
  8601  0032E4  848A               	bsf	138,2,c	;volatile
  8602  0032E6  EF76  F019         	goto	l6240
  8603  0032EA                     l1133:
  8604  0032EA  948A               	bcf	138,2,c	;volatile
  8605  0032EC                     l6240:
  8606                           
  8607                           ;main.c: 1364:     mask = mask >> 1;
  8608  0032EC  90D8               	bcf	status,0,c
  8609  0032EE  3006               	rrcf	display7seg2@mask^0,w,c
  8610  0032F0  6E06               	movwf	display7seg2@mask^0,c
  8611                           
  8612                           ;main.c: 1366:     if (data & mask)
  8613  0032F2  5005               	movf	display7seg2@data^0,w,c
  8614  0032F4  1406               	andwf	display7seg2@mask^0,w,c
  8615  0032F6  0900               	iorlw	0
  8616  0032F8  B4D8               	btfsc	status,2,c
  8617  0032FA  EF81  F019         	goto	u5271
  8618  0032FE  EF83  F019         	goto	u5270
  8619  003302                     u5271:
  8620  003302  EF86  F019         	goto	l1139
  8621  003306                     u5270:
  8622  003306  888A               	bsf	138,4,c	;volatile
  8623  003308  EF87  F019         	goto	l6242
  8624  00330C                     l1139:
  8625  00330C  988A               	bcf	138,4,c	;volatile
  8626  00330E                     l6242:
  8627                           
  8628                           ;main.c: 1370:     mask = mask >> 1;
  8629  00330E  90D8               	bcf	status,0,c
  8630  003310  3006               	rrcf	display7seg2@mask^0,w,c
  8631  003312  6E06               	movwf	display7seg2@mask^0,c
  8632                           
  8633                           ;main.c: 1372:     if (data & mask)
  8634  003314  5005               	movf	display7seg2@data^0,w,c
  8635  003316  1406               	andwf	display7seg2@mask^0,w,c
  8636  003318  0900               	iorlw	0
  8637  00331A  B4D8               	btfsc	status,2,c
  8638  00331C  EF92  F019         	goto	u5281
  8639  003320  EF94  F019         	goto	u5280
  8640  003324                     u5281:
  8641  003324  EF97  F019         	goto	l1145
  8642  003328                     u5280:
  8643  003328  8A8A               	bsf	138,5,c	;volatile
  8644  00332A  EF98  F019         	goto	l6244
  8645  00332E                     l1145:
  8646  00332E  9A8A               	bcf	138,5,c	;volatile
  8647  003330                     l6244:
  8648                           
  8649                           ;main.c: 1376:     mask = mask >> 1;
  8650  003330  90D8               	bcf	status,0,c
  8651  003332  3006               	rrcf	display7seg2@mask^0,w,c
  8652  003334  6E06               	movwf	display7seg2@mask^0,c
  8653                           
  8654                           ;main.c: 1378:     if (data & mask)
  8655  003336  5005               	movf	display7seg2@data^0,w,c
  8656  003338  1406               	andwf	display7seg2@mask^0,w,c
  8657  00333A  0900               	iorlw	0
  8658  00333C  B4D8               	btfsc	status,2,c
  8659  00333E  EFA3  F019         	goto	u5291
  8660  003342  EFA5  F019         	goto	u5290
  8661  003346                     u5291:
  8662  003346  EFA8  F019         	goto	l1151
  8663  00334A                     u5290:
  8664  00334A  8E8A               	bsf	138,7,c	;volatile
  8665  00334C  EFA9  F019         	goto	l6246
  8666  003350                     l1151:
  8667  003350  9E8A               	bcf	138,7,c	;volatile
  8668  003352                     l6246:
  8669                           
  8670                           ;main.c: 1382:     mask = mask >> 1;
  8671  003352  90D8               	bcf	status,0,c
  8672  003354  3006               	rrcf	display7seg2@mask^0,w,c
  8673  003356  6E06               	movwf	display7seg2@mask^0,c
  8674                           
  8675                           ;main.c: 1384:     if (data & mask)
  8676  003358  5005               	movf	display7seg2@data^0,w,c
  8677  00335A  1406               	andwf	display7seg2@mask^0,w,c
  8678  00335C  0900               	iorlw	0
  8679  00335E  B4D8               	btfsc	status,2,c
  8680  003360  EFB4  F019         	goto	u5301
  8681  003364  EFB6  F019         	goto	u5300
  8682  003368                     u5301:
  8683  003368  EFB9  F019         	goto	l1157
  8684  00336C                     u5300:
  8685  00336C  808B               	bsf	139,0,c	;volatile
  8686  00336E  EFBA  F019         	goto	l6248
  8687  003372                     l1157:
  8688  003372  908B               	bcf	139,0,c	;volatile
  8689  003374                     l6248:
  8690                           
  8691                           ;main.c: 1388:     mask = mask >> 1;
  8692  003374  90D8               	bcf	status,0,c
  8693  003376  3006               	rrcf	display7seg2@mask^0,w,c
  8694  003378  6E06               	movwf	display7seg2@mask^0,c
  8695                           
  8696                           ;main.c: 1390:     if (data & mask)
  8697  00337A  5005               	movf	display7seg2@data^0,w,c
  8698  00337C  1406               	andwf	display7seg2@mask^0,w,c
  8699  00337E  0900               	iorlw	0
  8700  003380  B4D8               	btfsc	status,2,c
  8701  003382  EFC5  F019         	goto	u5311
  8702  003386  EFC7  F019         	goto	u5310
  8703  00338A                     u5311:
  8704  00338A  EFCA  F019         	goto	l1163
  8705  00338E                     u5310:
  8706  00338E  828A               	bsf	138,1,c	;volatile
  8707  003390  EFCB  F019         	goto	l6250
  8708  003394                     l1163:
  8709  003394  928A               	bcf	138,1,c	;volatile
  8710  003396                     l6250:
  8711                           
  8712                           ;main.c: 1394:     mask = mask >> 1;
  8713  003396  90D8               	bcf	status,0,c
  8714  003398  3006               	rrcf	display7seg2@mask^0,w,c
  8715  00339A  6E06               	movwf	display7seg2@mask^0,c
  8716  00339C  0012               	return		;funcret
  8717  00339E                     __end_of_display7seg2:
  8718                           	opt callstack 0
  8719                           
  8720 ;; *************** function _display7seg *****************
  8721 ;; Defined at:
  8722 ;;		line 1292 in file "main.c"
  8723 ;; Parameters:    Size  Location     Type
  8724 ;;  data            1    wreg     unsigned char 
  8725 ;; Auto vars:     Size  Location     Type
  8726 ;;  data            1    4[COMRAM] unsigned char 
  8727 ;;  mask            1    5[COMRAM] unsigned char 
  8728 ;; Return value:  Size  Location     Type
  8729 ;;                  1    wreg      void 
  8730 ;; Registers used:
  8731 ;;		wreg, status,2, status,0
  8732 ;; Tracked objects:
  8733 ;;		On entry : 0/0
  8734 ;;		On exit  : 0/0
  8735 ;;		Unchanged: 0/0
  8736 ;; Data sizes:     COMRAM   BANK0   BANK1   BANK2   BANK3   BANK4   BANK5   BANK6   BANK7   BANK8   BANK9  BANK10  BANK1
      +1  BANK12  BANK13  BANK14  BANK15
  8737 ;;      Params:         0       0       0       0       0       0       0       0       0       0       0       0       
      +0       0       0       0       0
  8738 ;;      Locals:         2       0       0       0       0       0       0       0       0       0       0       0       
      +0       0       0       0       0
  8739 ;;      Temps:          0       0       0       0       0       0       0       0       0       0       0       0       
      +0       0       0       0       0
  8740 ;;      Totals:         2       0       0       0       0       0       0       0       0       0       0       0       
      +0       0       0       0       0
  8741 ;;Total ram usage:        2 bytes
  8742 ;; Hardware stack levels used:    1
  8743 ;; Hardware stack levels required when called:    3
  8744 ;; This function calls:
  8745 ;;		Nothing
  8746 ;; This function is called by:
  8747 ;;		_sev_display1
  8748 ;;		_sev_display2
  8749 ;; This function uses a non-reentrant model
  8750 ;;
  8751                           
  8752                           	psect	text19
  8753  00339E                     __ptext19:
  8754                           	opt callstack 0
  8755  00339E                     _display7seg:
  8756                           	opt callstack 24
  8757                           
  8758                           ;incstack = 0
  8759                           ;display7seg@data stored from wreg
  8760  00339E  6E05               	movwf	display7seg@data^0,c
  8761  0033A0                     
  8762                           ;main.c: 1292: void display7seg(unsigned char data);main.c: 1293: {;main.c: 1294:     un
      +                          signed char mask = 0x80;
  8763  0033A0  0E80               	movlw	128
  8764  0033A2  6E06               	movwf	display7seg@mask^0,c
  8765  0033A4                     
  8766                           ;main.c: 1296:     if (data & mask)
  8767  0033A4  AE05               	btfss	display7seg@data^0,7,c
  8768  0033A6  EFD7  F019         	goto	u5321
  8769  0033AA  EFD9  F019         	goto	u5320
  8770  0033AE                     u5321:
  8771  0033AE  EFDC  F019         	goto	l1070
  8772  0033B2                     u5320:
  8773  0033B2  808B               	bsf	139,0,c	;volatile
  8774  0033B4  EFDD  F019         	goto	l6256
  8775  0033B8                     l1070:
  8776  0033B8  908B               	bcf	139,0,c	;volatile
  8777  0033BA                     l6256:
  8778                           
  8779                           ;main.c: 1300:     mask = mask >> 1;
  8780  0033BA  90D8               	bcf	status,0,c
  8781  0033BC  3006               	rrcf	display7seg@mask^0,w,c
  8782  0033BE  6E06               	movwf	display7seg@mask^0,c
  8783                           
  8784                           ;main.c: 1302:     if (data & mask)
  8785  0033C0  5005               	movf	display7seg@data^0,w,c
  8786  0033C2  1406               	andwf	display7seg@mask^0,w,c
  8787  0033C4  0900               	iorlw	0
  8788  0033C6  B4D8               	btfsc	status,2,c
  8789  0033C8  EFE8  F019         	goto	u5331
  8790  0033CC  EFEA  F019         	goto	u5330
  8791  0033D0                     u5331:
  8792  0033D0  EFED  F019         	goto	l1076
  8793  0033D4                     u5330:
  8794  0033D4  888A               	bsf	138,4,c	;volatile
  8795  0033D6  EFEE  F019         	goto	l6258
  8796  0033DA                     l1076:
  8797  0033DA  988A               	bcf	138,4,c	;volatile
  8798  0033DC                     l6258:
  8799                           
  8800                           ;main.c: 1306:     mask = mask >> 1;
  8801  0033DC  90D8               	bcf	status,0,c
  8802  0033DE  3006               	rrcf	display7seg@mask^0,w,c
  8803  0033E0  6E06               	movwf	display7seg@mask^0,c
  8804                           
  8805                           ;main.c: 1308:     if (data & mask)
  8806  0033E2  5005               	movf	display7seg@data^0,w,c
  8807  0033E4  1406               	andwf	display7seg@mask^0,w,c
  8808  0033E6  0900               	iorlw	0
  8809  0033E8  B4D8               	btfsc	status,2,c
  8810  0033EA  EFF9  F019         	goto	u5341
  8811  0033EE  EFFB  F019         	goto	u5340
  8812  0033F2                     u5341:
  8813  0033F2  EFFE  F019         	goto	l1082
  8814  0033F6                     u5340:
  8815  0033F6  8A8A               	bsf	138,5,c	;volatile
  8816  0033F8  EFFF  F019         	goto	l6260
  8817  0033FC                     l1082:
  8818  0033FC  9A8A               	bcf	138,5,c	;volatile
  8819  0033FE                     l6260:
  8820                           
  8821                           ;main.c: 1312:     mask = mask >> 1;
  8822  0033FE  90D8               	bcf	status,0,c
  8823  003400  3006               	rrcf	display7seg@mask^0,w,c
  8824  003402  6E06               	movwf	display7seg@mask^0,c
  8825                           
  8826                           ;main.c: 1314:     if (data & mask)
  8827  003404  5005               	movf	display7seg@data^0,w,c
  8828  003406  1406               	andwf	display7seg@mask^0,w,c
  8829  003408  0900               	iorlw	0
  8830  00340A  B4D8               	btfsc	status,2,c
  8831  00340C  EF0A  F01A         	goto	u5351
  8832  003410  EF0C  F01A         	goto	u5350
  8833  003414                     u5351:
  8834  003414  EF0F  F01A         	goto	l1088
  8835  003418                     u5350:
  8836  003418  868A               	bsf	138,3,c	;volatile
  8837  00341A  EF10  F01A         	goto	l6262
  8838  00341E                     l1088:
  8839  00341E  968A               	bcf	138,3,c	;volatile
  8840  003420                     l6262:
  8841                           
  8842                           ;main.c: 1318:     mask = mask >> 1;
  8843  003420  90D8               	bcf	status,0,c
  8844  003422  3006               	rrcf	display7seg@mask^0,w,c
  8845  003424  6E06               	movwf	display7seg@mask^0,c
  8846                           
  8847                           ;main.c: 1320:     if (data & mask)
  8848  003426  5005               	movf	display7seg@data^0,w,c
  8849  003428  1406               	andwf	display7seg@mask^0,w,c
  8850  00342A  0900               	iorlw	0
  8851  00342C  B4D8               	btfsc	status,2,c
  8852  00342E  EF1B  F01A         	goto	u5361
  8853  003432  EF1D  F01A         	goto	u5360
  8854  003436                     u5361:
  8855  003436  EF20  F01A         	goto	l1094
  8856  00343A                     u5360:
  8857  00343A  848A               	bsf	138,2,c	;volatile
  8858  00343C  EF21  F01A         	goto	l6264
  8859  003440                     l1094:
  8860  003440  948A               	bcf	138,2,c	;volatile
  8861  003442                     l6264:
  8862                           
  8863                           ;main.c: 1324:     mask = mask >> 1;
  8864  003442  90D8               	bcf	status,0,c
  8865  003444  3006               	rrcf	display7seg@mask^0,w,c
  8866  003446  6E06               	movwf	display7seg@mask^0,c
  8867                           
  8868                           ;main.c: 1326:     if (data & mask)
  8869  003448  5005               	movf	display7seg@data^0,w,c
  8870  00344A  1406               	andwf	display7seg@mask^0,w,c
  8871  00344C  0900               	iorlw	0
  8872  00344E  B4D8               	btfsc	status,2,c
  8873  003450  EF2C  F01A         	goto	u5371
  8874  003454  EF2E  F01A         	goto	u5370
  8875  003458                     u5371:
  8876  003458  EF31  F01A         	goto	l1100
  8877  00345C                     u5370:
  8878  00345C  828A               	bsf	138,1,c	;volatile
  8879  00345E  EF32  F01A         	goto	l6266
  8880  003462                     l1100:
  8881  003462  928A               	bcf	138,1,c	;volatile
  8882  003464                     l6266:
  8883                           
  8884                           ;main.c: 1330:     mask = mask >> 1;
  8885  003464  90D8               	bcf	status,0,c
  8886  003466  3006               	rrcf	display7seg@mask^0,w,c
  8887  003468  6E06               	movwf	display7seg@mask^0,c
  8888                           
  8889                           ;main.c: 1332:     if (data & mask)
  8890  00346A  5005               	movf	display7seg@data^0,w,c
  8891  00346C  1406               	andwf	display7seg@mask^0,w,c
  8892  00346E  0900               	iorlw	0
  8893  003470  B4D8               	btfsc	status,2,c
  8894  003472  EF3D  F01A         	goto	u5381
  8895  003476  EF3F  F01A         	goto	u5380
  8896  00347A                     u5381:
  8897  00347A  EF42  F01A         	goto	l1106
  8898  00347E                     u5380:
  8899  00347E  8C8A               	bsf	138,6,c	;volatile
  8900  003480  EF43  F01A         	goto	l6268
  8901  003484                     l1106:
  8902  003484  9C8A               	bcf	138,6,c	;volatile
  8903  003486                     l6268:
  8904                           
  8905                           ;main.c: 1336:     mask = mask >> 1;
  8906  003486  90D8               	bcf	status,0,c
  8907  003488  3006               	rrcf	display7seg@mask^0,w,c
  8908  00348A  6E06               	movwf	display7seg@mask^0,c
  8909                           
  8910                           ;main.c: 1338:     if (data & mask)
  8911  00348C  5005               	movf	display7seg@data^0,w,c
  8912  00348E  1406               	andwf	display7seg@mask^0,w,c
  8913  003490  0900               	iorlw	0
  8914  003492  B4D8               	btfsc	status,2,c
  8915  003494  EF4E  F01A         	goto	u5391
  8916  003498  EF50  F01A         	goto	u5390
  8917  00349C                     u5391:
  8918  00349C  EF53  F01A         	goto	l1112
  8919  0034A0                     u5390:
  8920  0034A0  8E8A               	bsf	138,7,c	;volatile
  8921  0034A2  EF54  F01A         	goto	l6270
  8922  0034A6                     l1112:
  8923  0034A6  9E8A               	bcf	138,7,c	;volatile
  8924  0034A8                     l6270:
  8925                           
  8926                           ;main.c: 1342:     mask = mask >> 1;
  8927  0034A8  90D8               	bcf	status,0,c
  8928  0034AA  3006               	rrcf	display7seg@mask^0,w,c
  8929  0034AC  6E06               	movwf	display7seg@mask^0,c
  8930  0034AE  0012               	return		;funcret
  8931  0034B0                     __end_of_display7seg:
  8932                           	opt callstack 0
  8933                           
  8934 ;; *************** function _mask *****************
  8935 ;; Defined at:
  8936 ;;		line 149 in file "main.c"
  8937 ;; Parameters:    Size  Location     Type
  8938 ;;  num             2    4[COMRAM] unsigned short 
  8939 ;; Auto vars:     Size  Location     Type
  8940 ;;		None
  8941 ;; Return value:  Size  Location     Type
  8942 ;;                  2    4[COMRAM] unsigned short 
  8943 ;; Registers used:
  8944 ;;		wreg, status,2, status,0
  8945 ;; Tracked objects:
  8946 ;;		On entry : 0/0
  8947 ;;		On exit  : 0/0
  8948 ;;		Unchanged: 0/0
  8949 ;; Data sizes:     COMRAM   BANK0   BANK1   BANK2   BANK3   BANK4   BANK5   BANK6   BANK7   BANK8   BANK9  BANK10  BANK1
      +1  BANK12  BANK13  BANK14  BANK15
  8950 ;;      Params:         2       0       0       0       0       0       0       0       0       0       0       0       
      +0       0       0       0       0
  8951 ;;      Locals:         0       0       0       0       0       0       0       0       0       0       0       0       
      +0       0       0       0       0
  8952 ;;      Temps:          2       0       0       0       0       0       0       0       0       0       0       0       
      +0       0       0       0       0
  8953 ;;      Totals:         4       0       0       0       0       0       0       0       0       0       0       0       
      +0       0       0       0       0
  8954 ;;Total ram usage:        4 bytes
  8955 ;; Hardware stack levels used:    1
  8956 ;; Hardware stack levels required when called:    3
  8957 ;; This function calls:
  8958 ;;		Nothing
  8959 ;; This function is called by:
  8960 ;;		_Sring_7segdisplay
  8961 ;;		_Int_7segdisplay
  8962 ;; This function uses a non-reentrant model
  8963 ;;
  8964                           
  8965                           	psect	text20
  8966  002C02                     __ptext20:
  8967                           	opt callstack 0
  8968  002C02                     _mask:
  8969                           	opt callstack 25
  8970  002C02                     
  8971                           ;main.c: 150:  switch (num) {
  8972  002C02  EFB7  F016         	goto	l6630
  8973  002C06                     l6500:
  8974  002C06  0E00               	movlw	0
  8975  002C08  6E06               	movwf	(?_mask+1)^0,c
  8976  002C0A  0E3F               	movlw	63
  8977  002C0C  6E05               	movwf	?_mask^0,c
  8978  002C0E  EF45  F017         	goto	l560
  8979  002C12                     l6504:
  8980  002C12  0E00               	movlw	0
  8981  002C14  6E06               	movwf	(?_mask+1)^0,c
  8982  002C16  0E06               	movlw	6
  8983  002C18  6E05               	movwf	?_mask^0,c
  8984  002C1A  EF45  F017         	goto	l560
  8985  002C1E                     l6508:
  8986  002C1E  0E00               	movlw	0
  8987  002C20  6E06               	movwf	(?_mask+1)^0,c
  8988  002C22  0E5B               	movlw	91
  8989  002C24  6E05               	movwf	?_mask^0,c
  8990  002C26  EF45  F017         	goto	l560
  8991  002C2A                     l6512:
  8992  002C2A  0E00               	movlw	0
  8993  002C2C  6E06               	movwf	(?_mask+1)^0,c
  8994  002C2E  0E4F               	movlw	79
  8995  002C30  6E05               	movwf	?_mask^0,c
  8996  002C32  EF45  F017         	goto	l560
  8997  002C36                     l6516:
  8998  002C36  0E00               	movlw	0
  8999  002C38  6E06               	movwf	(?_mask+1)^0,c
  9000  002C3A  0E66               	movlw	102
  9001  002C3C  6E05               	movwf	?_mask^0,c
  9002  002C3E  EF45  F017         	goto	l560
  9003  002C42                     l6520:
  9004  002C42  0E00               	movlw	0
  9005  002C44  6E06               	movwf	(?_mask+1)^0,c
  9006  002C46  0E6D               	movlw	109
  9007  002C48  6E05               	movwf	?_mask^0,c
  9008  002C4A  EF45  F017         	goto	l560
  9009  002C4E                     l6524:
  9010  002C4E  0E00               	movlw	0
  9011  002C50  6E06               	movwf	(?_mask+1)^0,c
  9012  002C52  0E7D               	movlw	125
  9013  002C54  6E05               	movwf	?_mask^0,c
  9014  002C56  EF45  F017         	goto	l560
  9015  002C5A                     l6528:
  9016  002C5A  0E00               	movlw	0
  9017  002C5C  6E06               	movwf	(?_mask+1)^0,c
  9018  002C5E  0E07               	movlw	7
  9019  002C60  6E05               	movwf	?_mask^0,c
  9020  002C62  EF45  F017         	goto	l560
  9021  002C66                     l6532:
  9022  002C66  0E00               	movlw	0
  9023  002C68  6E06               	movwf	(?_mask+1)^0,c
  9024  002C6A  0E7F               	movlw	127
  9025  002C6C  6E05               	movwf	?_mask^0,c
  9026  002C6E  EF45  F017         	goto	l560
  9027  002C72                     l6536:
  9028  002C72  0E00               	movlw	0
  9029  002C74  6E06               	movwf	(?_mask+1)^0,c
  9030  002C76  0E6F               	movlw	111
  9031  002C78  6E05               	movwf	?_mask^0,c
  9032  002C7A  EF45  F017         	goto	l560
  9033  002C7E                     l6540:
  9034  002C7E  0E00               	movlw	0
  9035  002C80  6E06               	movwf	(?_mask+1)^0,c
  9036  002C82  0E00               	movlw	0
  9037  002C84  6E05               	movwf	?_mask^0,c
  9038  002C86  EF45  F017         	goto	l560
  9039  002C8A                     l6552:
  9040  002C8A  0E00               	movlw	0
  9041  002C8C  6E06               	movwf	(?_mask+1)^0,c
  9042  002C8E  0E79               	movlw	121
  9043  002C90  6E05               	movwf	?_mask^0,c
  9044  002C92  EF45  F017         	goto	l560
  9045  002C96                     l6556:
  9046  002C96  0E00               	movlw	0
  9047  002C98  6E06               	movwf	(?_mask+1)^0,c
  9048  002C9A  0E78               	movlw	120
  9049  002C9C  6E05               	movwf	?_mask^0,c
  9050  002C9E  EF45  F017         	goto	l560
  9051  002CA2                     l6560:
  9052  002CA2  0E00               	movlw	0
  9053  002CA4  6E06               	movwf	(?_mask+1)^0,c
  9054  002CA6  0E77               	movlw	119
  9055  002CA8  6E05               	movwf	?_mask^0,c
  9056  002CAA  EF45  F017         	goto	l560
  9057  002CAE                     l6564:
  9058  002CAE  0E00               	movlw	0
  9059  002CB0  6E06               	movwf	(?_mask+1)^0,c
  9060  002CB2  0E1C               	movlw	28
  9061  002CB4  6E05               	movwf	?_mask^0,c
  9062  002CB6  EF45  F017         	goto	l560
  9063  002CBA                     l6568:
  9064  002CBA  0E00               	movlw	0
  9065  002CBC  6E06               	movwf	(?_mask+1)^0,c
  9066  002CBE  0E40               	movlw	64
  9067  002CC0  6E05               	movwf	?_mask^0,c
  9068  002CC2  EF45  F017         	goto	l560
  9069  002CC6                     l6572:
  9070  002CC6  0E00               	movlw	0
  9071  002CC8  6E06               	movwf	(?_mask+1)^0,c
  9072  002CCA  0E37               	movlw	55
  9073  002CCC  6E05               	movwf	?_mask^0,c
  9074  002CCE  EF45  F017         	goto	l560
  9075  002CD2                     l6576:
  9076  002CD2  0E00               	movlw	0
  9077  002CD4  6E06               	movwf	(?_mask+1)^0,c
  9078  002CD6  0E54               	movlw	84
  9079  002CD8  6E05               	movwf	?_mask^0,c
  9080  002CDA  EF45  F017         	goto	l560
  9081  002CDE                     l6580:
  9082  002CDE  0E00               	movlw	0
  9083  002CE0  6E06               	movwf	(?_mask+1)^0,c
  9084  002CE2  0E15               	movlw	21
  9085  002CE4  6E05               	movwf	?_mask^0,c
  9086  002CE6  EF45  F017         	goto	l560
  9087  002CEA                     l6584:
  9088  002CEA  0E00               	movlw	0
  9089  002CEC  6E06               	movwf	(?_mask+1)^0,c
  9090  002CEE  0E31               	movlw	49
  9091  002CF0  6E05               	movwf	?_mask^0,c
  9092  002CF2  EF45  F017         	goto	l560
  9093  002CF6                     l6588:
  9094  002CF6  0E00               	movlw	0
  9095  002CF8  6E06               	movwf	(?_mask+1)^0,c
  9096  002CFA  0E5E               	movlw	94
  9097  002CFC  6E05               	movwf	?_mask^0,c
  9098  002CFE  EF45  F017         	goto	l560
  9099  002D02                     l6592:
  9100  002D02  0E00               	movlw	0
  9101  002D04  6E06               	movwf	(?_mask+1)^0,c
  9102  002D06  0E38               	movlw	56
  9103  002D08  6E05               	movwf	?_mask^0,c
  9104  002D0A  EF45  F017         	goto	l560
  9105  002D0E                     l6596:
  9106  002D0E  0E00               	movlw	0
  9107  002D10  6E06               	movwf	(?_mask+1)^0,c
  9108  002D12  0E6E               	movlw	110
  9109  002D14  6E05               	movwf	?_mask^0,c
  9110  002D16  EF45  F017         	goto	l560
  9111  002D1A                     l6600:
  9112  002D1A  0E00               	movlw	0
  9113  002D1C  6E06               	movwf	(?_mask+1)^0,c
  9114  002D1E  0E3D               	movlw	61
  9115  002D20  6E05               	movwf	?_mask^0,c
  9116  002D22  EF45  F017         	goto	l560
  9117  002D26                     l6604:
  9118  002D26  0E00               	movlw	0
  9119  002D28  6E06               	movwf	(?_mask+1)^0,c
  9120  002D2A  0E71               	movlw	113
  9121  002D2C  6E05               	movwf	?_mask^0,c
  9122  002D2E  EF45  F017         	goto	l560
  9123  002D32                     l6608:
  9124  002D32  0E00               	movlw	0
  9125  002D34  6E06               	movwf	(?_mask+1)^0,c
  9126  002D36  0E39               	movlw	57
  9127  002D38  6E05               	movwf	?_mask^0,c
  9128  002D3A  EF45  F017         	goto	l560
  9129  002D3E                     l6612:
  9130  002D3E  0E00               	movlw	0
  9131  002D40  6E06               	movwf	(?_mask+1)^0,c
  9132  002D42  0E73               	movlw	115
  9133  002D44  6E05               	movwf	?_mask^0,c
  9134  002D46  EF45  F017         	goto	l560
  9135  002D4A                     l6616:
  9136  002D4A  0E00               	movlw	0
  9137  002D4C  6E06               	movwf	(?_mask+1)^0,c
  9138  002D4E  0E7C               	movlw	124
  9139  002D50  6E05               	movwf	?_mask^0,c
  9140  002D52  EF45  F017         	goto	l560
  9141  002D56                     l6620:
  9142  002D56  0E00               	movlw	0
  9143  002D58  6E06               	movwf	(?_mask+1)^0,c
  9144  002D5A  0E76               	movlw	118
  9145  002D5C  6E05               	movwf	?_mask^0,c
  9146  002D5E  EF45  F017         	goto	l560
  9147  002D62                     l6624:
  9148  002D62  0E00               	movlw	0
  9149  002D64  6E06               	movwf	(?_mask+1)^0,c
  9150  002D66  0E10               	movlw	16
  9151  002D68  6E05               	movwf	?_mask^0,c
  9152  002D6A  EF45  F017         	goto	l560
  9153  002D6E                     l6630:
  9154  002D6E  C005  F007         	movff	mask@num,??_mask
  9155  002D72  C006  F008         	movff	mask@num+1,??_mask+1
  9156                           
  9157                           ; Switch on 2 bytes has been partitioned into a top level switch of size 1, and 1 sub-sw
      +                          itches
  9158                           ; Switch size 1, requested type "simple"
  9159                           ; Number of cases is 1, Range of values is 0 to 0
  9160                           ; switch strategies available:
  9161                           ; Name         Instructions Cycles
  9162                           ; simple_byte            4     3 (average)
  9163                           ;	Chosen strategy is simple_byte
  9164  002D76  5008               	movf	(??_mask+1)^0,w,c
  9165  002D78  0A00               	xorlw	0	; case 0
  9166  002D7A  B4D8               	btfsc	status,2,c
  9167  002D7C  EFC2  F016         	goto	l8252
  9168  002D80  EF45  F017         	goto	l560
  9169  002D84                     l8252:
  9170                           
  9171                           ; Switch size 1, requested type "simple"
  9172                           ; Number of cases is 32, Range of values is 0 to 117
  9173                           ; switch strategies available:
  9174                           ; Name         Instructions Cycles
  9175                           ; simple_byte           97    49 (average)
  9176                           ;	Chosen strategy is simple_byte
  9177  002D84  5007               	movf	??_mask^0,w,c
  9178  002D86  0A00               	xorlw	0	; case 0
  9179  002D88  B4D8               	btfsc	status,2,c
  9180  002D8A  EF03  F016         	goto	l6500
  9181  002D8E  0A01               	xorlw	1	; case 1
  9182  002D90  B4D8               	btfsc	status,2,c
  9183  002D92  EF09  F016         	goto	l6504
  9184  002D96  0A03               	xorlw	3	; case 2
  9185  002D98  B4D8               	btfsc	status,2,c
  9186  002D9A  EF0F  F016         	goto	l6508
  9187  002D9E  0A01               	xorlw	1	; case 3
  9188  002DA0  B4D8               	btfsc	status,2,c
  9189  002DA2  EF15  F016         	goto	l6512
  9190  002DA6  0A07               	xorlw	7	; case 4
  9191  002DA8  B4D8               	btfsc	status,2,c
  9192  002DAA  EF1B  F016         	goto	l6516
  9193  002DAE  0A01               	xorlw	1	; case 5
  9194  002DB0  B4D8               	btfsc	status,2,c
  9195  002DB2  EF21  F016         	goto	l6520
  9196  002DB6  0A03               	xorlw	3	; case 6
  9197  002DB8  B4D8               	btfsc	status,2,c
  9198  002DBA  EF27  F016         	goto	l6524
  9199  002DBE  0A01               	xorlw	1	; case 7
  9200  002DC0  B4D8               	btfsc	status,2,c
  9201  002DC2  EF2D  F016         	goto	l6528
  9202  002DC6  0A0F               	xorlw	15	; case 8
  9203  002DC8  B4D8               	btfsc	status,2,c
  9204  002DCA  EF33  F016         	goto	l6532
  9205  002DCE  0A01               	xorlw	1	; case 9
  9206  002DD0  B4D8               	btfsc	status,2,c
  9207  002DD2  EF39  F016         	goto	l6536
  9208  002DD6  0A03               	xorlw	3	; case 10
  9209  002DD8  B4D8               	btfsc	status,2,c
  9210  002DDA  EF3F  F016         	goto	l6540
  9211  002DDE  0A2A               	xorlw	42	; case 32
  9212  002DE0  B4D8               	btfsc	status,2,c
  9213  002DE2  EF3F  F016         	goto	l6540
  9214  002DE6  0A0D               	xorlw	13	; case 45
  9215  002DE8  B4D8               	btfsc	status,2,c
  9216  002DEA  EF5D  F016         	goto	l6568
  9217  002DEE  0A6C               	xorlw	108	; case 65
  9218  002DF0  B4D8               	btfsc	status,2,c
  9219  002DF2  EF51  F016         	goto	l6560
  9220  002DF6  0A02               	xorlw	2	; case 67
  9221  002DF8  B4D8               	btfsc	status,2,c
  9222  002DFA  EF99  F016         	goto	l6608
  9223  002DFE  0A06               	xorlw	6	; case 69
  9224  002E00  B4D8               	btfsc	status,2,c
  9225  002E02  EF45  F016         	goto	l6552
  9226  002E06  0A03               	xorlw	3	; case 70
  9227  002E08  B4D8               	btfsc	status,2,c
  9228  002E0A  EF93  F016         	goto	l6604
  9229  002E0E  0A01               	xorlw	1	; case 71
  9230  002E10  B4D8               	btfsc	status,2,c
  9231  002E12  EF8D  F016         	goto	l6600
  9232  002E16  0A0F               	xorlw	15	; case 72
  9233  002E18  B4D8               	btfsc	status,2,c
  9234  002E1A  EFAB  F016         	goto	l6620
  9235  002E1E  0A04               	xorlw	4	; case 76
  9236  002E20  B4D8               	btfsc	status,2,c
  9237  002E22  EF81  F016         	goto	l6592
  9238  002E26  0A01               	xorlw	1	; case 77
  9239  002E28  B4D8               	btfsc	status,2,c
  9240  002E2A  EF6F  F016         	goto	l6580
  9241  002E2E  0A03               	xorlw	3	; case 78
  9242  002E30  B4D8               	btfsc	status,2,c
  9243  002E32  EF63  F016         	goto	l6572
  9244  002E36  0A1E               	xorlw	30	; case 80
  9245  002E38  B4D8               	btfsc	status,2,c
  9246  002E3A  EF9F  F016         	goto	l6612
  9247  002E3E  0A02               	xorlw	2	; case 82
  9248  002E40  B4D8               	btfsc	status,2,c
  9249  002E42  EF75  F016         	goto	l6584
  9250  002E46  0A01               	xorlw	1	; case 83
  9251  002E48  B4D8               	btfsc	status,2,c
  9252  002E4A  EF21  F016         	goto	l6520
  9253  002E4E  0A0A               	xorlw	10	; case 89
  9254  002E50  B4D8               	btfsc	status,2,c
  9255  002E52  EF87  F016         	goto	l6596
  9256  002E56  0A3B               	xorlw	59	; case 98
  9257  002E58  B4D8               	btfsc	status,2,c
  9258  002E5A  EFA5  F016         	goto	l6616
  9259  002E5E  0A06               	xorlw	6	; case 100
  9260  002E60  B4D8               	btfsc	status,2,c
  9261  002E62  EF7B  F016         	goto	l6588
  9262  002E66  0A0D               	xorlw	13	; case 105
  9263  002E68  B4D8               	btfsc	status,2,c
  9264  002E6A  EFB1  F016         	goto	l6624
  9265  002E6E  0A07               	xorlw	7	; case 110
  9266  002E70  B4D8               	btfsc	status,2,c
  9267  002E72  EF69  F016         	goto	l6576
  9268  002E76  0A1A               	xorlw	26	; case 116
  9269  002E78  B4D8               	btfsc	status,2,c
  9270  002E7A  EF4B  F016         	goto	l6556
  9271  002E7E  0A01               	xorlw	1	; case 117
  9272  002E80  B4D8               	btfsc	status,2,c
  9273  002E82  EF57  F016         	goto	l6564
  9274  002E86  EF45  F017         	goto	l560
  9275  002E8A                     l560:
  9276  002E8A  0012               	return		;funcret
  9277  002E8C                     __end_of_mask:
  9278                           	opt callstack 0
  9279                           
  9280 ;; *************** function ___flge *****************
  9281 ;; Defined at:
  9282 ;;		line 4 in file "C:\Program Files (x86)\Microchip\xc8\v2.10\pic\sources\c99\common\flge.c"
  9283 ;; Parameters:    Size  Location     Type
  9284 ;;  ff1             4   23[COMRAM] unsigned short 
  9285 ;;  ff2             4   27[COMRAM] unsigned short 
  9286 ;; Auto vars:     Size  Location     Type
  9287 ;;		None
  9288 ;; Return value:  Size  Location     Type
  9289 ;;		None               void
  9290 ;; Registers used:
  9291 ;;		wreg, status,2, status,0
  9292 ;; Tracked objects:
  9293 ;;		On entry : 0/0
  9294 ;;		On exit  : 0/0
  9295 ;;		Unchanged: 0/0
  9296 ;; Data sizes:     COMRAM   BANK0   BANK1   BANK2   BANK3   BANK4   BANK5   BANK6   BANK7   BANK8   BANK9  BANK10  BANK1
      +1  BANK12  BANK13  BANK14  BANK15
  9297 ;;      Params:         8       0       0       0       0       0       0       0       0       0       0       0       
      +0       0       0       0       0
  9298 ;;      Locals:         0       0       0       0       0       0       0       0       0       0       0       0       
      +0       0       0       0       0
  9299 ;;      Temps:          4       0       0       0       0       0       0       0       0       0       0       0       
      +0       0       0       0       0
  9300 ;;      Totals:        12       0       0       0       0       0       0       0       0       0       0       0       
      +0       0       0       0       0
  9301 ;;Total ram usage:       12 bytes
  9302 ;; Hardware stack levels used:    1
  9303 ;; Hardware stack levels required when called:    3
  9304 ;; This function calls:
  9305 ;;		Nothing
  9306 ;; This function is called by:
  9307 ;;		_main
  9308 ;; This function uses a non-reentrant model
  9309 ;;
  9310                           
  9311                           	psect	text21
  9312  0035B6                     __ptext21:
  9313                           	opt callstack 0
  9314  0035B6                     ___flge:
  9315                           	opt callstack 27
  9316  0035B6  0E00               	movlw	0
  9317  0035B8  1418               	andwf	___flge@ff1^0,w,c
  9318  0035BA  6E20               	movwf	??___flge^0,c
  9319  0035BC  0E00               	movlw	0
  9320  0035BE  1419               	andwf	(___flge@ff1+1)^0,w,c
  9321  0035C0  6E21               	movwf	(??___flge+1)^0,c
  9322  0035C2  0E80               	movlw	128
  9323  0035C4  141A               	andwf	(___flge@ff1+2)^0,w,c
  9324  0035C6  6E22               	movwf	(??___flge+2)^0,c
  9325  0035C8  0E7F               	movlw	127
  9326  0035CA  141B               	andwf	(___flge@ff1+3)^0,w,c
  9327  0035CC  6E23               	movwf	(??___flge+3)^0,c
  9328  0035CE  5020               	movf	??___flge^0,w,c
  9329  0035D0  1021               	iorwf	(??___flge+1)^0,w,c
  9330  0035D2  1022               	iorwf	(??___flge+2)^0,w,c
  9331  0035D4  1023               	iorwf	(??___flge+3)^0,w,c
  9332  0035D6  A4D8               	btfss	status,2,c
  9333  0035D8  EFF0  F01A         	goto	u6871
  9334  0035DC  EFF2  F01A         	goto	u6870
  9335  0035E0                     u6871:
  9336  0035E0  EFFA  F01A         	goto	l7650
  9337  0035E4                     u6870:
  9338  0035E4  0E00               	movlw	0
  9339  0035E6  6E18               	movwf	___flge@ff1^0,c
  9340  0035E8  0E00               	movlw	0
  9341  0035EA  6E19               	movwf	(___flge@ff1+1)^0,c
  9342  0035EC  0E00               	movlw	0
  9343  0035EE  6E1A               	movwf	(___flge@ff1+2)^0,c
  9344  0035F0  0E00               	movlw	0
  9345  0035F2  6E1B               	movwf	(___flge@ff1+3)^0,c
  9346  0035F4                     l7650:
  9347  0035F4  0E00               	movlw	0
  9348  0035F6  141C               	andwf	___flge@ff2^0,w,c
  9349  0035F8  6E20               	movwf	??___flge^0,c
  9350  0035FA  0E00               	movlw	0
  9351  0035FC  141D               	andwf	(___flge@ff2+1)^0,w,c
  9352  0035FE  6E21               	movwf	(??___flge+1)^0,c
  9353  003600  0E80               	movlw	128
  9354  003602  141E               	andwf	(___flge@ff2+2)^0,w,c
  9355  003604  6E22               	movwf	(??___flge+2)^0,c
  9356  003606  0E7F               	movlw	127
  9357  003608  141F               	andwf	(___flge@ff2+3)^0,w,c
  9358  00360A  6E23               	movwf	(??___flge+3)^0,c
  9359  00360C  5020               	movf	??___flge^0,w,c
  9360  00360E  1021               	iorwf	(??___flge+1)^0,w,c
  9361  003610  1022               	iorwf	(??___flge+2)^0,w,c
  9362  003612  1023               	iorwf	(??___flge+3)^0,w,c
  9363  003614  A4D8               	btfss	status,2,c
  9364  003616  EF0F  F01B         	goto	u6881
  9365  00361A  EF11  F01B         	goto	u6880
  9366  00361E                     u6881:
  9367  00361E  EF19  F01B         	goto	l7654
  9368  003622                     u6880:
  9369  003622  0E00               	movlw	0
  9370  003624  6E1C               	movwf	___flge@ff2^0,c
  9371  003626  0E00               	movlw	0
  9372  003628  6E1D               	movwf	(___flge@ff2+1)^0,c
  9373  00362A  0E00               	movlw	0
  9374  00362C  6E1E               	movwf	(___flge@ff2+2)^0,c
  9375  00362E  0E00               	movlw	0
  9376  003630  6E1F               	movwf	(___flge@ff2+3)^0,c
  9377  003632                     l7654:
  9378  003632  AE1B               	btfss	(___flge@ff1+3)^0,7,c
  9379  003634  EF1E  F01B         	goto	u6891
  9380  003638  EF20  F01B         	goto	u6890
  9381  00363C                     u6891:
  9382  00363C  EF29  F01B         	goto	l7658
  9383  003640                     u6890:
  9384  003640  6C18               	negf	___flge@ff1^0,c
  9385  003642  1E19               	comf	(___flge@ff1+1)^0,f,c
  9386  003644  B0D8               	btfsc	status,0,c
  9387  003646  2A19               	incf	(___flge@ff1+1)^0,f,c
  9388  003648  1E1A               	comf	(___flge@ff1+2)^0,f,c
  9389  00364A  B0D8               	btfsc	status,0,c
  9390  00364C  2A1A               	incf	(___flge@ff1+2)^0,f,c
  9391  00364E  0E80               	movlw	128
  9392  003650  561B               	subfwb	(___flge@ff1+3)^0,f,c
  9393  003652                     l7658:
  9394  003652  AE1F               	btfss	(___flge@ff2+3)^0,7,c
  9395  003654  EF2E  F01B         	goto	u6901
  9396  003658  EF30  F01B         	goto	u6900
  9397  00365C                     u6901:
  9398  00365C  EF39  F01B         	goto	l1476
  9399  003660                     u6900:
  9400  003660  6C1C               	negf	___flge@ff2^0,c
  9401  003662  1E1D               	comf	(___flge@ff2+1)^0,f,c
  9402  003664  B0D8               	btfsc	status,0,c
  9403  003666  2A1D               	incf	(___flge@ff2+1)^0,f,c
  9404  003668  1E1E               	comf	(___flge@ff2+2)^0,f,c
  9405  00366A  B0D8               	btfsc	status,0,c
  9406  00366C  2A1E               	incf	(___flge@ff2+2)^0,f,c
  9407  00366E  0E80               	movlw	128
  9408  003670  561F               	subfwb	(___flge@ff2+3)^0,f,c
  9409  003672                     l1476:
  9410  003672  0E00               	movlw	0
  9411  003674  1A18               	xorwf	___flge@ff1^0,f,c
  9412  003676  0E00               	movlw	0
  9413  003678  1A19               	xorwf	(___flge@ff1+1)^0,f,c
  9414  00367A  0E00               	movlw	0
  9415  00367C  1A1A               	xorwf	(___flge@ff1+2)^0,f,c
  9416  00367E  0E80               	movlw	128
  9417  003680  1A1B               	xorwf	(___flge@ff1+3)^0,f,c
  9418  003682  0E00               	movlw	0
  9419  003684  1A1C               	xorwf	___flge@ff2^0,f,c
  9420  003686  0E00               	movlw	0
  9421  003688  1A1D               	xorwf	(___flge@ff2+1)^0,f,c
  9422  00368A  0E00               	movlw	0
  9423  00368C  1A1E               	xorwf	(___flge@ff2+2)^0,f,c
  9424  00368E  0E80               	movlw	128
  9425  003690  1A1F               	xorwf	(___flge@ff2+3)^0,f,c
  9426  003692  501C               	movf	___flge@ff2^0,w,c
  9427  003694  5C18               	subwf	___flge@ff1^0,w,c
  9428  003696  501D               	movf	(___flge@ff2+1)^0,w,c
  9429  003698  5819               	subwfb	(___flge@ff1+1)^0,w,c
  9430  00369A  501E               	movf	(___flge@ff2+2)^0,w,c
  9431  00369C  581A               	subwfb	(___flge@ff1+2)^0,w,c
  9432  00369E  501F               	movf	(___flge@ff2+3)^0,w,c
  9433  0036A0  581B               	subwfb	(___flge@ff1+3)^0,w,c
  9434  0036A2  B0D8               	btfsc	status,0,c
  9435  0036A4  EF56  F01B         	goto	u6911
  9436  0036A8  EF58  F01B         	goto	u6910
  9437  0036AC                     u6911:
  9438  0036AC  EF5B  F01B         	goto	l7664
  9439  0036B0                     u6910:
  9440  0036B0  90D8               	bcf	status,0,c
  9441  0036B2  EF5C  F01B         	goto	l1481
  9442  0036B6                     l7664:
  9443  0036B6  80D8               	bsf	status,0,c
  9444  0036B8                     l1481:
  9445  0036B8  0012               	return		;funcret
  9446  0036BA                     __end_of___flge:
  9447                           	opt callstack 0
  9448                           
  9449 ;; *************** function _TMR3_ReadTimer *****************
  9450 ;; Defined at:
  9451 ;;		line 98 in file "mcc_generated_files/tmr3.c"
  9452 ;; Parameters:    Size  Location     Type
  9453 ;;		None
  9454 ;; Auto vars:     Size  Location     Type
  9455 ;;  readVal         2    0        unsigned short 
  9456 ;;  readValLow      1    7[COMRAM] unsigned char 
  9457 ;;  readValHigh     1    6[COMRAM] unsigned char 
  9458 ;; Return value:  Size  Location     Type
  9459 ;;                  2  323[None  ] unsigned short 
  9460 ;; Registers used:
  9461 ;;		wreg, status,2
  9462 ;; Tracked objects:
  9463 ;;		On entry : 0/0
  9464 ;;		On exit  : 0/0
  9465 ;;		Unchanged: 0/0
  9466 ;; Data sizes:     COMRAM   BANK0   BANK1   BANK2   BANK3   BANK4   BANK5   BANK6   BANK7   BANK8   BANK9  BANK10  BANK1
      +1  BANK12  BANK13  BANK14  BANK15
  9467 ;;      Params:         0       0       0       0       0       0       0       0       0       0       0       0       
      +0       0       0       0       0
  9468 ;;      Locals:         4       0       0       0       0       0       0       0       0       0       0       0       
      +0       0       0       0       0
  9469 ;;      Temps:          0       0       0       0       0       0       0       0       0       0       0       0       
      +0       0       0       0       0
  9470 ;;      Totals:         4       0       0       0       0       0       0       0       0       0       0       0       
      +0       0       0       0       0
  9471 ;;Total ram usage:        4 bytes
  9472 ;; Hardware stack levels used:    1
  9473 ;; Hardware stack levels required when called:    3
  9474 ;; This function calls:
  9475 ;;		Nothing
  9476 ;; This function is called by:
  9477 ;;		_main
  9478 ;; This function uses a non-reentrant model
  9479 ;;
  9480                           
  9481                           	psect	text22
  9482  003F88                     __ptext22:
  9483                           	opt callstack 0
  9484  003F88                     _TMR3_ReadTimer:
  9485                           	opt callstack 27
  9486  003F88                     
  9487                           ;mcc_generated_files/tmr3.c: 100:     uint16_t readVal;;mcc_generated_files/tmr3.c: 101:
      +                               uint8_t readValHigh;;mcc_generated_files/tmr3.c: 102:     uint8_t readValLow;;mcc_g
      +                          enerated_files/tmr3.c: 104:     T3CONbits.T3RD16 = 1;
  9488  003F88  82B1               	bsf	177,1,c	;volatile
  9489                           
  9490                           ;mcc_generated_files/tmr3.c: 106:     readValLow = TMR3L;
  9491  003F8A  CFB2 F008          	movff	4018,TMR3_ReadTimer@readValLow	;volatile
  9492                           
  9493                           ;mcc_generated_files/tmr3.c: 107:     readValHigh = TMR3H;
  9494  003F8E  CFB3 F007          	movff	4019,TMR3_ReadTimer@readValHigh	;volatile
  9495  003F92  0012               	return		;funcret
  9496  003F94                     __end_of_TMR3_ReadTimer:
  9497                           	opt callstack 0
  9498                           
  9499 ;; *************** function _TMR3_HasOverflowOccured *****************
  9500 ;; Defined at:
  9501 ;;		line 151 in file "mcc_generated_files/tmr3.c"
  9502 ;; Parameters:    Size  Location     Type
  9503 ;;		None
  9504 ;; Auto vars:     Size  Location     Type
  9505 ;;		None
  9506 ;; Return value:  Size  Location     Type
  9507 ;;                  1    wreg      _Bool 
  9508 ;; Registers used:
  9509 ;;		wreg
  9510 ;; Tracked objects:
  9511 ;;		On entry : 0/0
  9512 ;;		On exit  : 0/0
  9513 ;;		Unchanged: 0/0
  9514 ;; Data sizes:     COMRAM   BANK0   BANK1   BANK2   BANK3   BANK4   BANK5   BANK6   BANK7   BANK8   BANK9  BANK10  BANK1
      +1  BANK12  BANK13  BANK14  BANK15
  9515 ;;      Params:         0       0       0       0       0       0       0       0       0       0       0       0       
      +0       0       0       0       0
  9516 ;;      Locals:         0       0       0       0       0       0       0       0       0       0       0       0       
      +0       0       0       0       0
  9517 ;;      Temps:          0       0       0       0       0       0       0       0       0       0       0       0       
      +0       0       0       0       0
  9518 ;;      Totals:         0       0       0       0       0       0       0       0       0       0       0       0       
      +0       0       0       0       0
  9519 ;;Total ram usage:        0 bytes
  9520 ;; Hardware stack levels used:    1
  9521 ;; Hardware stack levels required when called:    3
  9522 ;; This function calls:
  9523 ;;		Nothing
  9524 ;; This function is called by:
  9525 ;;		_main
  9526 ;; This function uses a non-reentrant model
  9527 ;;
  9528                           
  9529                           	psect	text23
  9530  003F50                     __ptext23:
  9531                           	opt callstack 0
  9532  003F50                     _TMR3_HasOverflowOccured:
  9533                           	opt callstack 27
  9534  003F50                     
  9535                           ;mcc_generated_files/tmr3.c: 154:     return(PIR2bits.TMR3IF);
  9536  003F50  B2A1               	btfsc	161,1,c	;volatile
  9537  003F52  EFAD  F01F         	goto	u6651
  9538  003F56  EFB0  F01F         	goto	u6650
  9539  003F5A                     u6651:
  9540  003F5A  0E01               	movlw	1
  9541  003F5C  EFB1  F01F         	goto	u6656
  9542  003F60                     u6650:
  9543  003F60  0E00               	movlw	0
  9544  003F62                     u6656:
  9545  003F62  0012               	return		;funcret
  9546  003F64                     __end_of_TMR3_HasOverflowOccured:
  9547                           	opt callstack 0
  9548                           
  9549 ;; *************** function _TMR0_ReadTimer *****************
  9550 ;; Defined at:
  9551 ;;		line 99 in file "mcc_generated_files/tmr0.c"
  9552 ;; Parameters:    Size  Location     Type
  9553 ;;		None
  9554 ;; Auto vars:     Size  Location     Type
  9555 ;;  readVal         1    0        unsigned char 
  9556 ;; Return value:  Size  Location     Type
  9557 ;;                  1    wreg      unsigned char 
  9558 ;; Registers used:
  9559 ;;		wreg
  9560 ;; Tracked objects:
  9561 ;;		On entry : 0/0
  9562 ;;		On exit  : 0/0
  9563 ;;		Unchanged: 0/0
  9564 ;; Data sizes:     COMRAM   BANK0   BANK1   BANK2   BANK3   BANK4   BANK5   BANK6   BANK7   BANK8   BANK9  BANK10  BANK1
      +1  BANK12  BANK13  BANK14  BANK15
  9565 ;;      Params:         0       0       0       0       0       0       0       0       0       0       0       0       
      +0       0       0       0       0
  9566 ;;      Locals:         1       0       0       0       0       0       0       0       0       0       0       0       
      +0       0       0       0       0
  9567 ;;      Temps:          0       0       0       0       0       0       0       0       0       0       0       0       
      +0       0       0       0       0
  9568 ;;      Totals:         1       0       0       0       0       0       0       0       0       0       0       0       
      +0       0       0       0       0
  9569 ;;Total ram usage:        1 bytes
  9570 ;; Hardware stack levels used:    1
  9571 ;; Hardware stack levels required when called:    3
  9572 ;; This function calls:
  9573 ;;		Nothing
  9574 ;; This function is called by:
  9575 ;;		_main
  9576 ;; This function uses a non-reentrant model
  9577 ;;
  9578                           
  9579                           	psect	text24
  9580  003FA6                     __ptext24:
  9581                           	opt callstack 0
  9582  003FA6                     _TMR0_ReadTimer:
  9583                           	opt callstack 27
  9584  003FA6  50D6               	movf	214,w,c	;volatile
  9585  003FA8  0012               	return		;funcret
  9586  003FAA                     __end_of_TMR0_ReadTimer:
  9587                           	opt callstack 0
  9588                           
  9589 ;; *************** function _TMR0_HasOverflowOccured *****************
  9590 ;; Defined at:
  9591 ;;		line 122 in file "mcc_generated_files/tmr0.c"
  9592 ;; Parameters:    Size  Location     Type
  9593 ;;		None
  9594 ;; Auto vars:     Size  Location     Type
  9595 ;;		None
  9596 ;; Return value:  Size  Location     Type
  9597 ;;                  1    wreg      _Bool 
  9598 ;; Registers used:
  9599 ;;		wreg
  9600 ;; Tracked objects:
  9601 ;;		On entry : 0/0
  9602 ;;		On exit  : 0/0
  9603 ;;		Unchanged: 0/0
  9604 ;; Data sizes:     COMRAM   BANK0   BANK1   BANK2   BANK3   BANK4   BANK5   BANK6   BANK7   BANK8   BANK9  BANK10  BANK1
      +1  BANK12  BANK13  BANK14  BANK15
  9605 ;;      Params:         0       0       0       0       0       0       0       0       0       0       0       0       
      +0       0       0       0       0
  9606 ;;      Locals:         0       0       0       0       0       0       0       0       0       0       0       0       
      +0       0       0       0       0
  9607 ;;      Temps:          0       0       0       0       0       0       0       0       0       0       0       0       
      +0       0       0       0       0
  9608 ;;      Totals:         0       0       0       0       0       0       0       0       0       0       0       0       
      +0       0       0       0       0
  9609 ;;Total ram usage:        0 bytes
  9610 ;; Hardware stack levels used:    1
  9611 ;; Hardware stack levels required when called:    3
  9612 ;; This function calls:
  9613 ;;		Nothing
  9614 ;; This function is called by:
  9615 ;;		_main
  9616 ;; This function uses a non-reentrant model
  9617 ;;
  9618                           
  9619                           	psect	text25
  9620  003F64                     __ptext25:
  9621                           	opt callstack 0
  9622  003F64                     _TMR0_HasOverflowOccured:
  9623                           	opt callstack 27
  9624  003F64                     
  9625                           ;mcc_generated_files/tmr0.c: 125:     return(INTCONbits.TMR0IF);
  9626  003F64  B4F2               	btfsc	242,2,c	;volatile
  9627  003F66  EFB7  F01F         	goto	u6631
  9628  003F6A  EFBA  F01F         	goto	u6630
  9629  003F6E                     u6631:
  9630  003F6E  0E01               	movlw	1
  9631  003F70  EFBB  F01F         	goto	u6636
  9632  003F74                     u6630:
  9633  003F74  0E00               	movlw	0
  9634  003F76                     u6636:
  9635  003F76  0012               	return		;funcret
  9636  003F78                     __end_of_TMR0_HasOverflowOccured:
  9637                           	opt callstack 0
  9638                           
  9639 ;; *************** function _SYSTEM_Initialize *****************
  9640 ;; Defined at:
  9641 ;;		line 50 in file "mcc_generated_files/mcc.c"
  9642 ;; Parameters:    Size  Location     Type
  9643 ;;		None
  9644 ;; Auto vars:     Size  Location     Type
  9645 ;;		None
  9646 ;; Return value:  Size  Location     Type
  9647 ;;                  1    wreg      void 
  9648 ;; Registers used:
  9649 ;;		wreg, status,2, status,0, cstack
  9650 ;; Tracked objects:
  9651 ;;		On entry : 0/0
  9652 ;;		On exit  : 0/0
  9653 ;;		Unchanged: 0/0
  9654 ;; Data sizes:     COMRAM   BANK0   BANK1   BANK2   BANK3   BANK4   BANK5   BANK6   BANK7   BANK8   BANK9  BANK10  BANK1
      +1  BANK12  BANK13  BANK14  BANK15
  9655 ;;      Params:         0       0       0       0       0       0       0       0       0       0       0       0       
      +0       0       0       0       0
  9656 ;;      Locals:         0       0       0       0       0       0       0       0       0       0       0       0       
      +0       0       0       0       0
  9657 ;;      Temps:          0       0       0       0       0       0       0       0       0       0       0       0       
      +0       0       0       0       0
  9658 ;;      Totals:         0       0       0       0       0       0       0       0       0       0       0       0       
      +0       0       0       0       0
  9659 ;;Total ram usage:        0 bytes
  9660 ;; Hardware stack levels used:    1
  9661 ;; Hardware stack levels required when called:    5
  9662 ;; This function calls:
  9663 ;;		_ADC_Initialize
  9664 ;;		_CCP5_Initialize
  9665 ;;		_INTERRUPT_Initialize
  9666 ;;		_OSCILLATOR_Initialize
  9667 ;;		_PIN_MANAGER_Initialize
  9668 ;;		_TMR0_Initialize
  9669 ;;		_TMR1_Initialize
  9670 ;;		_TMR3_Initialize
  9671 ;; This function is called by:
  9672 ;;		_main
  9673 ;; This function uses a non-reentrant model
  9674 ;;
  9675                           
  9676                           	psect	text26
  9677  003EB2                     __ptext26:
  9678                           	opt callstack 0
  9679  003EB2                     _SYSTEM_Initialize:
  9680                           	opt callstack 25
  9681  003EB2                     
  9682                           ;mcc_generated_files/mcc.c: 53:     INTERRUPT_Initialize();
  9683  003EB2  ECD5  F01F         	call	_INTERRUPT_Initialize	;wreg free
  9684  003EB6                     
  9685                           ;mcc_generated_files/mcc.c: 54:     PIN_MANAGER_Initialize();
  9686  003EB6  EC1A  F01F         	call	_PIN_MANAGER_Initialize	;wreg free
  9687  003EBA                     
  9688                           ;mcc_generated_files/mcc.c: 55:     OSCILLATOR_Initialize();
  9689  003EBA  EC78  F01F         	call	_OSCILLATOR_Initialize	;wreg free
  9690  003EBE                     
  9691                           ;mcc_generated_files/mcc.c: 56:     ADC_Initialize();
  9692  003EBE  EC9D  F01F         	call	_ADC_Initialize	;wreg free
  9693  003EC2                     
  9694                           ;mcc_generated_files/mcc.c: 57:     CCP5_Initialize();
  9695  003EC2  ECBC  F01F         	call	_CCP5_Initialize	;wreg free
  9696  003EC6                     
  9697                           ;mcc_generated_files/mcc.c: 58:     TMR3_Initialize();
  9698  003EC6  EC6A  F01F         	call	_TMR3_Initialize	;wreg free
  9699  003ECA                     
  9700                           ;mcc_generated_files/mcc.c: 59:     TMR1_Initialize();
  9701  003ECA  EC30  F01F         	call	_TMR1_Initialize	;wreg free
  9702  003ECE                     
  9703                           ;mcc_generated_files/mcc.c: 60:     TMR0_Initialize();
  9704  003ECE  EC92  F01F         	call	_TMR0_Initialize	;wreg free
  9705  003ED2  0012               	return		;funcret
  9706  003ED4                     __end_of_SYSTEM_Initialize:
  9707                           	opt callstack 0
  9708                           
  9709 ;; *************** function _TMR3_Initialize *****************
  9710 ;; Defined at:
  9711 ;;		line 63 in file "mcc_generated_files/tmr3.c"
  9712 ;; Parameters:    Size  Location     Type
  9713 ;;		None
  9714 ;; Auto vars:     Size  Location     Type
  9715 ;;		None
  9716 ;; Return value:  Size  Location     Type
  9717 ;;                  1    wreg      void 
  9718 ;; Registers used:
  9719 ;;		wreg, status,2
  9720 ;; Tracked objects:
  9721 ;;		On entry : 0/0
  9722 ;;		On exit  : 0/0
  9723 ;;		Unchanged: 0/0
  9724 ;; Data sizes:     COMRAM   BANK0   BANK1   BANK2   BANK3   BANK4   BANK5   BANK6   BANK7   BANK8   BANK9  BANK10  BANK1
      +1  BANK12  BANK13  BANK14  BANK15
  9725 ;;      Params:         0       0       0       0       0       0       0       0       0       0       0       0       
      +0       0       0       0       0
  9726 ;;      Locals:         0       0       0       0       0       0       0       0       0       0       0       0       
      +0       0       0       0       0
  9727 ;;      Temps:          0       0       0       0       0       0       0       0       0       0       0       0       
      +0       0       0       0       0
  9728 ;;      Totals:         0       0       0       0       0       0       0       0       0       0       0       0       
      +0       0       0       0       0
  9729 ;;Total ram usage:        0 bytes
  9730 ;; Hardware stack levels used:    1
  9731 ;; Hardware stack levels required when called:    3
  9732 ;; This function calls:
  9733 ;;		Nothing
  9734 ;; This function is called by:
  9735 ;;		_SYSTEM_Initialize
  9736 ;; This function uses a non-reentrant model
  9737 ;;
  9738                           
  9739                           	psect	text27
  9740  003ED4                     __ptext27:
  9741                           	opt callstack 0
  9742  003ED4                     _TMR3_Initialize:
  9743                           	opt callstack 26
  9744  003ED4                     
  9745                           ;mcc_generated_files/tmr3.c: 68:     T3GCON = 0x00;
  9746  003ED4  0E00               	movlw	0
  9747  003ED6  6EB4               	movwf	180,c	;volatile
  9748                           
  9749                           ;mcc_generated_files/tmr3.c: 71:     TMR3H = 0xD8;
  9750  003ED8  0ED8               	movlw	216
  9751  003EDA  6EB3               	movwf	179,c	;volatile
  9752                           
  9753                           ;mcc_generated_files/tmr3.c: 74:     TMR3L = 0xF0;
  9754  003EDC  0EF0               	movlw	240
  9755  003EDE  6EB2               	movwf	178,c	;volatile
  9756  003EE0                     
  9757                           ;mcc_generated_files/tmr3.c: 77:     timer3ReloadVal=TMR3;
  9758  003EE0  CFB2 F0B0          	movff	4018,_timer3ReloadVal	;volatile
  9759  003EE4  CFB3 F0B1          	movff	4019,_timer3ReloadVal+1	;volatile
  9760  003EE8                     
  9761                           ;mcc_generated_files/tmr3.c: 80:     PIR2bits.TMR3IF = 0;
  9762  003EE8  92A1               	bcf	161,1,c	;volatile
  9763                           
  9764                           ;mcc_generated_files/tmr3.c: 83:     T3CON = 0x31;
  9765  003EEA  0E31               	movlw	49
  9766  003EEC  6EB1               	movwf	177,c	;volatile
  9767  003EEE  0012               	return		;funcret
  9768  003EF0                     __end_of_TMR3_Initialize:
  9769                           	opt callstack 0
  9770                           
  9771 ;; *************** function _TMR1_Initialize *****************
  9772 ;; Defined at:
  9773 ;;		line 64 in file "mcc_generated_files/tmr1.c"
  9774 ;; Parameters:    Size  Location     Type
  9775 ;;		None
  9776 ;; Auto vars:     Size  Location     Type
  9777 ;;		None
  9778 ;; Return value:  Size  Location     Type
  9779 ;;                  1    wreg      void 
  9780 ;; Registers used:
  9781 ;;		wreg, status,2, status,0, cstack
  9782 ;; Tracked objects:
  9783 ;;		On entry : 0/0
  9784 ;;		On exit  : 0/0
  9785 ;;		Unchanged: 0/0
  9786 ;; Data sizes:     COMRAM   BANK0   BANK1   BANK2   BANK3   BANK4   BANK5   BANK6   BANK7   BANK8   BANK9  BANK10  BANK1
      +1  BANK12  BANK13  BANK14  BANK15
  9787 ;;      Params:         0       0       0       0       0       0       0       0       0       0       0       0       
      +0       0       0       0       0
  9788 ;;      Locals:         0       0       0       0       0       0       0       0       0       0       0       0       
      +0       0       0       0       0
  9789 ;;      Temps:          0       0       0       0       0       0       0       0       0       0       0       0       
      +0       0       0       0       0
  9790 ;;      Totals:         0       0       0       0       0       0       0       0       0       0       0       0       
      +0       0       0       0       0
  9791 ;;Total ram usage:        0 bytes
  9792 ;; Hardware stack levels used:    1
  9793 ;; Hardware stack levels required when called:    4
  9794 ;; This function calls:
  9795 ;;		_TMR1_SetInterruptHandler
  9796 ;; This function is called by:
  9797 ;;		_SYSTEM_Initialize
  9798 ;; This function uses a non-reentrant model
  9799 ;;
  9800                           
  9801                           	psect	text28
  9802  003E60                     __ptext28:
  9803                           	opt callstack 0
  9804  003E60                     _TMR1_Initialize:
  9805                           	opt callstack 25
  9806  003E60                     
  9807                           ;mcc_generated_files/tmr1.c: 69:     T1GCON = 0x00;
  9808  003E60  0E00               	movlw	0
  9809  003E62  6ECC               	movwf	204,c	;volatile
  9810                           
  9811                           ;mcc_generated_files/tmr1.c: 72:     TMR1H = 0xEC;
  9812  003E64  0EEC               	movlw	236
  9813  003E66  6ECF               	movwf	207,c	;volatile
  9814                           
  9815                           ;mcc_generated_files/tmr1.c: 75:     TMR1L = 0x78;
  9816  003E68  0E78               	movlw	120
  9817  003E6A  6ECE               	movwf	206,c	;volatile
  9818  003E6C                     
  9819                           ;mcc_generated_files/tmr1.c: 78:     timer1ReloadVal=TMR1;
  9820  003E6C  CFCE F0B4          	movff	4046,_timer1ReloadVal	;volatile
  9821  003E70  CFCF F0B5          	movff	4047,_timer1ReloadVal+1	;volatile
  9822  003E74                     
  9823                           ;mcc_generated_files/tmr1.c: 81:     PIR1bits.TMR1IF = 0;
  9824  003E74  909E               	bcf	158,0,c	;volatile
  9825  003E76                     
  9826                           ;mcc_generated_files/tmr1.c: 84:     PIE1bits.TMR1IE = 1;
  9827  003E76  809D               	bsf	157,0,c	;volatile
  9828  003E78                     
  9829                           ;mcc_generated_files/tmr1.c: 87:     TMR1_SetInterruptHandler(TMR1_DefaultInterruptHandl
      +                          er);
  9830  003E78  0EAE               	movlw	low _TMR1_DefaultInterruptHandler
  9831  003E7A  6E05               	movwf	TMR1_SetInterruptHandler@InterruptHandler^0,c
  9832  003E7C  0E3F               	movlw	high _TMR1_DefaultInterruptHandler
  9833  003E7E  6E06               	movwf	(TMR1_SetInterruptHandler@InterruptHandler+1)^0,c
  9834  003E80  ECCA  F01F         	call	_TMR1_SetInterruptHandler	;wreg free
  9835  003E84                     
  9836                           ;mcc_generated_files/tmr1.c: 90:     T1CON = 0x31;
  9837  003E84  0E31               	movlw	49
  9838  003E86  6ECD               	movwf	205,c	;volatile
  9839  003E88  0012               	return		;funcret
  9840  003E8A                     __end_of_TMR1_Initialize:
  9841                           	opt callstack 0
  9842                           
  9843 ;; *************** function _TMR1_SetInterruptHandler *****************
  9844 ;; Defined at:
  9845 ;;		line 172 in file "mcc_generated_files/tmr1.c"
  9846 ;; Parameters:    Size  Location     Type
  9847 ;;  InterruptHan    2    4[COMRAM] PTR FTN()void 
  9848 ;;		 -> myTimer1ISR(1), TMR1_DefaultInterruptHandler(1), 
  9849 ;; Auto vars:     Size  Location     Type
  9850 ;;		None
  9851 ;; Return value:  Size  Location     Type
  9852 ;;                  1    wreg      void 
  9853 ;; Registers used:
  9854 ;;		wreg, status,2, status,0
  9855 ;; Tracked objects:
  9856 ;;		On entry : 0/0
  9857 ;;		On exit  : 0/0
  9858 ;;		Unchanged: 0/0
  9859 ;; Data sizes:     COMRAM   BANK0   BANK1   BANK2   BANK3   BANK4   BANK5   BANK6   BANK7   BANK8   BANK9  BANK10  BANK1
      +1  BANK12  BANK13  BANK14  BANK15
  9860 ;;      Params:         2       0       0       0       0       0       0       0       0       0       0       0       
      +0       0       0       0       0
  9861 ;;      Locals:         0       0       0       0       0       0       0       0       0       0       0       0       
      +0       0       0       0       0
  9862 ;;      Temps:          0       0       0       0       0       0       0       0       0       0       0       0       
      +0       0       0       0       0
  9863 ;;      Totals:         2       0       0       0       0       0       0       0       0       0       0       0       
      +0       0       0       0       0
  9864 ;;Total ram usage:        2 bytes
  9865 ;; Hardware stack levels used:    1
  9866 ;; Hardware stack levels required when called:    3
  9867 ;; This function calls:
  9868 ;;		Nothing
  9869 ;; This function is called by:
  9870 ;;		_TMR1_Initialize
  9871 ;;		_main
  9872 ;; This function uses a non-reentrant model
  9873 ;;
  9874                           
  9875                           	psect	text29
  9876  003F94                     __ptext29:
  9877                           	opt callstack 0
  9878  003F94                     _TMR1_SetInterruptHandler:
  9879                           	opt callstack 27
  9880  003F94                     
  9881                           ;mcc_generated_files/tmr1.c: 173:     TMR1_InterruptHandler = InterruptHandler;
  9882  003F94  C005  F0B2         	movff	TMR1_SetInterruptHandler@InterruptHandler,_TMR1_InterruptHandler
  9883  003F98  C006  F0B3         	movff	TMR1_SetInterruptHandler@InterruptHandler+1,_TMR1_InterruptHandler+1
  9884  003F9C  0012               	return		;funcret
  9885  003F9E                     __end_of_TMR1_SetInterruptHandler:
  9886                           	opt callstack 0
  9887                           
  9888 ;; *************** function _TMR0_Initialize *****************
  9889 ;; Defined at:
  9890 ;;		line 66 in file "mcc_generated_files/tmr0.c"
  9891 ;; Parameters:    Size  Location     Type
  9892 ;;		None
  9893 ;; Auto vars:     Size  Location     Type
  9894 ;;		None
  9895 ;; Return value:  Size  Location     Type
  9896 ;;                  1    wreg      void 
  9897 ;; Registers used:
  9898 ;;		wreg, status,2
  9899 ;; Tracked objects:
  9900 ;;		On entry : 0/0
  9901 ;;		On exit  : 0/0
  9902 ;;		Unchanged: 0/0
  9903 ;; Data sizes:     COMRAM   BANK0   BANK1   BANK2   BANK3   BANK4   BANK5   BANK6   BANK7   BANK8   BANK9  BANK10  BANK1
      +1  BANK12  BANK13  BANK14  BANK15
  9904 ;;      Params:         0       0       0       0       0       0       0       0       0       0       0       0       
      +0       0       0       0       0
  9905 ;;      Locals:         0       0       0       0       0       0       0       0       0       0       0       0       
      +0       0       0       0       0
  9906 ;;      Temps:          0       0       0       0       0       0       0       0       0       0       0       0       
      +0       0       0       0       0
  9907 ;;      Totals:         0       0       0       0       0       0       0       0       0       0       0       0       
      +0       0       0       0       0
  9908 ;;Total ram usage:        0 bytes
  9909 ;; Hardware stack levels used:    1
  9910 ;; Hardware stack levels required when called:    3
  9911 ;; This function calls:
  9912 ;;		Nothing
  9913 ;; This function is called by:
  9914 ;;		_SYSTEM_Initialize
  9915 ;; This function uses a non-reentrant model
  9916 ;;
  9917                           
  9918                           	psect	text30
  9919  003F24                     __ptext30:
  9920                           	opt callstack 0
  9921  003F24                     _TMR0_Initialize:
  9922                           	opt callstack 26
  9923  003F24                     
  9924                           ;mcc_generated_files/tmr0.c: 71:     TMR0H = 0x00;
  9925  003F24  0E00               	movlw	0
  9926  003F26  6ED7               	movwf	215,c	;volatile
  9927                           
  9928                           ;mcc_generated_files/tmr0.c: 74:     TMR0L = 0xE1;
  9929  003F28  0EE1               	movlw	225
  9930  003F2A  6ED6               	movwf	214,c	;volatile
  9931                           
  9932                           ;mcc_generated_files/tmr0.c: 78:     timer0ReloadVal = 225;
  9933  003F2C  0EE1               	movlw	225
  9934  003F2E  0100               	movlb	0	; () banked
  9935  003F30  6FD1               	movwf	_timer0ReloadVal& (0+255),b	;volatile
  9936  003F32                     
  9937                           ; BSR set to: 0
  9938                           ;mcc_generated_files/tmr0.c: 81:     INTCONbits.TMR0IF = 0;
  9939  003F32  94F2               	bcf	242,2,c	;volatile
  9940                           
  9941                           ;mcc_generated_files/tmr0.c: 84:     T0CON = 0xD7;
  9942  003F34  0ED7               	movlw	215
  9943  003F36  6ED5               	movwf	213,c	;volatile
  9944  003F38                     
  9945                           ; BSR set to: 0
  9946  003F38  0012               	return		;funcret
  9947  003F3A                     __end_of_TMR0_Initialize:
  9948                           	opt callstack 0
  9949                           
  9950 ;; *************** function _PIN_MANAGER_Initialize *****************
  9951 ;; Defined at:
  9952 ;;		line 55 in file "mcc_generated_files/pin_manager.c"
  9953 ;; Parameters:    Size  Location     Type
  9954 ;;		None
  9955 ;; Auto vars:     Size  Location     Type
  9956 ;;		None
  9957 ;; Return value:  Size  Location     Type
  9958 ;;                  1    wreg      void 
  9959 ;; Registers used:
  9960 ;;		wreg, status,2
  9961 ;; Tracked objects:
  9962 ;;		On entry : 0/0
  9963 ;;		On exit  : 0/0
  9964 ;;		Unchanged: 0/0
  9965 ;; Data sizes:     COMRAM   BANK0   BANK1   BANK2   BANK3   BANK4   BANK5   BANK6   BANK7   BANK8   BANK9  BANK10  BANK1
      +1  BANK12  BANK13  BANK14  BANK15
  9966 ;;      Params:         0       0       0       0       0       0       0       0       0       0       0       0       
      +0       0       0       0       0
  9967 ;;      Locals:         0       0       0       0       0       0       0       0       0       0       0       0       
      +0       0       0       0       0
  9968 ;;      Temps:          0       0       0       0       0       0       0       0       0       0       0       0       
      +0       0       0       0       0
  9969 ;;      Totals:         0       0       0       0       0       0       0       0       0       0       0       0       
      +0       0       0       0       0
  9970 ;;Total ram usage:        0 bytes
  9971 ;; Hardware stack levels used:    1
  9972 ;; Hardware stack levels required when called:    3
  9973 ;; This function calls:
  9974 ;;		Nothing
  9975 ;; This function is called by:
  9976 ;;		_SYSTEM_Initialize
  9977 ;; This function uses a non-reentrant model
  9978 ;;
  9979                           
  9980                           	psect	text31
  9981  003E34                     __ptext31:
  9982                           	opt callstack 0
  9983  003E34                     _PIN_MANAGER_Initialize:
  9984                           	opt callstack 26
  9985  003E34                     
  9986                           ;mcc_generated_files/pin_manager.c: 60:     LATA = 0x00;
  9987  003E34  0E00               	movlw	0
  9988  003E36  6E89               	movwf	137,c	;volatile
  9989                           
  9990                           ;mcc_generated_files/pin_manager.c: 61:     LATB = 0x00;
  9991  003E38  0E00               	movlw	0
  9992  003E3A  6E8A               	movwf	138,c	;volatile
  9993                           
  9994                           ;mcc_generated_files/pin_manager.c: 62:     LATC = 0x00;
  9995  003E3C  0E00               	movlw	0
  9996  003E3E  6E8B               	movwf	139,c	;volatile
  9997  003E40                     
  9998                           ;mcc_generated_files/pin_manager.c: 67:     TRISA = 0xFF;
  9999  003E40  6892               	setf	146,c	;volatile
 10000                           
 10001                           ;mcc_generated_files/pin_manager.c: 68:     TRISB = 0x01;
 10002  003E42  0E01               	movlw	1
 10003  003E44  6E93               	movwf	147,c	;volatile
 10004                           
 10005                           ;mcc_generated_files/pin_manager.c: 69:     TRISC = 0x18;
 10006  003E46  0E18               	movlw	24
 10007  003E48  6E94               	movwf	148,c	;volatile
 10008                           
 10009                           ;mcc_generated_files/pin_manager.c: 74:     ANSELC = 0xFC;
 10010  003E4A  0EFC               	movlw	252
 10011  003E4C  010F               	movlb	15	; () banked
 10012  003E4E  6F3A               	movwf	58,b	;volatile
 10013                           
 10014                           ;mcc_generated_files/pin_manager.c: 75:     ANSELB = 0x3E;
 10015  003E50  0E3E               	movlw	62
 10016  003E52  6F39               	movwf	57,b	;volatile
 10017                           
 10018                           ;mcc_generated_files/pin_manager.c: 76:     ANSELA = 0x0E;
 10019  003E54  0E0E               	movlw	14
 10020  003E56  6F38               	movwf	56,b	;volatile
 10021                           
 10022                           ;mcc_generated_files/pin_manager.c: 81:     WPUB = 0x00;
 10023  003E58  0E00               	movlw	0
 10024  003E5A  6E61               	movwf	97,c	;volatile
 10025  003E5C                     
 10026                           ; BSR set to: 15
 10027                           ;mcc_generated_files/pin_manager.c: 82:     INTCON2bits.nRBPU = 1;
 10028  003E5C  8EF1               	bsf	241,7,c	;volatile
 10029  003E5E                     
 10030                           ; BSR set to: 15
 10031  003E5E  0012               	return		;funcret
 10032  003E60                     __end_of_PIN_MANAGER_Initialize:
 10033                           	opt callstack 0
 10034                           
 10035 ;; *************** function _OSCILLATOR_Initialize *****************
 10036 ;; Defined at:
 10037 ;;		line 63 in file "mcc_generated_files/mcc.c"
 10038 ;; Parameters:    Size  Location     Type
 10039 ;;		None
 10040 ;; Auto vars:     Size  Location     Type
 10041 ;;		None
 10042 ;; Return value:  Size  Location     Type
 10043 ;;                  1    wreg      void 
 10044 ;; Registers used:
 10045 ;;		wreg, status,2
 10046 ;; Tracked objects:
 10047 ;;		On entry : 0/0
 10048 ;;		On exit  : 0/0
 10049 ;;		Unchanged: 0/0
 10050 ;; Data sizes:     COMRAM   BANK0   BANK1   BANK2   BANK3   BANK4   BANK5   BANK6   BANK7   BANK8   BANK9  BANK10  BANK1
      +1  BANK12  BANK13  BANK14  BANK15
 10051 ;;      Params:         0       0       0       0       0       0       0       0       0       0       0       0       
      +0       0       0       0       0
 10052 ;;      Locals:         0       0       0       0       0       0       0       0       0       0       0       0       
      +0       0       0       0       0
 10053 ;;      Temps:          0       0       0       0       0       0       0       0       0       0       0       0       
      +0       0       0       0       0
 10054 ;;      Totals:         0       0       0       0       0       0       0       0       0       0       0       0       
      +0       0       0       0       0
 10055 ;;Total ram usage:        0 bytes
 10056 ;; Hardware stack levels used:    1
 10057 ;; Hardware stack levels required when called:    3
 10058 ;; This function calls:
 10059 ;;		Nothing
 10060 ;; This function is called by:
 10061 ;;		_SYSTEM_Initialize
 10062 ;; This function uses a non-reentrant model
 10063 ;;
 10064                           
 10065                           	psect	text32
 10066  003EF0                     __ptext32:
 10067                           	opt callstack 0
 10068  003EF0                     _OSCILLATOR_Initialize:
 10069                           	opt callstack 26
 10070  003EF0                     
 10071                           ;mcc_generated_files/mcc.c: 66:     OSCCON = 0x60;
 10072  003EF0  0E60               	movlw	96
 10073  003EF2  6ED3               	movwf	211,c	;volatile
 10074                           
 10075                           ;mcc_generated_files/mcc.c: 68:     OSCCON2 = 0x04;
 10076  003EF4  0E04               	movlw	4
 10077  003EF6  6ED2               	movwf	210,c	;volatile
 10078                           
 10079                           ;mcc_generated_files/mcc.c: 70:     OSCTUNE = 0x40;
 10080  003EF8  0E40               	movlw	64
 10081  003EFA  6E9B               	movwf	155,c	;volatile
 10082  003EFC                     l30:
 10083                           
 10084                           ;mcc_generated_files/mcc.c: 72:     while(PLLRDY == 0)
 10085  003EFC  AED2               	btfss	4050,7,c	;volatile
 10086  003EFE  EF83  F01F         	goto	u6091
 10087  003F02  EF85  F01F         	goto	u6090
 10088  003F06                     u6091:
 10089  003F06  EF7E  F01F         	goto	l30
 10090  003F0A                     u6090:
 10091  003F0A  0012               	return		;funcret
 10092  003F0C                     __end_of_OSCILLATOR_Initialize:
 10093                           	opt callstack 0
 10094                           
 10095 ;; *************** function _INTERRUPT_Initialize *****************
 10096 ;; Defined at:
 10097 ;;		line 52 in file "mcc_generated_files/interrupt_manager.c"
 10098 ;; Parameters:    Size  Location     Type
 10099 ;;		None
 10100 ;; Auto vars:     Size  Location     Type
 10101 ;;		None
 10102 ;; Return value:  Size  Location     Type
 10103 ;;                  1    wreg      void 
 10104 ;; Registers used:
 10105 ;;		None
 10106 ;; Tracked objects:
 10107 ;;		On entry : 0/0
 10108 ;;		On exit  : 0/0
 10109 ;;		Unchanged: 0/0
 10110 ;; Data sizes:     COMRAM   BANK0   BANK1   BANK2   BANK3   BANK4   BANK5   BANK6   BANK7   BANK8   BANK9  BANK10  BANK1
      +1  BANK12  BANK13  BANK14  BANK15
 10111 ;;      Params:         0       0       0       0       0       0       0       0       0       0       0       0       
      +0       0       0       0       0
 10112 ;;      Locals:         0       0       0       0       0       0       0       0       0       0       0       0       
      +0       0       0       0       0
 10113 ;;      Temps:          0       0       0       0       0       0       0       0       0       0       0       0       
      +0       0       0       0       0
 10114 ;;      Totals:         0       0       0       0       0       0       0       0       0       0       0       0       
      +0       0       0       0       0
 10115 ;;Total ram usage:        0 bytes
 10116 ;; Hardware stack levels used:    1
 10117 ;; Hardware stack levels required when called:    3
 10118 ;; This function calls:
 10119 ;;		Nothing
 10120 ;; This function is called by:
 10121 ;;		_SYSTEM_Initialize
 10122 ;; This function uses a non-reentrant model
 10123 ;;
 10124                           
 10125                           	psect	text33
 10126  003FAA                     __ptext33:
 10127                           	opt callstack 0
 10128  003FAA                     _INTERRUPT_Initialize:
 10129                           	opt callstack 26
 10130  003FAA                     
 10131                           ;mcc_generated_files/interrupt_manager.c: 55:     RCONbits.IPEN = 0;
 10132  003FAA  9ED0               	bcf	208,7,c	;volatile
 10133  003FAC  0012               	return		;funcret
 10134  003FAE                     __end_of_INTERRUPT_Initialize:
 10135                           	opt callstack 0
 10136                           
 10137 ;; *************** function _CCP5_Initialize *****************
 10138 ;; Defined at:
 10139 ;;		line 49 in file "mcc_generated_files/ccp5.c"
 10140 ;; Parameters:    Size  Location     Type
 10141 ;;		None
 10142 ;; Auto vars:     Size  Location     Type
 10143 ;;		None
 10144 ;; Return value:  Size  Location     Type
 10145 ;;                  1    wreg      void 
 10146 ;; Registers used:
 10147 ;;		wreg, status,2
 10148 ;; Tracked objects:
 10149 ;;		On entry : 0/0
 10150 ;;		On exit  : 0/0
 10151 ;;		Unchanged: 0/0
 10152 ;; Data sizes:     COMRAM   BANK0   BANK1   BANK2   BANK3   BANK4   BANK5   BANK6   BANK7   BANK8   BANK9  BANK10  BANK1
      +1  BANK12  BANK13  BANK14  BANK15
 10153 ;;      Params:         0       0       0       0       0       0       0       0       0       0       0       0       
      +0       0       0       0       0
 10154 ;;      Locals:         0       0       0       0       0       0       0       0       0       0       0       0       
      +0       0       0       0       0
 10155 ;;      Temps:          0       0       0       0       0       0       0       0       0       0       0       0       
      +0       0       0       0       0
 10156 ;;      Totals:         0       0       0       0       0       0       0       0       0       0       0       0       
      +0       0       0       0       0
 10157 ;;Total ram usage:        0 bytes
 10158 ;; Hardware stack levels used:    1
 10159 ;; Hardware stack levels required when called:    3
 10160 ;; This function calls:
 10161 ;;		Nothing
 10162 ;; This function is called by:
 10163 ;;		_SYSTEM_Initialize
 10164 ;; This function uses a non-reentrant model
 10165 ;;
 10166                           
 10167                           	psect	text34
 10168  003F78                     __ptext34:
 10169                           	opt callstack 0
 10170  003F78                     _CCP5_Initialize:
 10171                           	opt callstack 26
 10172  003F78                     
 10173                           ;mcc_generated_files/ccp5.c: 53:  CCP5CON = 0x00;
 10174  003F78  0E00               	movlw	0
 10175  003F7A  010F               	movlb	15	; () banked
 10176  003F7C  6F54               	movwf	84,b	;volatile
 10177                           
 10178                           ;mcc_generated_files/ccp5.c: 56:  CCPR5L = 0x00;
 10179  003F7E  0E00               	movlw	0
 10180  003F80  6F55               	movwf	85,b	;volatile
 10181                           
 10182                           ;mcc_generated_files/ccp5.c: 59:  CCPR5H = 0x00;
 10183  003F82  0E00               	movlw	0
 10184  003F84  6F56               	movwf	86,b	;volatile
 10185  003F86                     
 10186                           ; BSR set to: 15
 10187  003F86  0012               	return		;funcret
 10188  003F88                     __end_of_CCP5_Initialize:
 10189                           	opt callstack 0
 10190                           
 10191 ;; *************** function _ADC_Initialize *****************
 10192 ;; Defined at:
 10193 ;;		line 62 in file "mcc_generated_files/adc.c"
 10194 ;; Parameters:    Size  Location     Type
 10195 ;;		None
 10196 ;; Auto vars:     Size  Location     Type
 10197 ;;		None
 10198 ;; Return value:  Size  Location     Type
 10199 ;;                  1    wreg      void 
 10200 ;; Registers used:
 10201 ;;		wreg, status,2
 10202 ;; Tracked objects:
 10203 ;;		On entry : 0/0
 10204 ;;		On exit  : 0/0
 10205 ;;		Unchanged: 0/0
 10206 ;; Data sizes:     COMRAM   BANK0   BANK1   BANK2   BANK3   BANK4   BANK5   BANK6   BANK7   BANK8   BANK9  BANK10  BANK1
      +1  BANK12  BANK13  BANK14  BANK15
 10207 ;;      Params:         0       0       0       0       0       0       0       0       0       0       0       0       
      +0       0       0       0       0
 10208 ;;      Locals:         0       0       0       0       0       0       0       0       0       0       0       0       
      +0       0       0       0       0
 10209 ;;      Temps:          0       0       0       0       0       0       0       0       0       0       0       0       
      +0       0       0       0       0
 10210 ;;      Totals:         0       0       0       0       0       0       0       0       0       0       0       0       
      +0       0       0       0       0
 10211 ;;Total ram usage:        0 bytes
 10212 ;; Hardware stack levels used:    1
 10213 ;; Hardware stack levels required when called:    3
 10214 ;; This function calls:
 10215 ;;		Nothing
 10216 ;; This function is called by:
 10217 ;;		_SYSTEM_Initialize
 10218 ;; This function uses a non-reentrant model
 10219 ;;
 10220                           
 10221                           	psect	text35
 10222  003F3A                     __ptext35:
 10223                           	opt callstack 0
 10224  003F3A                     _ADC_Initialize:
 10225                           	opt callstack 26
 10226  003F3A                     
 10227                           ;mcc_generated_files/adc.c: 67:     ADCON0 = 0x01;
 10228  003F3A  0E01               	movlw	1
 10229  003F3C  6EC2               	movwf	194,c	;volatile
 10230                           
 10231                           ;mcc_generated_files/adc.c: 70:     ADCON1 = 0x04;
 10232  003F3E  0E04               	movlw	4
 10233  003F40  6EC1               	movwf	193,c	;volatile
 10234                           
 10235                           ;mcc_generated_files/adc.c: 73:     ADCON2 = 0xBE;
 10236  003F42  0EBE               	movlw	190
 10237  003F44  6EC0               	movwf	192,c	;volatile
 10238                           
 10239                           ;mcc_generated_files/adc.c: 76:     ADRESL = 0x00;
 10240  003F46  0E00               	movlw	0
 10241  003F48  6EC3               	movwf	195,c	;volatile
 10242                           
 10243                           ;mcc_generated_files/adc.c: 79:     ADRESH = 0x00;
 10244  003F4A  0E00               	movlw	0
 10245  003F4C  6EC4               	movwf	196,c	;volatile
 10246  003F4E  0012               	return		;funcret
 10247  003F50                     __end_of_ADC_Initialize:
 10248                           	opt callstack 0
 10249                           
 10250 ;; *************** function _Key_Service *****************
 10251 ;; Defined at:
 10252 ;;		line 1411 in file "main.c"
 10253 ;; Parameters:    Size  Location     Type
 10254 ;;		None
 10255 ;; Auto vars:     Size  Location     Type
 10256 ;;		None
 10257 ;; Return value:  Size  Location     Type
 10258 ;;                  1    wreg      void 
 10259 ;; Registers used:
 10260 ;;		wreg, status,2, status,0, cstack
 10261 ;; Tracked objects:
 10262 ;;		On entry : 0/0
 10263 ;;		On exit  : 0/0
 10264 ;;		Unchanged: 0/0
 10265 ;; Data sizes:     COMRAM   BANK0   BANK1   BANK2   BANK3   BANK4   BANK5   BANK6   BANK7   BANK8   BANK9  BANK10  BANK1
      +1  BANK12  BANK13  BANK14  BANK15
 10266 ;;      Params:         0       0       0       0       0       0       0       0       0       0       0       0       
      +0       0       0       0       0
 10267 ;;      Locals:         0       0       0       0       0       0       0       0       0       0       0       0       
      +0       0       0       0       0
 10268 ;;      Temps:          0       0       0       0       0       0       0       0       0       0       0       0       
      +0       0       0       0       0
 10269 ;;      Totals:         0       0       0       0       0       0       0       0       0       0       0       0       
      +0       0       0       0       0
 10270 ;;Total ram usage:        0 bytes
 10271 ;; Hardware stack levels used:    1
 10272 ;; Hardware stack levels required when called:    4
 10273 ;; This function calls:
 10274 ;;		_Key_Scan
 10275 ;; This function is called by:
 10276 ;;		_main
 10277 ;; This function uses a non-reentrant model
 10278 ;;
 10279                           
 10280                           	psect	text36
 10281  003AC8                     __ptext36:
 10282                           	opt callstack 0
 10283  003AC8                     _Key_Service:
 10284                           	opt callstack 26
 10285  003AC8                     
 10286                           ;main.c: 1413:     static uint8_t fastincrcnt=0;;main.c: 1414:     uchr_PresentKey = Key
      +                          _Scan();
 10287  003AC8  ECBE  F01E         	call	_Key_Scan	;wreg free
 10288  003ACC  0100               	movlb	0	; () banked
 10289  003ACE  6FD0               	movwf	_uchr_PresentKey& (0+255),b
 10290  003AD0                     
 10291                           ; BSR set to: 0
 10292                           ;main.c: 1415:     if(uchr_PreviousKey != uchr_PresentKey)
 10293  003AD0  51D0               	movf	_uchr_PresentKey& (0+255),w,b
 10294  003AD2  19CF               	xorwf	_uchr_PreviousKey& (0+255),w,b
 10295  003AD4  B4D8               	btfsc	status,2,c
 10296  003AD6  EF6F  F01D         	goto	u6661
 10297  003ADA  EF71  F01D         	goto	u6660
 10298  003ADE                     u6661:
 10299  003ADE  EF9B  F01D         	goto	l7452
 10300  003AE2                     u6660:
 10301  003AE2                     
 10302                           ; BSR set to: 0
 10303                           ;main.c: 1416:     {;main.c: 1417:         uchr_PreviousKey = uchr_PresentKey;
 10304  003AE2  C0D0  F0CF         	movff	_uchr_PresentKey,_uchr_PreviousKey
 10305  003AE6                     
 10306                           ; BSR set to: 0
 10307                           ;main.c: 1418:         if(uchr_PresentKey ==1)
 10308  003AE6  05D0               	decf	_uchr_PresentKey& (0+255),w,b
 10309  003AE8  A4D8               	btfss	status,2,c
 10310  003AEA  EF79  F01D         	goto	u6671
 10311  003AEE  EF7B  F01D         	goto	u6670
 10312  003AF2                     u6671:
 10313  003AF2  EF7F  F01D         	goto	l7438
 10314  003AF6                     u6670:
 10315  003AF6                     
 10316                           ; BSR set to: 0
 10317                           ;main.c: 1419:             uchr_DebounceCnt = 100;
 10318  003AF6  0E64               	movlw	100
 10319  003AF8  6FCE               	movwf	_uchr_DebounceCnt& (0+255),b
 10320  003AFA  EF9B  F01D         	goto	l7452
 10321  003AFE                     l7438:
 10322                           
 10323                           ; BSR set to: 0
 10324                           ;main.c: 1421:         {;main.c: 1422:             if(fastincrcnt <= 10)
 10325  003AFE  0E0B               	movlw	11
 10326  003B00  61B6               	cpfslt	Key_Service@fastincrcnt& (0+255),b
 10327  003B02  EF85  F01D         	goto	u6681
 10328  003B06  EF87  F01D         	goto	u6680
 10329  003B0A                     u6681:
 10330  003B0A  EF8C  F01D         	goto	l7444
 10331  003B0E                     u6680:
 10332  003B0E                     
 10333                           ; BSR set to: 0
 10334                           ;main.c: 1423:             {;main.c: 1424:                 fastincrcnt++;
 10335  003B0E  2BB6               	incf	Key_Service@fastincrcnt& (0+255),f,b
 10336  003B10                     
 10337                           ; BSR set to: 0
 10338                           ;main.c: 1425:                 uchr_DebounceCnt = 50;
 10339  003B10  0E32               	movlw	50
 10340  003B12  6FCE               	movwf	_uchr_DebounceCnt& (0+255),b
 10341                           
 10342                           ;main.c: 1426:             }
 10343  003B14  EF9B  F01D         	goto	l7452
 10344  003B18                     l7444:
 10345                           
 10346                           ; BSR set to: 0
 10347  003B18  0E65               	movlw	101
 10348  003B1A  61B6               	cpfslt	Key_Service@fastincrcnt& (0+255),b
 10349  003B1C  EF92  F01D         	goto	u6691
 10350  003B20  EF94  F01D         	goto	u6690
 10351  003B24                     u6691:
 10352  003B24  EF99  F01D         	goto	l7450
 10353  003B28                     u6690:
 10354  003B28                     
 10355                           ; BSR set to: 0
 10356                           ;main.c: 1428:             {;main.c: 1429:                 fastincrcnt++;
 10357  003B28  2BB6               	incf	Key_Service@fastincrcnt& (0+255),f,b
 10358  003B2A                     
 10359                           ; BSR set to: 0
 10360                           ;main.c: 1430:                 uchr_DebounceCnt = 10;
 10361  003B2A  0E0A               	movlw	10
 10362  003B2C  6FCE               	movwf	_uchr_DebounceCnt& (0+255),b
 10363                           
 10364                           ;main.c: 1431:             }
 10365  003B2E  EF9B  F01D         	goto	l7452
 10366  003B32                     l7450:
 10367                           
 10368                           ; BSR set to: 0
 10369                           ;main.c: 1433:             {;main.c: 1434:                 uchr_DebounceCnt = 2;
 10370  003B32  0E02               	movlw	2
 10371  003B34  6FCE               	movwf	_uchr_DebounceCnt& (0+255),b
 10372  003B36                     l7452:
 10373                           
 10374                           ; BSR set to: 0
 10375                           ;main.c: 1445:     if(uchr_PresentKey == 16)
 10376  003B36  0E10               	movlw	16
 10377  003B38  19D0               	xorwf	_uchr_PresentKey& (0+255),w,b
 10378  003B3A  A4D8               	btfss	status,2,c
 10379  003B3C  EFA2  F01D         	goto	u6701
 10380  003B40  EFA4  F01D         	goto	u6700
 10381  003B44                     u6701:
 10382  003B44  EFA8  F01D         	goto	l1199
 10383  003B48                     u6700:
 10384  003B48                     
 10385                           ; BSR set to: 0
 10386                           ;main.c: 1446:     {;main.c: 1447:         uchr_DebounceCnt = 0;
 10387  003B48  0E00               	movlw	0
 10388  003B4A  6FCE               	movwf	_uchr_DebounceCnt& (0+255),b
 10389                           
 10390                           ;main.c: 1448:         fastincrcnt =0;
 10391  003B4C  0E00               	movlw	0
 10392  003B4E  6FB6               	movwf	Key_Service@fastincrcnt& (0+255),b
 10393  003B50                     l1199:
 10394                           
 10395                           ; BSR set to: 0
 10396  003B50  0012               	return		;funcret
 10397  003B52                     __end_of_Key_Service:
 10398                           	opt callstack 0
 10399                           
 10400 ;; *************** function _Key_Scan *****************
 10401 ;; Defined at:
 10402 ;;		line 1451 in file "main.c"
 10403 ;; Parameters:    Size  Location     Type
 10404 ;;		None
 10405 ;; Auto vars:     Size  Location     Type
 10406 ;;		None
 10407 ;; Return value:  Size  Location     Type
 10408 ;;                  1    wreg      unsigned char 
 10409 ;; Registers used:
 10410 ;;		wreg
 10411 ;; Tracked objects:
 10412 ;;		On entry : 0/0
 10413 ;;		On exit  : 0/0
 10414 ;;		Unchanged: 0/0
 10415 ;; Data sizes:     COMRAM   BANK0   BANK1   BANK2   BANK3   BANK4   BANK5   BANK6   BANK7   BANK8   BANK9  BANK10  BANK1
      +1  BANK12  BANK13  BANK14  BANK15
 10416 ;;      Params:         0       0       0       0       0       0       0       0       0       0       0       0       
      +0       0       0       0       0
 10417 ;;      Locals:         0       0       0       0       0       0       0       0       0       0       0       0       
      +0       0       0       0       0
 10418 ;;      Temps:          0       0       0       0       0       0       0       0       0       0       0       0       
      +0       0       0       0       0
 10419 ;;      Totals:         0       0       0       0       0       0       0       0       0       0       0       0       
      +0       0       0       0       0
 10420 ;;Total ram usage:        0 bytes
 10421 ;; Hardware stack levels used:    1
 10422 ;; Hardware stack levels required when called:    3
 10423 ;; This function calls:
 10424 ;;		Nothing
 10425 ;; This function is called by:
 10426 ;;		_Key_Service
 10427 ;; This function uses a non-reentrant model
 10428 ;;
 10429                           
 10430                           	psect	text37
 10431  003D7C                     __ptext37:
 10432                           	opt callstack 0
 10433  003D7C                     _Key_Scan:
 10434                           	opt callstack 26
 10435  003D7C                     
 10436                           ;main.c: 1454:     if(PORTAbits.RA0==0)
 10437  003D7C  B080               	btfsc	128,0,c	;volatile
 10438  003D7E  EFC3  F01E         	goto	u6141
 10439  003D82  EFC5  F01E         	goto	u6140
 10440  003D86                     u6141:
 10441  003D86  EFC8  F01E         	goto	l1202
 10442  003D8A                     u6140:
 10443  003D8A                     
 10444                           ;main.c: 1455:     {;main.c: 1456:         return 1;
 10445  003D8A  0E01               	movlw	1
 10446  003D8C  EFDD  F01E         	goto	l1203
 10447  003D90                     l1202:
 10448  003D90  BE80               	btfsc	128,7,c	;volatile
 10449  003D92  EFCD  F01E         	goto	u6151
 10450  003D96  EFCF  F01E         	goto	u6150
 10451  003D9A                     u6151:
 10452  003D9A  EFD2  F01E         	goto	l1205
 10453  003D9E                     u6150:
 10454  003D9E                     
 10455                           ;main.c: 1459:     {;main.c: 1460:         return 3;
 10456  003D9E  0E03               	movlw	3
 10457  003DA0  EFDD  F01E         	goto	l1203
 10458  003DA4                     l1205:
 10459  003DA4  BA80               	btfsc	128,5,c	;volatile
 10460  003DA6  EFD7  F01E         	goto	u6161
 10461  003DAA  EFD9  F01E         	goto	u6160
 10462  003DAE                     u6161:
 10463  003DAE  EFDC  F01E         	goto	l7092
 10464  003DB2                     u6160:
 10465  003DB2                     
 10466                           ;main.c: 1463:     {;main.c: 1464:         return 5;
 10467  003DB2  0E05               	movlw	5
 10468  003DB4  EFDD  F01E         	goto	l1203
 10469  003DB8                     l7092:
 10470                           
 10471                           ;main.c: 1467:         return 16;
 10472  003DB8  0E10               	movlw	16
 10473  003DBA                     l1203:
 10474  003DBA  0012               	return		;funcret
 10475  003DBC                     __end_of_Key_Scan:
 10476                           	opt callstack 0
 10477                           
 10478 ;; *************** function _DATAEE_ReadByte *****************
 10479 ;; Defined at:
 10480 ;;		line 199 in file "mcc_generated_files/memory.c"
 10481 ;; Parameters:    Size  Location     Type
 10482 ;;  bAdd            2    4[COMRAM] unsigned short 
 10483 ;; Auto vars:     Size  Location     Type
 10484 ;;		None
 10485 ;; Return value:  Size  Location     Type
 10486 ;;                  1    wreg      unsigned char 
 10487 ;; Registers used:
 10488 ;;		wreg, status,2, status,0
 10489 ;; Tracked objects:
 10490 ;;		On entry : 0/0
 10491 ;;		On exit  : 0/0
 10492 ;;		Unchanged: 0/0
 10493 ;; Data sizes:     COMRAM   BANK0   BANK1   BANK2   BANK3   BANK4   BANK5   BANK6   BANK7   BANK8   BANK9  BANK10  BANK1
      +1  BANK12  BANK13  BANK14  BANK15
 10494 ;;      Params:         2       0       0       0       0       0       0       0       0       0       0       0       
      +0       0       0       0       0
 10495 ;;      Locals:         0       0       0       0       0       0       0       0       0       0       0       0       
      +0       0       0       0       0
 10496 ;;      Temps:          0       0       0       0       0       0       0       0       0       0       0       0       
      +0       0       0       0       0
 10497 ;;      Totals:         2       0       0       0       0       0       0       0       0       0       0       0       
      +0       0       0       0       0
 10498 ;;Total ram usage:        2 bytes
 10499 ;; Hardware stack levels used:    1
 10500 ;; Hardware stack levels required when called:    3
 10501 ;; This function calls:
 10502 ;;		Nothing
 10503 ;; This function is called by:
 10504 ;;		_main
 10505 ;; This function uses a non-reentrant model
 10506 ;;
 10507                           
 10508                           	psect	text38
 10509  003F0C                     __ptext38:
 10510                           	opt callstack 0
 10511  003F0C                     _DATAEE_ReadByte:
 10512                           	opt callstack 27
 10513  003F0C                     
 10514                           ;mcc_generated_files/memory.c: 199: uint8_t DATAEE_ReadByte(uint16_t bAdd);mcc_generated
      +                          _files/memory.c: 200: {;mcc_generated_files/memory.c: 201:     EEADRH = ((bAdd >> 8) & 0
      +                          x03);
 10515  003F0C  5006               	movf	(DATAEE_ReadByte@bAdd+1)^0,w,c
 10516  003F0E  0B03               	andlw	3
 10517  003F10  6EAA               	movwf	170,c	;volatile
 10518  003F12                     
 10519                           ;mcc_generated_files/memory.c: 202:     EEADR = (bAdd & 0xFF);
 10520  003F12  C005  FFA9         	movff	DATAEE_ReadByte@bAdd,4009	;volatile
 10521  003F16                     
 10522                           ;mcc_generated_files/memory.c: 203:     EECON1bits.CFGS = 0;
 10523  003F16  9CA6               	bcf	166,6,c	;volsfr
 10524  003F18                     
 10525                           ;mcc_generated_files/memory.c: 204:     EECON1bits.EEPGD = 0;
 10526  003F18  9EA6               	bcf	166,7,c	;volsfr
 10527  003F1A                     
 10528                           ;mcc_generated_files/memory.c: 205:     EECON1bits.RD = 1;
 10529  003F1A  80A6               	bsf	166,0,c	;volsfr
 10530  003F1C                     
 10531                           ;mcc_generated_files/memory.c: 206:     __nop();
 10532  003F1C  F000               	nop	
 10533  003F1E                     
 10534                           ;mcc_generated_files/memory.c: 207:     __nop();
 10535  003F1E  F000               	nop	
 10536  003F20                     
 10537                           ;mcc_generated_files/memory.c: 209:     return (EEDATA);
 10538  003F20  50A8               	movf	168,w,c	;volatile
 10539  003F22  0012               	return		;funcret
 10540  003F24                     __end_of_DATAEE_ReadByte:
 10541                           	opt callstack 0
 10542                           
 10543 ;; *************** function _ADC_GetConversion *****************
 10544 ;; Defined at:
 10545 ;;		line 110 in file "mcc_generated_files/adc.c"
 10546 ;; Parameters:    Size  Location     Type
 10547 ;;  channel         1    wreg     enum E5751
 10548 ;; Auto vars:     Size  Location     Type
 10549 ;;  channel         1    8[COMRAM] enum E5751
 10550 ;; Return value:  Size  Location     Type
 10551 ;;                  2    4[COMRAM] unsigned short 
 10552 ;; Registers used:
 10553 ;;		wreg, status,2, status,0
 10554 ;; Tracked objects:
 10555 ;;		On entry : 0/0
 10556 ;;		On exit  : 0/0
 10557 ;;		Unchanged: 0/0
 10558 ;; Data sizes:     COMRAM   BANK0   BANK1   BANK2   BANK3   BANK4   BANK5   BANK6   BANK7   BANK8   BANK9  BANK10  BANK1
      +1  BANK12  BANK13  BANK14  BANK15
 10559 ;;      Params:         2       0       0       0       0       0       0       0       0       0       0       0       
      +0       0       0       0       0
 10560 ;;      Locals:         1       0       0       0       0       0       0       0       0       0       0       0       
      +0       0       0       0       0
 10561 ;;      Temps:          2       0       0       0       0       0       0       0       0       0       0       0       
      +0       0       0       0       0
 10562 ;;      Totals:         5       0       0       0       0       0       0       0       0       0       0       0       
      +0       0       0       0       0
 10563 ;;Total ram usage:        5 bytes
 10564 ;; Hardware stack levels used:    1
 10565 ;; Hardware stack levels required when called:    3
 10566 ;; This function calls:
 10567 ;;		Nothing
 10568 ;; This function is called by:
 10569 ;;		_main
 10570 ;; This function uses a non-reentrant model
 10571 ;;
 10572                           
 10573                           	psect	text39
 10574  003DFA                     __ptext39:
 10575                           	opt callstack 0
 10576  003DFA                     _ADC_GetConversion:
 10577                           	opt callstack 27
 10578                           
 10579                           ;incstack = 0
 10580                           ;ADC_GetConversion@channel stored from wreg
 10581  003DFA  6E09               	movwf	ADC_GetConversion@channel^0,c
 10582  003DFC                     
 10583                           ;mcc_generated_files/adc.c: 110: adc_result_t ADC_GetConversion(adc_channel_t channel);m
      +                          cc_generated_files/adc.c: 111: {;mcc_generated_files/adc.c: 113:     ADCON0bits.CHS = ch
      +                          annel;
 10584  003DFC  C009  F007         	movff	ADC_GetConversion@channel,??_ADC_GetConversion
 10585  003E00  4607               	rlncf	??_ADC_GetConversion^0,f,c
 10586  003E02  4607               	rlncf	??_ADC_GetConversion^0,f,c
 10587  003E04  50C2               	movf	194,w,c	;volatile
 10588  003E06  1807               	xorwf	??_ADC_GetConversion^0,w,c
 10589  003E08  0B83               	andlw	-125
 10590  003E0A  1807               	xorwf	??_ADC_GetConversion^0,w,c
 10591  003E0C  6EC2               	movwf	194,c	;volatile
 10592  003E0E                     
 10593                           ;mcc_generated_files/adc.c: 116:     ADCON0bits.ADON = 1;
 10594  003E0E  80C2               	bsf	194,0,c	;volatile
 10595  003E10                     
 10596                           ;mcc_generated_files/adc.c: 119:     ADCON0bits.GO_nDONE = 1;
 10597  003E10  82C2               	bsf	194,1,c	;volatile
 10598  003E12                     l139:
 10599                           
 10600                           ;mcc_generated_files/adc.c: 122:     while (ADCON0bits.GO_nDONE)
 10601  003E12  B2C2               	btfsc	194,1,c	;volatile
 10602  003E14  EF0E  F01F         	goto	u6641
 10603  003E18  EF10  F01F         	goto	u6640
 10604  003E1C                     u6641:
 10605  003E1C  EF09  F01F         	goto	l139
 10606  003E20                     u6640:
 10607  003E20                     
 10608                           ;mcc_generated_files/adc.c: 127:     return ((adc_result_t)((ADRESH << 8) + ADRESL));
 10609  003E20  50C4               	movf	196,w,c	;volatile
 10610  003E22  6E08               	movwf	(??_ADC_GetConversion+1)^0,c
 10611  003E24  6A07               	clrf	??_ADC_GetConversion^0,c
 10612  003E26  50C3               	movf	195,w,c	;volatile
 10613  003E28  2407               	addwf	??_ADC_GetConversion^0,w,c
 10614  003E2A  6E05               	movwf	?_ADC_GetConversion^0,c
 10615  003E2C  0E00               	movlw	0
 10616  003E2E  2008               	addwfc	(??_ADC_GetConversion+1)^0,w,c
 10617  003E30  6E06               	movwf	(?_ADC_GetConversion+1)^0,c
 10618  003E32  0012               	return		;funcret
 10619  003E34                     __end_of_ADC_GetConversion:
 10620                           	opt callstack 0
 10621                           
 10622 ;; *************** function _INTERRUPT_InterruptManager *****************
 10623 ;; Defined at:
 10624 ;;		line 58 in file "mcc_generated_files/interrupt_manager.c"
 10625 ;; Parameters:    Size  Location     Type
 10626 ;;		None
 10627 ;; Auto vars:     Size  Location     Type
 10628 ;;		None
 10629 ;; Return value:  Size  Location     Type
 10630 ;;                  1    wreg      void 
 10631 ;; Registers used:
 10632 ;;		wreg, status,2, status,0, pclath, tosl, cstack
 10633 ;; Tracked objects:
 10634 ;;		On entry : 0/0
 10635 ;;		On exit  : 0/0
 10636 ;;		Unchanged: 0/0
 10637 ;; Data sizes:     COMRAM   BANK0   BANK1   BANK2   BANK3   BANK4   BANK5   BANK6   BANK7   BANK8   BANK9  BANK10  BANK1
      +1  BANK12  BANK13  BANK14  BANK15
 10638 ;;      Params:         0       0       0       0       0       0       0       0       0       0       0       0       
      +0       0       0       0       0
 10639 ;;      Locals:         0       0       0       0       0       0       0       0       0       0       0       0       
      +0       0       0       0       0
 10640 ;;      Temps:          2       0       0       0       0       0       0       0       0       0       0       0       
      +0       0       0       0       0
 10641 ;;      Totals:         2       0       0       0       0       0       0       0       0       0       0       0       
      +0       0       0       0       0
 10642 ;;Total ram usage:        2 bytes
 10643 ;; Hardware stack levels used:    1
 10644 ;; Hardware stack levels required when called:    2
 10645 ;; This function calls:
 10646 ;;		_TMR1_ISR
 10647 ;; This function is called by:
 10648 ;;		Interrupt level 2
 10649 ;; This function uses a non-reentrant model
 10650 ;;
 10651                           
 10652                           	psect	intcode
 10653  000008                     __pintcode:
 10654                           	opt callstack 0
 10655  000008                     _INTERRUPT_InterruptManager:
 10656                           	opt callstack 24
 10657                           
 10658                           ;incstack = 0
 10659  000008  825B               	bsf	int$flags,1,c	;set compiler interrupt flag (level 2)
 10660  00000A  CFFA F003          	movff	pclath,??_INTERRUPT_InterruptManager
 10661  00000E  CFFB F004          	movff	pclatu,??_INTERRUPT_InterruptManager+1
 10662  000012                     
 10663                           ;mcc_generated_files/interrupt_manager.c: 61:     if(INTCONbits.PEIE == 1)
 10664  000012  ACF2               	btfss	242,6,c	;volatile
 10665  000014  EF0E  F000         	goto	i2u445_41
 10666  000018  EF10  F000         	goto	i2u445_40
 10667  00001C                     i2u445_41:
 10668  00001C  EF20  F000         	goto	i2l294
 10669  000020                     i2u445_40:
 10670  000020                     
 10671                           ;mcc_generated_files/interrupt_manager.c: 62:     {;mcc_generated_files/interrupt_manage
      +                          r.c: 63:         if(PIE1bits.TMR1IE == 1 && PIR1bits.TMR1IF == 1)
 10672  000020  A09D               	btfss	157,0,c	;volatile
 10673  000022  EF15  F000         	goto	i2u446_41
 10674  000026  EF17  F000         	goto	i2u446_40
 10675  00002A                     i2u446_41:
 10676  00002A  EF20  F000         	goto	i2l294
 10677  00002E                     i2u446_40:
 10678  00002E  A09E               	btfss	158,0,c	;volatile
 10679  000030  EF1C  F000         	goto	i2u447_41
 10680  000034  EF1E  F000         	goto	i2u447_40
 10681  000038                     i2u447_41:
 10682  000038  EF20  F000         	goto	i2l294
 10683  00003C                     i2u447_40:
 10684  00003C                     
 10685                           ;mcc_generated_files/interrupt_manager.c: 64:         {;mcc_generated_files/interrupt_ma
      +                          nager.c: 65:             TMR1_ISR();
 10686  00003C  ECDE  F01E         	call	_TMR1_ISR	;wreg free
 10687  000040                     i2l294:
 10688  000040  C004  FFFB         	movff	??_INTERRUPT_InterruptManager+1,pclatu
 10689  000044  C003  FFFA         	movff	??_INTERRUPT_InterruptManager,pclath
 10690  000048  925B               	bcf	int$flags,1,c	;clear compiler interrupt flag (level 2)
 10691  00004A  0011               	retfie		f
 10692  00004C                     __end_of_INTERRUPT_InterruptManager:
 10693                           	opt callstack 0
 10694                           
 10695 ;; *************** function _TMR1_ISR *****************
 10696 ;; Defined at:
 10697 ;;		line 158 in file "mcc_generated_files/tmr1.c"
 10698 ;; Parameters:    Size  Location     Type
 10699 ;;		None
 10700 ;; Auto vars:     Size  Location     Type
 10701 ;;		None
 10702 ;; Return value:  Size  Location     Type
 10703 ;;                  1    wreg      void 
 10704 ;; Registers used:
 10705 ;;		wreg, status,2, status,0, pclath, tosl, cstack
 10706 ;; Tracked objects:
 10707 ;;		On entry : 0/0
 10708 ;;		On exit  : 0/0
 10709 ;;		Unchanged: 0/0
 10710 ;; Data sizes:     COMRAM   BANK0   BANK1   BANK2   BANK3   BANK4   BANK5   BANK6   BANK7   BANK8   BANK9  BANK10  BANK1
      +1  BANK12  BANK13  BANK14  BANK15
 10711 ;;      Params:         0       0       0       0       0       0       0       0       0       0       0       0       
      +0       0       0       0       0
 10712 ;;      Locals:         0       0       0       0       0       0       0       0       0       0       0       0       
      +0       0       0       0       0
 10713 ;;      Temps:          0       0       0       0       0       0       0       0       0       0       0       0       
      +0       0       0       0       0
 10714 ;;      Totals:         0       0       0       0       0       0       0       0       0       0       0       0       
      +0       0       0       0       0
 10715 ;;Total ram usage:        0 bytes
 10716 ;; Hardware stack levels used:    1
 10717 ;; Hardware stack levels required when called:    1
 10718 ;; This function calls:
 10719 ;;		Absolute function
 10720 ;;		_TMR1_DefaultInterruptHandler
 10721 ;;		_TMR1_WriteTimer
 10722 ;;		_myTimer1ISR
 10723 ;; This function is called by:
 10724 ;;		_INTERRUPT_InterruptManager
 10725 ;; This function uses a non-reentrant model
 10726 ;;
 10727                           
 10728                           	psect	text41
 10729  003DBC                     __ptext41:
 10730                           	opt callstack 0
 10731  003DBC                     _TMR1_ISR:
 10732                           	opt callstack 24
 10733  003DBC                     
 10734                           ;mcc_generated_files/tmr1.c: 162:     PIR1bits.TMR1IF = 0;
 10735  003DBC  909E               	bcf	158,0,c	;volatile
 10736  003DBE                     
 10737                           ;mcc_generated_files/tmr1.c: 163:     TMR1_WriteTimer(timer1ReloadVal);
 10738  003DBE  C0B4  F001         	movff	_timer1ReloadVal,TMR1_WriteTimer@timerVal	;volatile
 10739  003DC2  C0B5  F002         	movff	_timer1ReloadVal+1,TMR1_WriteTimer@timerVal+1	;volatile
 10740  003DC6  EC45  F01F         	call	_TMR1_WriteTimer	;wreg free
 10741  003DCA                     
 10742                           ;mcc_generated_files/tmr1.c: 165:     if(TMR1_InterruptHandler)
 10743  003DCA  0100               	movlb	0	; () banked
 10744  003DCC  51B2               	movf	_TMR1_InterruptHandler& (0+255),w,b
 10745  003DCE  11B3               	iorwf	(_TMR1_InterruptHandler+1)& (0+255),w,b
 10746  003DD0  B4D8               	btfsc	status,2,c
 10747  003DD2  EFED  F01E         	goto	i2u415_41
 10748  003DD6  EFEF  F01E         	goto	i2u415_40
 10749  003DDA                     i2u415_41:
 10750  003DDA  EFFC  F01E         	goto	i2l266
 10751  003DDE                     i2u415_40:
 10752  003DDE                     
 10753                           ; BSR set to: 0
 10754                           ;mcc_generated_files/tmr1.c: 166:     {;mcc_generated_files/tmr1.c: 167:         TMR1_In
      +                          terruptHandler();
 10755  003DDE  D802               	call	i2u416_48
 10756  003DE0  EFFC  F01E         	goto	i2u416_49
 10757  003DE4                     i2u416_48:
 10758  003DE4  0005               	push	
 10759  003DE6  6EFA               	movwf	pclath,c
 10760  003DE8  51B2               	movf	_TMR1_InterruptHandler& (0+255),w,b
 10761  003DEA  6EFD               	movwf	tosl,c
 10762  003DEC  51B3               	movf	(_TMR1_InterruptHandler+1)& (0+255),w,b
 10763  003DEE  6EFE               	movwf	tosh,c
 10764  003DF0  50F8               	movf	tblptru,w,c
 10765  003DF2  6EFF               	movwf	tosu,c
 10766  003DF4  50FA               	movf	pclath,w,c
 10767  003DF6  0012               	return		;indir
 10768  003DF8                     i2u416_49:
 10769  003DF8                     i2l266:
 10770  003DF8  0012               	return		;funcret
 10771  003DFA                     __end_of_TMR1_ISR:
 10772                           	opt callstack 0
 10773                           
 10774 ;; *************** function _TMR1_DefaultInterruptHandler *****************
 10775 ;; Defined at:
 10776 ;;		line 176 in file "mcc_generated_files/tmr1.c"
 10777 ;; Parameters:    Size  Location     Type
 10778 ;;		None
 10779 ;; Auto vars:     Size  Location     Type
 10780 ;;		None
 10781 ;; Return value:  Size  Location     Type
 10782 ;;                  1    wreg      void 
 10783 ;; Registers used:
 10784 ;;		None
 10785 ;; Tracked objects:
 10786 ;;		On entry : 0/0
 10787 ;;		On exit  : 0/0
 10788 ;;		Unchanged: 0/0
 10789 ;; Data sizes:     COMRAM   BANK0   BANK1   BANK2   BANK3   BANK4   BANK5   BANK6   BANK7   BANK8   BANK9  BANK10  BANK1
      +1  BANK12  BANK13  BANK14  BANK15
 10790 ;;      Params:         0       0       0       0       0       0       0       0       0       0       0       0       
      +0       0       0       0       0
 10791 ;;      Locals:         0       0       0       0       0       0       0       0       0       0       0       0       
      +0       0       0       0       0
 10792 ;;      Temps:          0       0       0       0       0       0       0       0       0       0       0       0       
      +0       0       0       0       0
 10793 ;;      Totals:         0       0       0       0       0       0       0       0       0       0       0       0       
      +0       0       0       0       0
 10794 ;;Total ram usage:        0 bytes
 10795 ;; Hardware stack levels used:    1
 10796 ;; This function calls:
 10797 ;;		Nothing
 10798 ;; This function is called by:
 10799 ;;		_TMR1_Initialize
 10800 ;;		_TMR1_ISR
 10801 ;; This function uses a non-reentrant model
 10802 ;;
 10803                           
 10804                           	psect	text42
 10805  003FAE                     __ptext42:
 10806                           	opt callstack 0
 10807  003FAE                     _TMR1_DefaultInterruptHandler:
 10808                           	opt callstack 24
 10809  003FAE  0012               	return		;funcret
 10810  003FB0                     __end_of_TMR1_DefaultInterruptHandler:
 10811                           	opt callstack 0
 10812                           
 10813 ;; *************** function _myTimer1ISR *****************
 10814 ;; Defined at:
 10815 ;;		line 966 in file "main.c"
 10816 ;; Parameters:    Size  Location     Type
 10817 ;;		None
 10818 ;; Auto vars:     Size  Location     Type
 10819 ;;		None
 10820 ;; Return value:  Size  Location     Type
 10821 ;;                  1    wreg      void 
 10822 ;; Registers used:
 10823 ;;		wreg, status,2, status,0
 10824 ;; Tracked objects:
 10825 ;;		On entry : 0/0
 10826 ;;		On exit  : 0/0
 10827 ;;		Unchanged: 0/0
 10828 ;; Data sizes:     COMRAM   BANK0   BANK1   BANK2   BANK3   BANK4   BANK5   BANK6   BANK7   BANK8   BANK9  BANK10  BANK1
      +1  BANK12  BANK13  BANK14  BANK15
 10829 ;;      Params:         0       0       0       0       0       0       0       0       0       0       0       0       
      +0       0       0       0       0
 10830 ;;      Locals:         0       0       0       0       0       0       0       0       0       0       0       0       
      +0       0       0       0       0
 10831 ;;      Temps:          0       0       0       0       0       0       0       0       0       0       0       0       
      +0       0       0       0       0
 10832 ;;      Totals:         0       0       0       0       0       0       0       0       0       0       0       0       
      +0       0       0       0       0
 10833 ;;Total ram usage:        0 bytes
 10834 ;; Hardware stack levels used:    1
 10835 ;; This function calls:
 10836 ;;		Nothing
 10837 ;; This function is called by:
 10838 ;;		_main
 10839 ;;		_TMR1_ISR
 10840 ;; This function uses a non-reentrant model
 10841 ;;
 10842                           
 10843                           	psect	text43
 10844  003A22                     __ptext43:
 10845                           	opt callstack 0
 10846  003A22                     _myTimer1ISR:
 10847                           	opt callstack 24
 10848  003A22                     
 10849                           ;main.c: 968:     static uint8_t timecycle = 0,timemili=0;;main.c: 969:     if(u8_loadON
      +                           == 1)
 10850  003A22  0100               	movlb	0	; () banked
 10851  003A24  05C7               	decf	_u8_loadON& (0+255),w,b
 10852  003A26  A4D8               	btfss	status,2,c
 10853  003A28  EF18  F01D         	goto	i2u358_41
 10854  003A2C  EF1A  F01D         	goto	i2u358_40
 10855  003A30                     i2u358_41:
 10856  003A30  EF43  F01D         	goto	i2l4994
 10857  003A34                     i2u358_40:
 10858  003A34                     
 10859                           ; BSR set to: 0
 10860                           ;main.c: 970:     {;main.c: 971:         timemili++;
 10861  003A34  2BB7               	incf	myTimer1ISR@timemili& (0+255),f,b
 10862  003A36                     
 10863                           ; BSR set to: 0
 10864                           ;main.c: 972:         if(timemili >= 200)
 10865  003A36  0EC7               	movlw	199
 10866  003A38  65B7               	cpfsgt	myTimer1ISR@timemili& (0+255),b
 10867  003A3A  EF21  F01D         	goto	i2u359_41
 10868  003A3E  EF23  F01D         	goto	i2u359_40
 10869  003A42                     i2u359_41:
 10870  003A42  EF43  F01D         	goto	i2l4994
 10871  003A46                     i2u359_40:
 10872  003A46                     
 10873                           ; BSR set to: 0
 10874                           ;main.c: 973:         {;main.c: 974:             timemili = 0;
 10875  003A46  0E00               	movlw	0
 10876  003A48  6FB7               	movwf	myTimer1ISR@timemili& (0+255),b
 10877  003A4A                     
 10878                           ; BSR set to: 0
 10879                           ;main.c: 975:             if(u16_timesec <= 0)
 10880  003A4A  51A8               	movf	_u16_timesec& (0+255),w,b	;volatile
 10881  003A4C  11A9               	iorwf	(_u16_timesec+1)& (0+255),w,b	;volatile
 10882  003A4E  A4D8               	btfss	status,2,c
 10883  003A50  EF2C  F01D         	goto	i2u360_41
 10884  003A54  EF2E  F01D         	goto	i2u360_40
 10885  003A58                     i2u360_41:
 10886  003A58  EF32  F01D         	goto	i2l4988
 10887  003A5C                     i2u360_40:
 10888  003A5C                     
 10889                           ; BSR set to: 0
 10890                           ;main.c: 976:                 u16_timesec = 1;
 10891  003A5C  0E00               	movlw	0
 10892  003A5E  6FA9               	movwf	(_u16_timesec+1)& (0+255),b	;volatile
 10893  003A60  0E01               	movlw	1
 10894  003A62  6FA8               	movwf	_u16_timesec& (0+255),b	;volatile
 10895  003A64                     i2l4988:
 10896                           
 10897                           ; BSR set to: 0
 10898                           ;main.c: 977:             u16_timesec--;
 10899  003A64  07A8               	decf	_u16_timesec& (0+255),f,b	;volatile
 10900  003A66  A0D8               	btfss	status,0,c
 10901  003A68  07A9               	decf	(_u16_timesec+1)& (0+255),f,b	;volatile
 10902  003A6A                     
 10903                           ; BSR set to: 0
 10904                           ;main.c: 978:             if(u16_timesec == 0)
 10905  003A6A  51A8               	movf	_u16_timesec& (0+255),w,b	;volatile
 10906  003A6C  11A9               	iorwf	(_u16_timesec+1)& (0+255),w,b	;volatile
 10907  003A6E  A4D8               	btfss	status,2,c
 10908  003A70  EF3C  F01D         	goto	i2u361_41
 10909  003A74  EF3E  F01D         	goto	i2u361_40
 10910  003A78                     i2u361_41:
 10911  003A78  EF43  F01D         	goto	i2l4994
 10912  003A7C                     i2u361_40:
 10913  003A7C                     
 10914                           ; BSR set to: 0
 10915  003A7C  948B               	bcf	139,2,c	;volatile
 10916  003A7E                     
 10917                           ; BSR set to: 0
 10918                           ;main.c: 981:                 u8_led2 = 0;
 10919  003A7E  0E00               	movlw	0
 10920  003A80  6FC3               	movwf	_u8_led2& (0+255),b
 10921                           
 10922                           ;main.c: 982:                 u8_loadON = 0;
 10923  003A82  0E00               	movlw	0
 10924  003A84  6FC7               	movwf	_u8_loadON& (0+255),b
 10925  003A86                     i2l4994:
 10926                           
 10927                           ; BSR set to: 0
 10928                           ;main.c: 987:     timecycle++;
 10929  003A86  2BB8               	incf	myTimer1ISR@timecycle& (0+255),f,b
 10930  003A88                     
 10931                           ; BSR set to: 0
 10932                           ;main.c: 988:     if(timecycle >= 100)
 10933  003A88  0E63               	movlw	99
 10934  003A8A  65B8               	cpfsgt	myTimer1ISR@timecycle& (0+255),b
 10935  003A8C  EF4A  F01D         	goto	i2u362_41
 10936  003A90  EF4C  F01D         	goto	i2u362_40
 10937  003A94                     i2u362_41:
 10938  003A94  EF4E  F01D         	goto	i2l5000
 10939  003A98                     i2u362_40:
 10940  003A98                     
 10941                           ; BSR set to: 0
 10942                           ;main.c: 989:     {;main.c: 990:         timecycle = 0;
 10943  003A98  0E00               	movlw	0
 10944  003A9A  6FB8               	movwf	myTimer1ISR@timecycle& (0+255),b
 10945  003A9C                     i2l5000:
 10946                           
 10947                           ; BSR set to: 0
 10948                           ;main.c: 992:     if(timecycle >= u8_powerduty )
 10949  003A9C  51BB               	movf	_u8_powerduty& (0+255),w,b	;volatile
 10950  003A9E  5DB8               	subwf	myTimer1ISR@timecycle& (0+255),w,b
 10951  003AA0  A0D8               	btfss	status,0,c
 10952  003AA2  EF55  F01D         	goto	i2u363_41
 10953  003AA6  EF57  F01D         	goto	i2u363_40
 10954  003AAA                     i2u363_41:
 10955  003AAA  EF5E  F01D         	goto	i2l5006
 10956  003AAE                     i2u363_40:
 10957  003AAE                     
 10958                           ; BSR set to: 0
 10959                           ;main.c: 993:     {;main.c: 994:         uchr_LED2 = 0;
 10960  003AAE  0E00               	movlw	0
 10961  003AB0  6FB9               	movwf	_uchr_LED2& (0+255),b
 10962  003AB2                     
 10963                           ; BSR set to: 0
 10964  003AB2  928B               	bcf	139,1,c	;volatile
 10965  003AB4                     
 10966                           ; BSR set to: 0
 10967                           ;main.c: 996:         u8_led1 = 0;
 10968  003AB4  0E00               	movlw	0
 10969  003AB6  6FC4               	movwf	_u8_led1& (0+255),b
 10970                           
 10971                           ;main.c: 997:     }
 10972  003AB8  EF63  F01D         	goto	i2l767
 10973  003ABC                     i2l5006:
 10974                           
 10975                           ; BSR set to: 0
 10976                           ;main.c: 999:     {;main.c: 1000:         uchr_LED2 = 1;
 10977  003ABC  0E01               	movlw	1
 10978  003ABE  6FB9               	movwf	_uchr_LED2& (0+255),b
 10979  003AC0                     
 10980                           ; BSR set to: 0
 10981  003AC0  828B               	bsf	139,1,c	;volatile
 10982  003AC2                     
 10983                           ; BSR set to: 0
 10984                           ;main.c: 1002:         u8_led1 = 1;
 10985  003AC2  0E01               	movlw	1
 10986  003AC4  6FC4               	movwf	_u8_led1& (0+255),b
 10987  003AC6                     i2l767:
 10988                           
 10989                           ; BSR set to: 0
 10990  003AC6  0012               	return		;funcret
 10991  003AC8                     __end_of_myTimer1ISR:
 10992                           	opt callstack 0
 10993                           
 10994 ;; *************** function _TMR1_WriteTimer *****************
 10995 ;; Defined at:
 10996 ;;		line 121 in file "mcc_generated_files/tmr1.c"
 10997 ;; Parameters:    Size  Location     Type
 10998 ;;  timerVal        2    0[COMRAM] unsigned short 
 10999 ;; Auto vars:     Size  Location     Type
 11000 ;;		None
 11001 ;; Return value:  Size  Location     Type
 11002 ;;                  1    wreg      void 
 11003 ;; Registers used:
 11004 ;;		wreg, status,2
 11005 ;; Tracked objects:
 11006 ;;		On entry : 0/0
 11007 ;;		On exit  : 0/0
 11008 ;;		Unchanged: 0/0
 11009 ;; Data sizes:     COMRAM   BANK0   BANK1   BANK2   BANK3   BANK4   BANK5   BANK6   BANK7   BANK8   BANK9  BANK10  BANK1
      +1  BANK12  BANK13  BANK14  BANK15
 11010 ;;      Params:         2       0       0       0       0       0       0       0       0       0       0       0       
      +0       0       0       0       0
 11011 ;;      Locals:         0       0       0       0       0       0       0       0       0       0       0       0       
      +0       0       0       0       0
 11012 ;;      Temps:          0       0       0       0       0       0       0       0       0       0       0       0       
      +0       0       0       0       0
 11013 ;;      Totals:         2       0       0       0       0       0       0       0       0       0       0       0       
      +0       0       0       0       0
 11014 ;;Total ram usage:        2 bytes
 11015 ;; Hardware stack levels used:    1
 11016 ;; This function calls:
 11017 ;;		Nothing
 11018 ;; This function is called by:
 11019 ;;		_TMR1_ISR
 11020 ;;		_TMR1_Reload
 11021 ;; This function uses a non-reentrant model
 11022 ;;
 11023                           
 11024                           	psect	text44
 11025  003E8A                     __ptext44:
 11026                           	opt callstack 0
 11027  003E8A                     _TMR1_WriteTimer:
 11028                           	opt callstack 24
 11029  003E8A                     
 11030                           ;mcc_generated_files/tmr1.c: 121: void TMR1_WriteTimer(uint16_t timerVal);mcc_generated_
      +                          files/tmr1.c: 122: {;mcc_generated_files/tmr1.c: 123:     if (T1CONbits.T1SYNC == 1)
 11031  003E8A  A4CD               	btfss	205,2,c	;volatile
 11032  003E8C  EF4A  F01F         	goto	i2u353_41
 11033  003E90  EF4C  F01F         	goto	i2u353_40
 11034  003E94                     i2u353_41:
 11035  003E94  EF54  F01F         	goto	i2l4952
 11036  003E98                     i2u353_40:
 11037  003E98                     
 11038                           ;mcc_generated_files/tmr1.c: 124:     {;mcc_generated_files/tmr1.c: 126:         T1CONbi
      +                          ts.TMR1ON = 0;
 11039  003E98  90CD               	bcf	205,0,c	;volatile
 11040  003E9A                     
 11041                           ;mcc_generated_files/tmr1.c: 129:         TMR1H = (timerVal >> 8);
 11042  003E9A  5002               	movf	(TMR1_WriteTimer@timerVal+1)^0,w,c
 11043  003E9C  6ECF               	movwf	207,c	;volatile
 11044  003E9E                     
 11045                           ;mcc_generated_files/tmr1.c: 130:         TMR1L = (uint8_t) timerVal;
 11046  003E9E  C001  FFCE         	movff	TMR1_WriteTimer@timerVal,4046	;volatile
 11047  003EA2                     
 11048                           ;mcc_generated_files/tmr1.c: 133:         T1CONbits.TMR1ON =1;
 11049  003EA2  80CD               	bsf	205,0,c	;volatile
 11050                           
 11051                           ;mcc_generated_files/tmr1.c: 134:     }
 11052  003EA4  EF58  F01F         	goto	i2l253
 11053  003EA8                     i2l4952:
 11054                           
 11055                           ;mcc_generated_files/tmr1.c: 136:     {;mcc_generated_files/tmr1.c: 138:         TMR1H =
      +                           (timerVal >> 8);
 11056  003EA8  5002               	movf	(TMR1_WriteTimer@timerVal+1)^0,w,c
 11057  003EAA  6ECF               	movwf	207,c	;volatile
 11058  003EAC                     
 11059                           ;mcc_generated_files/tmr1.c: 139:         TMR1L = (uint8_t) timerVal;
 11060  003EAC  C001  FFCE         	movff	TMR1_WriteTimer@timerVal,4046	;volatile
 11061  003EB0                     i2l253:
 11062  003EB0  0012               	return		;funcret
 11063  003EB2                     __end_of_TMR1_WriteTimer:
 11064                           	opt callstack 0
 11065  0000                     
 11066                           	psect	text45
 11067  000000                     __ptext45:
 11068                           	opt callstack 0
 11069  000000                     
 11070                           	psect	rparam
 11071  0000                     
 11072                           	psect	temp
 11073  00005B                     btemp:
 11074                           	opt callstack 0
 11075  00005B                     	ds	1
 11076  0000                     int$flags	set	btemp
 11077  0000                     wtemp8	set	btemp+1
 11078  0000                     ttemp5	set	btemp+1
 11079  0000                     ttemp6	set	btemp+4
 11080  0000                     ttemp7	set	btemp+8
 11081                           tosu	equ	0xFFF
 11082                           tosh	equ	0xFFE
 11083                           tosl	equ	0xFFD
 11084                           stkptr	equ	0xFFC
 11085                           pclatu	equ	0xFFB
 11086                           pclath	equ	0xFFA
 11087                           pcl	equ	0xFF9
 11088                           tblptru	equ	0xFF8
 11089                           tblptrh	equ	0xFF7
 11090                           tblptrl	equ	0xFF6
 11091                           tablat	equ	0xFF5
 11092                           prodh	equ	0xFF4
 11093                           prodl	equ	0xFF3
 11094                           indf0	equ	0xFEF
 11095                           postinc0	equ	0xFEE
 11096                           postdec0	equ	0xFED
 11097                           preinc0	equ	0xFEC
 11098                           plusw0	equ	0xFEB
 11099                           fsr0h	equ	0xFEA
 11100                           fsr0l	equ	0xFE9
 11101                           wreg	equ	0xFE8
 11102                           indf1	equ	0xFE7
 11103                           postinc1	equ	0xFE6
 11104                           postdec1	equ	0xFE5
 11105                           preinc1	equ	0xFE4
 11106                           plusw1	equ	0xFE3
 11107                           fsr1h	equ	0xFE2
 11108                           fsr1l	equ	0xFE1
 11109                           bsr	equ	0xFE0
 11110                           indf2	equ	0xFDF
 11111                           postinc2	equ	0xFDE
 11112                           postdec2	equ	0xFDD
 11113                           preinc2	equ	0xFDC
 11114                           plusw2	equ	0xFDB
 11115                           fsr2h	equ	0xFDA
 11116                           fsr2l	equ	0xFD9
 11117                           status	equ	0xFD8


Data Sizes:
    Strings     0
    Constant    0
    Data        8
    BSS         194
    Persistent  0
    Stack       0

Auto Spaces:
    Space          Size  Autos    Used
    COMRAM           94     84      90
    BANK0           160     32     152
    BANK1           256     12      88
    BANK2           256      0       0
    BANK3           256      0       0
    BANK4           256      0       0
    BANK5           256      0       0
    BANK6           256      0       0
    BANK7           256      0       0
    BANK8           256      0       0
    BANK9           256      0       0
    BANK10          256      0       0
    BANK11          256      0       0
    BANK12          256      0       0
    BANK13          256      0       0
    BANK14          256      0       0
    BANK15           56      0       0

Pointer List with Targets:

    ADC_InterruptHandler	PTR FTN()void  size(2) Largest target is 1
		 -> Absolute function(), 

    TMR1_SetInterruptHandler@InterruptHandler	PTR FTN()void  size(2) Largest target is 1
		 -> myTimer1ISR(), TMR1_DefaultInterruptHandler(), 

    TMR1_InterruptHandler	PTR FTN()void  size(2) Largest target is 1
		 -> myTimer1ISR(), Absolute function(), TMR1_DefaultInterruptHandler(), 


Critical Paths under _main in COMRAM

    _low_pass_filter->_lowPassExponential
    _lowPassExponential->___flsub
    ___flsub->___fladd
    _ctrl_task->___fldiv
    _write_2bytedata->___lwdiv
    ___xxtofl->_ADC_GetConversion
    ___flmul->___xxtofl
    ___fldiv->___flmul
    ___fladd->___flmul
    _Sring_7segdisplay->_sev_display1
    _Sring_7segdisplay->_sev_display2
    _sev_display2->_mask
    _sev_display1->_mask
    ___flge->___xxtofl
    _TMR1_Initialize->_TMR1_SetInterruptHandler

Critical Paths under _INTERRUPT_InterruptManager in COMRAM

    _TMR1_ISR->_TMR1_WriteTimer

Critical Paths under _main in BANK0

    _main->_low_pass_filter
    _low_pass_filter->_lowPassExponential

Critical Paths under _INTERRUPT_InterruptManager in BANK0

    None.

Critical Paths under _main in BANK1

    None.

Critical Paths under _INTERRUPT_InterruptManager in BANK1

    None.

Critical Paths under _main in BANK2

    None.

Critical Paths under _INTERRUPT_InterruptManager in BANK2

    None.

Critical Paths under _main in BANK3

    None.

Critical Paths under _INTERRUPT_InterruptManager in BANK3

    None.

Critical Paths under _main in BANK4

    None.

Critical Paths under _INTERRUPT_InterruptManager in BANK4

    None.

Critical Paths under _main in BANK5

    None.

Critical Paths under _INTERRUPT_InterruptManager in BANK5

    None.

Critical Paths under _main in BANK6

    None.

Critical Paths under _INTERRUPT_InterruptManager in BANK6

    None.

Critical Paths under _main in BANK7

    None.

Critical Paths under _INTERRUPT_InterruptManager in BANK7

    None.

Critical Paths under _main in BANK8

    None.

Critical Paths under _INTERRUPT_InterruptManager in BANK8

    None.

Critical Paths under _main in BANK9

    None.

Critical Paths under _INTERRUPT_InterruptManager in BANK9

    None.

Critical Paths under _main in BANK10

    None.

Critical Paths under _INTERRUPT_InterruptManager in BANK10

    None.

Critical Paths under _main in BANK11

    None.

Critical Paths under _INTERRUPT_InterruptManager in BANK11

    None.

Critical Paths under _main in BANK12

    None.

Critical Paths under _INTERRUPT_InterruptManager in BANK12

    None.

Critical Paths under _main in BANK13

    None.

Critical Paths under _INTERRUPT_InterruptManager in BANK13

    None.

Critical Paths under _main in BANK14

    None.

Critical Paths under _INTERRUPT_InterruptManager in BANK14

    None.

Critical Paths under _main in BANK15

    None.

Critical Paths under _INTERRUPT_InterruptManager in BANK15

    None.

Call Graph Tables:

 ---------------------------------------------------------------------------------
 (Depth) Function   	        Calls       Base Space   Used Autos Params    Refs
 ---------------------------------------------------------------------------------
 (0) _main                                                16    16      0  115718
                                             28 BANK0      4     4      0
                                              0 BANK1     12    12      0
                  _ADC_GetConversion
                    _DATAEE_ReadByte
                        _Key_Service
                  _SYSTEM_Initialize
            _TMR0_HasOverflowOccured
                     _TMR0_ReadTimer
           _TMR1_SetInterruptHandler
            _TMR3_HasOverflowOccured
                     _TMR3_ReadTimer
                            ___fladd
                            ___fldiv
                             ___flge
                            ___flmul
                            ___flsub
                            ___fltol
                           ___xxtofl
                          _ctrl_task
                    _low_pass_filter
 ---------------------------------------------------------------------------------
 (1) _low_pass_filter                                     18    14      4   30977
                                             12 BANK0     16    12      4
                            ___flmul
                            ___flsub
                 _lowPassExponential
 ---------------------------------------------------------------------------------
 (2) _lowPassExponential                                  24    12     12   18111
                                             72 COMRAM    12     0     12
                                              0 BANK0     12    12      0
                            ___fladd
                            ___flmul
                            ___flsub
 ---------------------------------------------------------------------------------
 (3) ___flsub                                              8     0      8    6139
                                             64 COMRAM     8     0      8
                            ___fladd
                            ___flmul (ARG)
                           ___xxtofl (ARG)
 ---------------------------------------------------------------------------------
 (1) _ctrl_task                                            2     2      0   57005
                                             73 COMRAM     2     2      0
                  _Sring_7segdisplay
                            ___awdiv
                            ___fladd
                            ___fldiv
                            ___flmul
                            ___fltol
                            ___lwdiv
                            ___lwmod
                           ___xxtofl
                    _write_2bytedata
 ---------------------------------------------------------------------------------
 (2) _write_2bytedata                                      5     3      2   11682
                                             11 COMRAM     5     3      2
                   _DATAEE_WriteByte
                            ___lwdiv
                            ___lwmod
 ---------------------------------------------------------------------------------
 (3) ___lwmod                                              5     1      4    6172
                                              4 COMRAM     5     1      4
 ---------------------------------------------------------------------------------
 (3) ___lwdiv                                              7     3      4    3841
                                              4 COMRAM     7     3      4
 ---------------------------------------------------------------------------------
 (3) _DATAEE_WriteByte                                     4     1      3     487
                                              4 COMRAM     4     1      3
 ---------------------------------------------------------------------------------
 (2) ___xxtofl                                            14    10      4    2636
                                              9 COMRAM    14    10      4
                  _ADC_GetConversion (ARG)
 ---------------------------------------------------------------------------------
 (2) ___fltol                                             10     6      4     517
                                              4 COMRAM    10     6      4
 ---------------------------------------------------------------------------------
 (3) ___flmul                                             25    17      8    6473
                                             23 COMRAM    25    17      8
                           ___xxtofl (ARG)
 ---------------------------------------------------------------------------------
 (2) ___fldiv                                             25    17      8    3263
                                             48 COMRAM    25    17      8
                            ___flmul (ARG)
                           ___xxtofl (ARG)
 ---------------------------------------------------------------------------------
 (4) ___fladd                                             16     8      8    5034
                                             48 COMRAM    16     8      8
                  _ADC_GetConversion (ARG)
                            ___flmul (ARG)
                           ___xxtofl (ARG)
 ---------------------------------------------------------------------------------
 (2) ___awdiv                                              8     4      4    2785
                                              4 COMRAM     8     4      4
 ---------------------------------------------------------------------------------
 (2) _Sring_7segdisplay                                    5     1      4   14602
                                             13 COMRAM     5     1      4
                               _mask
                       _sev_display1
                       _sev_display2
 ---------------------------------------------------------------------------------
 (3) _sev_display2                                         5     2      3    1435
                                              8 COMRAM     5     2      3
                        _display7seg
                               _mask (ARG)
 ---------------------------------------------------------------------------------
 (3) _sev_display1                                         5     2      3    2476
                                              8 COMRAM     5     2      3
                        _display7seg
                       _display7seg2
                               _mask (ARG)
 ---------------------------------------------------------------------------------
 (4) _display7seg2                                         2     2      0     771
                                              4 COMRAM     2     2      0
 ---------------------------------------------------------------------------------
 (4) _display7seg                                          2     2      0     771
                                              4 COMRAM     2     2      0
 ---------------------------------------------------------------------------------
 (3) _mask                                                 4     2      2    1741
                                              4 COMRAM     4     2      2
 ---------------------------------------------------------------------------------
 (1) ___flge                                              12     4      8     986
                                             23 COMRAM    12     4      8
                           ___xxtofl (ARG)
 ---------------------------------------------------------------------------------
 (1) _TMR3_ReadTimer                                       4     4      0      78
                                              4 COMRAM     4     4      0
 ---------------------------------------------------------------------------------
 (1) _TMR3_HasOverflowOccured                              0     0      0       0
 ---------------------------------------------------------------------------------
 (1) _TMR0_ReadTimer                                       1     1      0      10
                                              4 COMRAM     1     1      0
 ---------------------------------------------------------------------------------
 (1) _TMR0_HasOverflowOccured                              0     0      0       0
 ---------------------------------------------------------------------------------
 (1) _SYSTEM_Initialize                                    0     0      0     211
                     _ADC_Initialize
                    _CCP5_Initialize
               _INTERRUPT_Initialize
              _OSCILLATOR_Initialize
             _PIN_MANAGER_Initialize
                    _TMR0_Initialize
                    _TMR1_Initialize
                    _TMR3_Initialize
 ---------------------------------------------------------------------------------
 (2) _TMR3_Initialize                                      0     0      0       0
 ---------------------------------------------------------------------------------
 (2) _TMR1_Initialize                                      0     0      0     211
           _TMR1_SetInterruptHandler
 ---------------------------------------------------------------------------------
 (1) _TMR1_SetInterruptHandler                             2     0      2     211
                                              4 COMRAM     2     0      2
 ---------------------------------------------------------------------------------
 (2) _TMR0_Initialize                                      0     0      0       0
 ---------------------------------------------------------------------------------
 (2) _PIN_MANAGER_Initialize                               0     0      0       0
 ---------------------------------------------------------------------------------
 (2) _OSCILLATOR_Initialize                                0     0      0       0
 ---------------------------------------------------------------------------------
 (2) _INTERRUPT_Initialize                                 0     0      0       0
 ---------------------------------------------------------------------------------
 (2) _CCP5_Initialize                                      0     0      0       0
 ---------------------------------------------------------------------------------
 (2) _ADC_Initialize                                       0     0      0       0
 ---------------------------------------------------------------------------------
 (1) _Key_Service                                          0     0      0       0
                           _Key_Scan
 ---------------------------------------------------------------------------------
 (2) _Key_Scan                                             0     0      0       0
 ---------------------------------------------------------------------------------
 (1) _DATAEE_ReadByte                                      2     0      2    2042
                                              4 COMRAM     2     0      2
 ---------------------------------------------------------------------------------
 (1) _ADC_GetConversion                                    5     3      2      31
                                              4 COMRAM     5     3      2
 ---------------------------------------------------------------------------------
 Estimated maximum stack depth 4
 ---------------------------------------------------------------------------------
 (Depth) Function   	        Calls       Base Space   Used Autos Params    Refs
 ---------------------------------------------------------------------------------
 (5) _INTERRUPT_InterruptManager                           2     2      0     240
                                              2 COMRAM     2     2      0
                           _TMR1_ISR
 ---------------------------------------------------------------------------------
 (6) _TMR1_ISR                                             0     0      0     240
                   Absolute function *
       _TMR1_DefaultInterruptHandler *
                    _TMR1_WriteTimer
                        _myTimer1ISR *
 ---------------------------------------------------------------------------------
 (7) _myTimer1ISR                                          0     0      0       0
 ---------------------------------------------------------------------------------
 (7) _TMR1_WriteTimer                                      2     0      2     240
                                              0 COMRAM     2     0      2
 ---------------------------------------------------------------------------------
 (7) _TMR1_DefaultInterruptHandler                         0     0      0       0
 ---------------------------------------------------------------------------------
 (7) Absolute function(Fake)                               0     0      0       0
 ---------------------------------------------------------------------------------
 Estimated maximum stack depth 7
 ---------------------------------------------------------------------------------

 Call Graph Graphs:

 _main (ROOT)
   _ADC_GetConversion
   _DATAEE_ReadByte
   _Key_Service
     _Key_Scan
   _SYSTEM_Initialize
     _ADC_Initialize
     _CCP5_Initialize
     _INTERRUPT_Initialize
     _OSCILLATOR_Initialize
     _PIN_MANAGER_Initialize
     _TMR0_Initialize
     _TMR1_Initialize
       _TMR1_SetInterruptHandler
     _TMR3_Initialize
   _TMR0_HasOverflowOccured
   _TMR0_ReadTimer
   _TMR1_SetInterruptHandler
   _TMR3_HasOverflowOccured
   _TMR3_ReadTimer
   ___fladd
     _ADC_GetConversion (ARG)
     ___flmul (ARG)
       ___xxtofl (ARG)
         _ADC_GetConversion (ARG)
     ___xxtofl (ARG)
       _ADC_GetConversion (ARG)
   ___fldiv
     ___flmul (ARG)
       ___xxtofl (ARG)
         _ADC_GetConversion (ARG)
     ___xxtofl (ARG)
       _ADC_GetConversion (ARG)
   ___flge
     ___xxtofl (ARG)
       _ADC_GetConversion (ARG)
   ___flmul
     ___xxtofl (ARG)
       _ADC_GetConversion (ARG)
   ___flsub
     ___fladd
       _ADC_GetConversion (ARG)
       ___flmul (ARG)
         ___xxtofl (ARG)
           _ADC_GetConversion (ARG)
       ___xxtofl (ARG)
         _ADC_GetConversion (ARG)
     ___flmul (ARG)
       ___xxtofl (ARG)
         _ADC_GetConversion (ARG)
     ___xxtofl (ARG)
       _ADC_GetConversion (ARG)
   ___fltol
   ___xxtofl
     _ADC_GetConversion (ARG)
   _ctrl_task
     _Sring_7segdisplay
       _mask
       _sev_display1
         _display7seg
         _display7seg2
         _mask (ARG)
       _sev_display2
         _display7seg
         _mask (ARG)
     ___awdiv
     ___fladd
       _ADC_GetConversion (ARG)
       ___flmul (ARG)
         ___xxtofl (ARG)
           _ADC_GetConversion (ARG)
       ___xxtofl (ARG)
         _ADC_GetConversion (ARG)
     ___fldiv
       ___flmul (ARG)
         ___xxtofl (ARG)
           _ADC_GetConversion (ARG)
       ___xxtofl (ARG)
         _ADC_GetConversion (ARG)
     ___flmul
       ___xxtofl (ARG)
         _ADC_GetConversion (ARG)
     ___fltol
     ___lwdiv
     ___lwmod
     ___xxtofl
       _ADC_GetConversion (ARG)
     _write_2bytedata
       _DATAEE_WriteByte
       ___lwdiv
       ___lwmod
   _low_pass_filter
     ___flmul
       ___xxtofl (ARG)
         _ADC_GetConversion (ARG)
     ___flsub
       ___fladd
         _ADC_GetConversion (ARG)
         ___flmul (ARG)
           ___xxtofl (ARG)
             _ADC_GetConversion (ARG)
         ___xxtofl (ARG)
           _ADC_GetConversion (ARG)
       ___flmul (ARG)
         ___xxtofl (ARG)
           _ADC_GetConversion (ARG)
       ___xxtofl (ARG)
         _ADC_GetConversion (ARG)
     _lowPassExponential
       ___fladd
         _ADC_GetConversion (ARG)
         ___flmul (ARG)
           ___xxtofl (ARG)
             _ADC_GetConversion (ARG)
         ___xxtofl (ARG)
           _ADC_GetConversion (ARG)
       ___flmul
         ___xxtofl (ARG)
           _ADC_GetConversion (ARG)
       ___flsub
         ___fladd
           _ADC_GetConversion (ARG)
           ___flmul (ARG)
             ___xxtofl (ARG)
               _ADC_GetConversion (ARG)
           ___xxtofl (ARG)
             _ADC_GetConversion (ARG)
         ___flmul (ARG)
           ___xxtofl (ARG)
             _ADC_GetConversion (ARG)
         ___xxtofl (ARG)
           _ADC_GetConversion (ARG)

 _INTERRUPT_InterruptManager (ROOT)
   _TMR1_ISR
     Absolute function(Fake) *
     _TMR1_DefaultInterruptHandler *
     _TMR1_WriteTimer *
     _myTimer1ISR *

 Address spaces:
Name               Size   Autos  Total    Cost      Usage
BIGRAM             F37      0       0      37        0.0%
EEDATA             400      0       0       0        0.0%
BITBANK14          100      0       0      33        0.0%
BANK14             100      0       0      34        0.0%
BITBANK13          100      0       0      31        0.0%
BANK13             100      0       0      32        0.0%
BITBANK12          100      0       0      29        0.0%
BANK12             100      0       0      30        0.0%
BITBANK11          100      0       0      27        0.0%
BANK11             100      0       0      28        0.0%
BITBANK10          100      0       0      25        0.0%
BANK10             100      0       0      26        0.0%
BITBANK9           100      0       0      23        0.0%
BANK9              100      0       0      24        0.0%
BITBANK8           100      0       0      21        0.0%
BANK8              100      0       0      22        0.0%
BITBANK7           100      0       0      19        0.0%
BANK7              100      0       0      20        0.0%
BITBANK6           100      0       0      17        0.0%
BANK6              100      0       0      18        0.0%
BITBANK5           100      0       0      15        0.0%
BANK5              100      0       0      16        0.0%
BITBANK4           100      0       0      13        0.0%
BANK4              100      0       0      14        0.0%
BITBANK3           100      0       0      10        0.0%
BANK3              100      0       0      11        0.0%
BITBANK2           100      0       0       8        0.0%
BANK2              100      0       0       9        0.0%
BITBANK1           100      0       0       6        0.0%
BANK1              100      C      58       7       34.4%
BITBANK0            A0      0       0       4        0.0%
BANK0               A0     20      98       5       95.0%
BITCOMRAM           5E      0       0       0        0.0%
COMRAM              5E     54      5A       1       95.7%
BITBANK15           38      0       0      35        0.0%
BANK15              38      0       0      36        0.0%
BITSFR_1             0      0       0     200        0.0%
SFR_1                0      0       0     200        0.0%
BITSFR               0      0       0     200        0.0%
SFR                  0      0       0     200        0.0%
STACK                0      0       0       2        0.0%
NULL                 0      0       0       0        0.0%
ABS                  0      0     14A      12        0.0%
DATA                 0      0     14A       3        0.0%
CODE                 0      0       0       0        0.0%


Microchip Technology PIC18 Macro Assembler V2.10 build 88905656 
Symbol Table                                                                                   Thu Sep 30 11:07:56 2021

                      _lowPassExponential 37B6                              ___fldiv@aexp 0049  
                            ?_display7seg 0001                              ___fldiv@bexp 0048  
                             _uint_count2 0092                              ___fldiv@sign 0041  
                             __CFG_CP0$ON 000000                               __CFG_CP1$ON 000000  
                             __CFG_CP2$ON 000000                               __CFG_CP3$ON 000000  
         __end_of_TMR0_HasOverflowOccured 3F78           __end_of_TMR3_HasOverflowOccured 3F64  
                                      l30 3EFC                                        l33 3F0A  
                                      l27 3ED2                                        l60 3E5E  
                                      l78 3F38                                        l87 3FA8  
                                      l96 3F76                             ?_display7seg2 0001  
                            ___awdiv@sign 000A                                        _ki 00F4  
                                      _kp 0154                           _timer0ReloadVal 00D1  
                        _uchr_DebounceCnt 00CE                       ?_lowPassExponential 0049  
                             __CFG_LVP$ON 000000                                       l105 3F86  
                                     l201 3D60                                       l203 3D6E  
                                     l124 3F4E                                       l204 3D7A  
                                     l142 3E32                                       l207 3F22  
                                     l139 3E12                                       l315 3EEE  
                                     l324 3F92                                       l341 3F62  
                                     l239 3E88                                       l285 3FAC  
                                     l269 3F9C                                       l631 0C2C  
                                     l560 2E8A                                       l707 1448  
                                     l629 07AA                                       l841 3964  
                                     l834 328A                                       l851 396E  
                                     l843 3966                                       l747 1F7C  
                                     l924 39FA                                       l780 3158  
                                     l692 1394                                       l853 3970  
                                     l845 3968                                       l837 3960  
                                     l773 3CF0                                       l781 3168  
                                     l855 3972                                       l847 396A  
                                     l839 3962                                       l951 36C0  
                                     l695 1372                                       l944 3A20  
                                     l857 3974                                       l849 396C  
                                     l961 36CA                                       l953 36C2  
                                     l786 3898                                       l963 36CC  
                                     l955 36C4                                       l947 36BC  
                                     l965 36CE                                       l957 36C6  
                                     l949 36BE                                       l967 36D0  
                                     l959 36C8                              __CFG_CPB$OFF 000000  
                            __CFG_CPD$OFF 000000                           _timer1ReloadVal 00B4  
                            _uint_updatEN 00AE                                       tosl 000FFD  
                                     wreg 000FE8                              ___flmul@aexp 0025  
                            ___flmul@bexp 002A                              ___flmul@sign 0024  
                            ___flmul@temp 002F                              ___flmul@prod 002B  
                         _CCP5_Initialize 3F78                              ___fltol@exp1 000E  
                                    l1100 3462                                      l1103 347E  
                                    l1112 34A6                                      l1121 32A6  
                                    l1202 3D90                                      l1114 34AE  
                                    l1106 3484                                      l1130 32E4  
                                    l1042 3792                                      l1034 3756  
                                    l1203 3DBA                                      l1124 32C2  
                                    l1036 376E                                      l1205 3DA4  
                                    l1109 34A0                                      l1133 32EA  
                                    l1070 33B8                                      l1142 3328  
                                    l1118 32A0                                      l1151 3350  
                                    l1127 32C8                                      l1063 37B4  
                                    l1039 3780                                      l1160 338E  
                                    l1136 3306                                      l1073 33D4  
                                    l1145 332E                                      l1082 33FC  
                                    l1154 336C                                      l1091 343A  
                                    l1067 33B2                                      l1163 3394  
                                    l1139 330C                                      l1076 33DA  
                                    l1148 334A                                      l1085 3418  
                                    l1165 339C                                      l1157 3372  
                                    l1094 3440                                      l1079 33F6  
                                    l1088 341E                                      l1097 345C  
                                    l1442 395C                           _timer3ReloadVal 00B0  
                                    l1508 35B4                                      l1702 3BBC  
                                    l1199 3B50                                      l1712 3C92  
                                    l1481 36B8                                      l1476 3672  
                                    l1740 215A                                      l1804 2AA6  
                                    l1741 2120                                      l1709 3BC4  
                                    l1806 2B1E                                      l1807 2B0C  
                                    l1719 3C9A                                      l1832 26F8  
                                    l1825 2502                                      l1842 2828  
                                    l1834 2770                                      l1739 216C  
                                    l1835 275E                                      l1756 2286  
                                    l1748 243C                                      l1765 2356  
                                    l1829 2866                                      l1781 3D36  
                                    l1766 2344                                      l1880 2FD6  
                                    l7000 3C86                                      l1793 2C00  
                                    l1873 2F7A                                      l7010 3E5C  
                                    l1866 2EE2                                      l7002 3C8C  
                                    l1795 2A60                                      l7004 3FAA  
                                    l7012 3EF0                                      l7020 3EE0  
                                    l6300 2012                                      l7100 2882  
                                    l1869 303E                                      l7014 3F3A  
                                    l7006 3E34                                      l7030 3E76  
                                    l7022 3EE8                                      l6310 2046  
                                    l6302 2014                                      l1798 2A24  
                                    l7110 28B6                                      l7102 2884  
                                    l7016 3F78                                      l7008 3E40  
                                    l7032 3E78                                      l7024 3E60  
                                    l6240 32EC                                      l6232 328E  
                                    l7040 316C                                      l6400 2254  
                                    l6320 2082                                      l6304 2024  
                                    l6312 204E                                      l7120 28E8  
                                    l7104 2894                                      l7112 28BE  
                                    l8000 0F46                                      l7034 3E84  
                                    l7026 3E6C                                      l7018 3ED4  
                                    l6250 3396                                      l6242 330E  
                                    l6234 3292                                      l7050 31BA  
                                    l7042 317C                                      l6410 22AC  
                                    l6402 2256                                      l6330 2096  
                                    l6322 2086                                      l6314 205E  
                                    l6306 2034                                      l7202 2B2E  
                                    l7210 2B76                                      l7130 291C  
                                    l7122 28EA                                      l7114 28CE  
                                    l7106 28A4                                      l8010 1028  
                                    l8002 0F56                                      l7036 3F24  
                                    l7028 3E74                                      l6500 2C06  
                                    l6260 33FE                                      l6252 33A0  
                                    l6244 3330                                      l6236 32A8  
                                    l7052 3200                                      l7044 3182  
                                    l6420 22DA                                      l6404 2266  
                                    l6340 20AA                                      l6332 209A  
                                    l6324 208A                                      l6316 2070  
                                    l6308 2044                                      l7220 2BE0  
                                    l7212 2B90                                      l7204 2B3A  
                                    l7140 2962                                      l7124 28FA  
                                    l7132 2924                                      l7116 28D4  
                                    l7108 28B4                                      l7300 3540  
                                    l7060 37B6                                      l8020 10E2  
                                    l8012 106C                                      l8004 0F8A  
                                    l7038 3F32                                      l6270 34A8  
                                    l6262 3420                                      l6254 33A4  
                                    l6246 3352                                      l6238 32CA  
                                    l7046 3198                                      l7054 323E  
                                    l6422 22E8                                      l6414 22C0  
                                    l6430 2306                                      l6406 2276  
                                    l6342 20AE                                      l6334 209E  
                                    l6326 208E                                      l6318 207E  
                                    l6350 20BE                                      l7222 2BEE  
                                    l7214 2BA6                                      l7206 2B48  
                                    l7150 298A                                      l7142 2966  
                                    l7134 2934                                      l7126 290A  
                                    l7118 28DA                                      l7310 3568  
                                    l7302 354A                                      l7062 37C8  
                                    l8030 123E                                      l8022 1104  
                                    l8014 107E                                      l8006 0FAE  
                                    l7400 3F0C                                      l7080 3D9E  
                                    l7072 3D7C                                      l6600 2D1A  
                                    l6520 2C42                                      l6512 2C2A  
                                    l6504 2C12                                      l6264 3442  
                                    l6256 33BA                                      l6248 3374  
                                    l7056 3250                                      l7048 31A4  
                                    l7240 38B4                                      l6424 22F0  
                                    l6416 22CA                                      l6408 229C  
                                    l6432 2314                                      l6360 212E  
                                    l6352 20C2                                      l6344 20B2  
                                    l6336 20A2                                      l6328 2092  
                                    l6280 1FAA                                      l6272 1F7E  
                                    l7224 2BF4                                      l7216 2BC0  
                                    l7208 2B72                                      l7160 29D8  
                                    l7136 294A                                      l7128 291A  
                                    l7312 3574                                      l7304 3554  
                                    l7064 3820                                      l8040 133E  
                                    l8032 124E                                      l8024 1138  
                                    l8016 108E                                      l8008 0FF4  
                                    l7410 3F1C                                      l7402 3F12  
                                    l7074 3D8A                                      l6266 3464  
                                    l6258 33DC                                      l7250 38DA  
                                    l7242 38B8                                      l7234 389A  
                                    l6442 2366                                      l6450 23BC  
                                    l6434 2318                                      l6426 22F4  
                                    l6418 22D8                                      l6370 2158  
                                    l6362 213A                                      l6354 20EC  
                                    l6346 20B6                                      l6338 20A6  
                                    l6290 1FE4                                      l6282 1FBA  
                                    l6274 1F8A                                      l7226 2BF6  
                                    l7218 2BDC                                      l7170 2A22  
                                    l7162 29E8                                      l7154 299E  
                                    l7138 295A                                      l7146 297A  
                                    l7314 3584                                      l7330 2F08  
                                    l7322 2E8E                                      l7058 3C9E  
                                    l7066 3878                                      l8042 1352  
                                    l8050 138C                                      l8034 125E  
                                    l8026 11C4                                      l8018 109E  
                                    l7412 3F1E                                      l7404 3F16  
                                    l7092 3DB8                                      l7420 3F92  
                                    l6620 2D56                                      l6612 2D3E  
                                    l6604 2D26                                      l6540 2C7E  
                                    l6532 2C66                                      l6524 2C4E  
                                    l6516 2C36                                      l6508 2C1E  
                                    l6268 3486                                      l6700 39EE  
                                    l7260 3910                                      l7252 38EC  
                                    l7244 38C6                                      l7236 389E  
                                    l6460 240E                                      l6452 23CC  
                                    l6444 2372                                      l6436 2326  
                                    l6428 2304                                      l6380 21AE  
                                    l6372 217A                                      l6364 213E  
                                    l6356 2108                                      l6348 20BA  
                                    l6292 1FEA                                      l6284 1FCA  
                                    l6276 1F98                                      l7180 2A70  
                                    l7172 2A2E                                      l7164 29F0  
                                    l7156 29B8                                      l7148 298A  
                                    l7316 3594                                      l7340 2F62  
                                    l7324 2E9E                                      l7500 162A  
                                    l7068 3888                                      l8044 1362  
                                    l8036 12A2                                      l8028 120A  
                                    l8052 1394                                      l7414 3F20  
                                    l7406 3F18                                      l7086 3DB2  
                                    l7430 3AD0                                      l6630 2D6E  
                                    l6710 39F8                                      l6702 39F0  
                                    l7262 3926                                      l7254 38F4  
                                    l7270 393C                                      l7246 38CE  
                                    l7238 38AC                                      l6470 242C  
                                    l6462 2414                                      l6454 23DC  
                                    l6446 2380                                      l6438 233C  
                                    l6390 21E8                                      l6382 21BC  
                                    l6374 218A                                      l6366 214C  
                                    l6358 2118                                      l6294 1FFC  
                                    l6286 1FCC                                      l6278 1F9A  
                                    l7182 2A86                                      l7190 2AB6  
                                    l7174 2A4C                                      l7166 2A00  
                                    l7158 29C8                                      l7318 35A4  
                                    l7350 2FC6                                      l7342 2F64  
                                    l7334 2F1C                                      l7326 2EAC  
                                    l7510 16D6                                      l7502 1640  
                                    l8046 1374                                      l8038 12C4  
                                    l7408 3F1A                                      l7440 3B0E  
                                    l7432 3AE2                                      l7424 3F50  
                                    l6624 2D62                                      l6616 2D4A  
                                    l6608 2D32                                      l6560 2CA2  
                                    l6552 2C8A                                      l6536 2C72  
                                    l6528 2C5A                                      l6720 3A16  
                                    l6712 3A00                                      l6704 39F2  
                                    l6640 398C                                      l6800 3750  
                                    l7272 394C                                      l7264 392E  
                                    l7256 38FC                                      l7248 38D2  
                                    l6464 2416                                      l6456 23FC  
                                    l6448 23BA                                      l6392 21EA  
                                    l6384 21CA                                      l6368 214E  
                                    l6296 1FFE                                      l6288 1FD4  
                                    l7192 2AC4                                      l7184 2A8C  
                                    l7176 2A4E                                      l7168 2A14  
                                    l7096 2868                                      l7280 34C6  
                                    l7360 301E                                      l7352 2FE4  
                                    l7344 2F70                                      l7336 2F24  
                                    l7328 2EF2                                      l6480 3D4A  
                                    l7600 1CDE                                      l7520 1782  
                                    l7512 16EC                                      l7504 1644  
                                    l8048 1380                                      l7450 3B32  
                                    l7442 3B10                                      l7434 3AE6  
                                    l7370 3EB6                                      l7418 3F88  
                                    l6722 3A18                                      l6714 3A10  
                                    l6706 39F4                                      l6650 3996  
                                    l6642 398E                                      l6810 3782  
                                    l6802 3752                                      l6730 36D2  
                                    l7274 3954                                      l7266 3930  
                                    l7258 390A                                      l6466 241C  
                                    l6458 2400                                      l6394 21F4  
                                    l6386 21D6                                      l6378 219E  
                                    l6298 2004                                      l7194 2AC8  
                                    l7186 2A96                                      l7178 2A5E  
                                    l7098 2874                                      l7290 3516  
                                    l7362 302C                                      l7354 2FE6  
                                    l7346 2FAC                                      l7338 2F30  
                                    l6490 3D56                                      l6482 3D4E  
                                    l6474 3D38                                      l7610 1D12  
                                    l7602 1CE2                                      l8250 1C4C  
                                    l7530 182E                                      l7522 1798  
                                    l7514 16F0                                      l7444 3B18  
                                    l7436 3AF6                                      l7452 3B36  
                                    l7428 3AC8                                      l7380 3ECA  
                                    l7372 3EBA                                      l8252 2D84  
                                    l6580 2CDE                                      l6572 2CC6  
                                    l6564 2CAE                                      l6556 2C96  
                                    l6724 3A1A                                      l6716 3A12  
                                    l6708 39F6                                      l6660 39A0  
                                    l6652 3998                                      l6644 3990  
                                    l6636 3976                                      l6820 37AA  
                                    l6812 3794                                      l6804 3754  
                                    l6740 36EE                                      l6732 36D8  
                                    l7268 3936                                      l6468 242A  
                                    l6388 21DA                                      l6396 21FA  
                                    l7196 2AD6                                      l7188 2AA4  
                                    l6900 262A                                      l7292 351A  
                                    l7284 34DA                                      l7364 302E  
                                    l7356 2FEA                                      l7348 2FB8  
                                    l6492 3D5A                                      l6484 3D50  
                                    l6476 3D40                                      l7620 1D58  
                                    l7612 1D20                                      l7604 1CF2  
                                    l7540 18DA                                      l7532 1844  
                                    l7524 179C                                      l7508 165E  
                                    l7460 3096                                      l7700 019E  
                                    l7390 3DFC                                      l7454 3B48  
                                    l7446 3B28                                      l7438 3AFE  
                                    l7382 3ECE                                      l7374 3EBE  
                                    l6726 3A1C                                      l6718 3A14  
                                    l6670 39BE                                      l6662 39A2  
                                    l6654 399A                                      l6646 3992  
                                    l6638 397C                                      l6822 37AC  
                                    l6814 37A4                                      l6806 375C  
                                    l6750 36F8                                      l6742 36F0  
                                    l6734 36E8                                      l6398 2220  
                                    l7198 2B04                                      l6910 26C0  
                                    l6902 2636                                      l6830 243E  
                                    l7294 3528                                      l7286 3504  
                                    l7278 34B0                                      l7358 300E  
                                    l6494 3D5E                                      l6486 3D52  
                                    l6478 3D46                                      l7630 1E0C  
                                    l7622 1D66                                      l7614 1D2E  
                                    l7606 1CF6                                      l7550 1986  
                                    l7542 18F0                                      l7534 1848  
                                    l7518 170A                                      l7462 30EE  
                                    l8246 099A                                      l7710 0234  
                                    l7702 01A6                                      l7392 3E0E  
                                    l7448 3B2A                                      l6496 3F94  
                                    l7376 3EC2                                      l7368 3EB2  
                                    l7384 3FA6                                      l6592 2D02  
                                    l6584 2CEA                                      l6576 2CD2  
                                    l6568 2CBA                                      l6728 3A1E  
                                    l6680 39C8                                      l6672 39C0  
                                    l6664 39B8                                      l6656 399C  
                                    l6648 3994                                      l6824 37AE  
                                    l6816 37A6                                      l6808 3770  
                                    l6760 3716                                      l6752 36FA  
                                    l6744 36F2                                      l6736 36EA  
                                    l6920 2716                                      l6912 26DE  
                                    l6904 2652                                      l6840 247A  
                                    l6832 244A                                      l7288 3506  
                                    l6488 3D54                                      l7632 1E2E  
                                    l7624 1D74                                      l7616 1D3C  
                                    l7608 1D04                                      l7560 1A32  
                                    l7552 199C                                      l7544 18F4  
                                    l7528 17B6                                      l7480 14C8  
                                    l7472 13A0                                      l7464 3122  
                                    l7456 3040                                      l8248 0BC6  
                                    l7800 0724                                      l7720 02A8  
                                    l7712 024A                                      l7704 01DE  
                                    l7394 3E10                                      l7378 3EC6  
                                    l7386 3F64                                      l7650 35F4  
                                    l6498 2C02                                      l6690 39E4  
                                    l6682 39CA                                      l6674 39C2  
                                    l6666 39BA                                      l6658 399E  
                                    l6826 37B0                                      l6818 37A8  
                                    l6770 3720                                      l6762 3718  
                                    l6754 36FC                                      l6746 36F4  
                                    l6738 36EC                                      l6930 2780  
                                    l6922 271A                                      l6914 26E8  
                                    l6906 267C                                      l6850 24AC  
                                    l6842 248A                                      l6834 2458  
                                    l7634 1E86                                      l7626 1D82  
                                    l7618 1D4A                                      l7570 1ADE  
                                    l7562 1A48                                      l7554 19A0  
                                    l7538 1862                                      l7490 157E  
                                    l7482 14DE                                      l7474 13A4  
                                    l7466 3140                                      l7458 3052  
                                    l7810 0766                                      l7802 0726  
                                    l7730 034C                                      l7722 02E0  
                                    l7714 0252                                      l7706 01F4  
                                    l7396 3E20                                      l7660 3660  
                                    l7652 3622                                      l6596 2D0E  
                                    l6588 2CF6                                      l6692 39E6  
                                    l6684 39CC                                      l6676 39C4  
                                    l6668 39BC                                      l6828 37B2  
                                    l6780 372A                                      l6772 3722  
                                    l6764 371A                                      l6756 36FE  
                                    l6748 36F6                                      l6940 27E2  
                                    l6932 278C                                      l6924 2728  
                                    l6916 26F6                                      l6908 26B2  
                                    l6860 24EC                                      l6852 24BA  
                                    l6844 2490                                      l6836 245A  
                                    l7636 1F26                                      l7628 1D90  
                                    l7580 1B8A                                      l7572 1AF4  
                                    l7564 1A4C                                      l7548 190E  
                                    l7492 1594                                      l7484 14E2  
                                    l7476 13B4                                      l7468 3144  
                                    l7900 0A12                                      l7820 0792  
                                    l7812 076E                                      l7804 0736  
                                    l7740 03E2                                      l7732 0354  
                                    l7724 02F6                                      l7716 028A  
                                    l7708 01FC                                      l7662 36B0  
                                    l7654 3632                                      l7646 35B6  
                                    l6694 39E8                                      l6686 39CE  
                                    l6678 39C6                                      l6790 3746  
                                    l6782 3730                                      l6774 3724  
                                    l6766 371C                                      l6758 3714  
                                    l6950 284A                                      l6942 27F6  
                                    l6934 279A                                      l6926 2756  
                                    l6918 2708                                      l6870 2536  
                                    l6862 24F2                                      l6854 24BC  
                                    l6846 24A0                                      l6838 246A  
                                    l7638 1F5A                                      l7582 1BA0  
                                    l7574 1AF8                                      l7558 19BA  
                                    l7494 1598                                      l7486 14F8  
                                    l7478 1450                                      l7910 0A5C  
                                    l7902 0A26                                      l7830 07E8  
                                    l7822 07A2                                      l7814 0780  
                                    l7806 0746                                      l7750 0456  
                                    l7742 03F8                                      l7734 038C  
                                    l7726 02FE                                      l7718 02A0  
                                    l7670 0062                                      l7664 36B6  
                                    l7656 3640                                      l7648 35E4  
                                    l6696 39EA                                      l6688 39D4  
                                    l6792 3748                                      l6784 3740  
                                    l6776 3726                                      l6768 371E  
                                    l6952 284C                                      l6944 2810  
                                    l6936 27C4                                      l6880 2586  
                                    l6872 2542                                      l6864 2512  
                                    l6856 24CC                                      l6848 24A6  
                                    l7584 1BA4                                      l7568 1A66  
                                    l7488 1506                                      l7592 1C36  
                                    l6960 3CF2                                      l7920 0A92  
                                    l7912 0A64                                      l7904 0A38  
                                    l7840 0830                                      l7832 07FE  
                                    l7816 0788                                      l7808 0756  
                                    l7824 07BE                                      l7760 0504  
                                    l7752 0462                                      l7744 0400  
                                    l7736 03A2                                      l7728 0336  
                                    l7680 0074                                      l7672 0066  
                                    l7658 3652                                      l6698 39EC  
                                    l6794 374A                                      l6786 3742  
                                    l6778 3728                                      l6946 282C  
                                    l6954 2852                                      l6938 27C8  
                                    l6890 25C8                                      l6882 2592  
                                    l6874 254C                                      l6866 2522  
                                    l6858 24DC                                      l6970 3B6C  
                                    l7578 1B12                                      l7498 15B2  
                                    l7594 1CB2                                      l6962 3D02  
                                    l7930 0AD0                                      l7922 0AA4  
                                    l7914 0A6E                                      l7906 0A40  
                                    l7850 0870                                      l7842 0834  
                                    l7834 080A                                      l7826 07D0  
                                    l7818 0790                                      l7770 0666  
                                    l7762 055C                                      l7754 0464  
                                    l7746 0438                                      l7738 03AA  
                                    l7690 00FA                                      l7682 008C  
                                    l7674 0068                                      l6796 374C  
                                    l6788 3744                                      l6956 2856  
                                    l6948 283C                                      l6892 25D4  
                                    l6884 259E                                      l6876 2562  
                                    l6980 3BA6                                      l6972 3B74  
                                    l7596 1CC6                                      l7588 1BBE  
                                    l7940 0B10                                      l7932 0ADA  
                                    l7924 0AAC                                      l7916 0A80  
                                    l7908 0A4A                                      l7860 08A6  
                                    l7852 087C                                      l7844 084A  
                                    l7836 080E                                      l7828 07E4  
                                    l7780 0690                                      l7772 0668  
                                    l7764 05FC                                      l7756 0466  
                                    l7748 044E                                      l7692 0132  
                                    l7684 00A4                                      l7676 006E  
                                    l7668 0050                                      l6798 374E  
                                    l6894 25E4                                      l6886 25AC  
                                    l6878 256E                                      l6982 3BAE  
                                    l6974 3B7C                                      l6966 3B52  
                                    l6990 3C4A                                      l7598 1CCC  
                                    l7950 0B46                                      l7942 0B18  
                                    l7934 0AEC                                      l7926 0AB6  
                                    l7918 0A88                                      l7870 08EE  
                                    l7862 08BC                                      l7854 0880  
                                    l7846 0856                                      l7838 0824  
                                    l7790 06D4                                      l7782 06A6  
                                    l7774 066C                                      l7766 0630  
                                    l7758 04E2                                      l7694 0148  
                                    l7686 00DC                                      l7678 0070  
                                    l6896 25FE                                      l6888 25B8  
                                    l6984 3BB0                                      l6976 3B8A  
                                    l6968 3B5A                                      l6992 3C52  
                                    l7960 0B84                                      l7952 0B58  
                                    l7944 0B22                                      l7936 0AF4  
                                    l7928 0AC8                                      l7880 092E  
                                    l7872 08F2                                      l7864 08C8  
                                    l7856 0896                                      l7848 085A  
                                    l7792 06EA                                      l7784 06BA  
                                    l7776 067E                                      l7768 0652  
                                    l7696 0150                                      l7688 00F2  
                                    l6898 260E                                      l6986 3BB6  
                                    l6978 3B90                                      l6994 3C5A  
                                    l7962 0B8E                                      l7954 0B60  
                                    l7946 0B34                                      l7938 0AFE  
                                    l7970 0BB2                                      l7890 0964  
                                    l7882 093A                                      l7874 0908  
                                    l7866 08CC                                      l7858 08A2  
                                    l7794 06FE                                      l7778 068C  
                                    l7786 06C2                                      l7698 0188  
                                    l6996 3C68                                      l6988 3C38  
                                    l7980 0C4C                                      l7964 0BA0  
                                    l7956 0B6A                                      l7948 0B3C  
                                    l7892 097A                                      l7884 093E  
                                    l7876 0914                                      l7868 08E2  
                                    l7796 070E                                      l7788 06D0  
                                    l7972 0C2C                                      l6998 3C7E  
                                    l7990 0D9A                                      l7982 0C98  
                                    l7974 0C40                                      l7966 0BA8  
                                    l7958 0B7C                                      l7886 0954  
                                    l7878 0918                                      l7798 0712  
                                    l7992 0DCE                                      l7984 0CE4  
                                    l7976 0C42                                      l7888 0960  
                                    l7896 0986                                      l7994 0E26  
                                    l7986 0CFC                                      l7978 0C46  
                                    l7898 0A00                                      l7996 0F2C  
                                    l7988 0D42                                      l7998 0F36  
                                    _LATA 000F89                                      _LATB 000F8A  
                                    _LATC 000F8B                                      u6000 27E2  
                                    u6001 27DE                                      u6010 2810  
                                    u6011 280C                                      u5300 336C  
                                    u6100 317C                                      u6020 284A  
                                    u5301 3368                                      u6101 3178  
                                    u6021 2846                                      u5310 338E  
                                    u6110 3198                                      u6030 3B6C  
                                    u5311 338A                                      u6111 3194  
                                    u6031 3B68                                      u5320 33B2  
                                    u5240 32A0                                      u6120 31BA  
                                    u5400 1F98                                      u6200 28E8  
                                    u6040 3B8A                                      u7000 03A2  
                                    u5321 33AE                                      u5241 329C  
                                    u6121 31B6                                      u5401 1F94  
                                    u6201 28E4                                      u6041 3B86  
                                    u7001 039E                                      u5330 33D4  
                                    u5250 32C2                                      u6130 3250  
                                    u5410 1FAA                                      u6210 28FA  
                                    u6050 3BA6                                      u7010 03F8  
                                    u5331 33D0                                      u5251 32BE  
                                    u6131 324C                                      u5411 1FA6  
                                    u6211 28F6                                      u6051 3BA2  
                                    u7011 03F4                                      u6140 3D8A  
                                    u5340 33F6                                      u5260 32E4  
                                    u5500 2104                                      u5420 1FBA  
                                    u6300 2AA4                                      u6220 290A  
                                    u6060 3C4A                                      u7100 0736  
                                    u7020 044E                                      u6141 3D86  
                                    u5341 33F2                                      u5261 32E0  
                                    u5501 20FE                                      u5421 1FB6  
                                    u6301 2AA0                                      u6221 2906  
                                    u6061 3C46                                      u7101 0732  
                                    u7021 044A                                      u6150 3D9E  
                                    u5350 3418                                      u5270 3306  
                                    u5510 2106                                      u5430 1FFC  
                                    u6310 2AC4                                      u6230 294A  
                                    u6070 3C68                                      u7110 0746  
                                    u7030 0666                                      u6151 3D9A  
                                    u5351 3414                                      u5271 3302  
                                    u5431 1FF8                                      u6311 2AC0  
                                    u6231 2946                                      u6071 3C64  
                                    u7111 0742                                      u7031 0662  
                                    u6160 3DB2                                      u5360 343A  
                                    u5280 3328                                      u6400 38AC  
                                    u5600 2220                                      u5520 212E  
                                    u5440 2012                                      u6320 2AD6  
                                    u6240 298A                                      u6080 3C7E  
                                    u7200 0870                                      u7120 0756  
                                    u7040 067E                                      u6161 3DAE  
                                    u5361 3436                                      u5281 3324  
                                    u6401 38A8                                      u5601 221C  
                                    u5521 212A                                      u5441 200E  
                                    u6321 2AD2                                      u6241 2986  
                                    u6081 3C7A                                      u7201 086C  
                                    u7121 0752                                      u7041 067A  
                                    u6090 3F0A                                      u5370 345C  
                                    u5290 334A                                      u6410 38C6  
                                    u5610 2266                                      u5530 214C  
                                    u5450 2024                                      u6330 2B04  
                                    u6250 2A00                                      u6170 2882  
                                    u7210 0896                                      u7130 0766  
                                    u7050 068C                                      u6091 3F06  
                                    u5371 3458                                      u5291 3346  
                                    u6411 38C2                                      u5611 2262  
                                    u5531 2148                                      u5451 2020  
                                    u6331 2B00                                      u6251 29FC  
                                    u6171 287E                                      u7211 0892  
                                    u7131 0762                                      u7051 0688  
                                    u5380 347E                                      u6420 38EC  
                                    u5700 2352                                      u5620 229C  
                                    u5540 216C                                      u5460 2034  
                                    u6340 2B1A                                      u6260 2A22  
                                    u6180 2894                                      u6500 3564  
                                    u7300 0A5C                                      u7220 08BC  
                                    u7140 0780                                      u7060 06A6  
                                    u5381 347A                                      u6421 38E8  
                                    u5701 234E                                      u5621 2298  
                                    u5541 2168                                      u5461 2030  
                                    u6341 2B16                                      u6261 2A1E  
                                    u6181 2890                                      u6501 3560  
                                    u7301 0A58                                      u7221 08B8  
                                    u7141 077C                                      u7061 06A2  
                                    u5390 34A0                                      u6430 390A  
                                    u5710 2366                                      u5630 22AC  
                                    u5550 217A                                      u5470 2070  
                                    u6350 2B2E                                      u6270 2A4C  
                                    u6190 28A4                                      u6510 3584  
                                    u7310 0A80                                      u7230 08E2  
                                    u7150 07A2                                      u7070 06D0  
                                    u5391 349C                                      u6431 3906  
                                    u5711 2362                                      u5631 22A8  
                                    u5551 2176                                      u5471 206C  
                                    u6351 2B2A                                      u6271 2A48  
                                    u6191 28A0                                      u6511 3580  
                                    u7311 0A7C                                      u7231 08DE  
                                    u7151 079E                                      u7071 06CC  
                                    u6440 3926                                      u5720 2380  
                                    u5640 22D8                                      u5560 218A  
                                    u5480 207E                                      u6360 2B48  
                                    u6280 2A70                                      u6520 3594  
                                    u6600 2FE4                                      u7400 0C40  
                                    u7320 0AA4                                      u7240 0908  
                                    u7160 07D0                                      u7080 06EA  
                                    u6441 3922                                      u5721 237C  
                                    u5641 22D4                                      u5561 2186  
                                    u5481 207A                                      u6361 2B44  
                                    u6281 2A6C                                      u6521 3590  
                                    u6601 2FE0                                      u7401 0C3C  
                                    u7321 0AA0                                      u7241 0904  
                                    u7161 07CC                                      u7081 06E6  
                                    u5810 376E                                      u6450 394C  
                                    u5730 23BA                                      u5650 22E8  
                                    u5570 21BC                                      u5490 20EC  
                                    u6370 2B90                                      u6290 2A86  
                                    u6610 301E                                      u6530 2E9E  
                                    u7410 0CFC                                      u7330 0AC8  
                                    u7250 092E                                      u7170 07FE  
                                    u7090 0724                                      u5811 376A  
                                    u6451 3948                                      u5731 23B6  
                                    u5651 22E4                                      u5571 21B8  
                                    u5491 20E8                                      u6371 2B8C  
                                    u6291 2A82                                      u6611 301A  
                                    u6531 2E9A                                      u7411 0CF8  
                                    u7331 0AC4                                      u7251 092A  
                                    u7171 07FA                                      u7091 0720  
                                    u6700 3B48                                      u5820 3780  
                                    u5740 23CC                                      u5660 2304  
                                    u5580 21CA                                      u6380 2BC0  
                                    u5900 2512                                      u6460 34C6  
                                    u6620 302C                                      u6540 2EAC  
                                    u7500 1372                                      u7420 106C  
                                    u7340 0AEC                                      u7260 0954  
                                    u7180 0824                                      u6701 3B44  
                                    u5821 377C                                      u5741 23C8  
                                    u5661 2300                                      u5581 21C6  
                                    u6381 2BBC                                      u5901 250E  
                                    u6461 34C2                                      u6621 3028  
                                    u6541 2EA8                                      u5805 3D78  
                                    u7501 136E                                      u7421 1068  
                                    u7341 0AE8                                      u7261 0950  
                                    u7181 0820                                      u6630 3F74  
                                    u5830 3792                                      u5750 23DC  
                                    u5670 2314                                      u5590 21E8  
                                    u6390 2BEE                                      u5910 2522  
                                    u6470 34FA                                      u6550 2F08  
                                    u5806 3D7A                                      u6710 3140  
                                    u7430 108E                                      u7350 0B10  
                                    u7270 097A                                      u7190 084A  
                                    u6631 3F6E                                      u5831 378E  
                                    u5751 23D8                                      u5671 2310  
                                    u5591 21E4                                      u6391 2BEA  
                                    u5911 251E                                      u6551 2F04  
                                    u6711 313C                                      u7431 108A  
                                    u7351 0B0C                                      u7271 0976  
                                    u7191 0846                                      u6640 3E20  
                                    u5760 23FC                                      u5680 2326  
                                    u5920 269C                                      u5840 2458  
                                    u6480 3528                                      u6560 2F5E  
                                    u6800 199C                                      u6720 13B4  
                                    u7440 10E2                                      u7360 0B34  
                                    u7280 0A12                                      u6641 3E1C  
                                    u5761 23F8                                      u5681 2322  
                                    u5841 2454                                      u6481 3524  
                                    u6561 2F5A                                      u6801 1998  
                                    u6721 13B0                                      u7441 10DE  
                                    u7361 0B30                                      u7281 0A0E  
                                    u6650 3F60                                      u5770 240E  
                                    u5690 233C                                      u5930 26F6  
                                    u5850 246A                                      u6490 353C  
                                    u6570 2FA8                                      u6810 1A48  
                                    u6730 14DE                                      u7450 124E  
                                    u7370 0B58                                      u7290 0A38  
                                    u6651 3F5A                                      u5771 240A  
                                    u5691 2338                                      u5931 26F2  
                                    u5851 2466                                      u6491 3538  
                                    u6475 34F0                                      u6571 2FA4  
                                    u6811 1A44                                      u6731 14DA  
                                    u7451 124A                                      u7371 0B54  
                                    u7291 0A34                                      u6660 3AE2  
                                    u6636 3F76                                      u6900 3660  
                                    u5780 242A                                      u5940 2716  
                                    u5860 247A                                      u6580 2FC6  
                                    u6820 1AF4                                      u6740 1594  
                                    u7460 12A2                                      u7380 0B7C  
                                    u6661 3ADE                                      u6901 365C  
                                    u5781 2426                                      u5941 2712  
                                    u5925 2692                                      u5861 2476  
                                    u6581 2FC2                                      u6821 1AF0  
                                    u6741 1590                                      u7461 129E  
                                    u7381 0B78                                      u6670 3AF6  
                                    u6910 36B0                                      u5950 2728  
                                    u5870 24BA                                      u6590 2FD6  
                                    u5790 3D6E                                      u6830 1BA0  
                                    u6750 1640                                      u7470 133E  
                                    u7390 0BA0                                      u6671 3AF2  
                                    u6911 36AC                                      u5951 2724  
                                    u5871 24B6                                      u6591 2FD2  
                                    u5791 3D6A                                      u6831 1B9C  
                                    u6751 163C                                      u7471 133A  
                                    u7391 0B9C                                      u6680 3B0E  
                                    u6656 3F62                                      u5960 2756  
                                    u5880 24CC                                      u6840 1CC6  
                                    u6760 16EC                                      u7480 1352  
                                    u6920 00F2                                      u6681 3B0A  
                                    u5961 2752                                      u5881 24C8  
                                    u6841 1CC2                                      u6761 16E8  
                                    u7481 134E                                      u6921 00EE  
                                    u6690 3B28                                      u5970 276C  
                                    u5890 24DC                                      u6850 1CDE  
                                    u6770 1798                                      u7490 1362  
                                    u6930 0148                                      u6691 3B24  
                                    u5971 2768                                      u5891 24D8  
                                    u6851 1CDA                                      u6771 1794  
                                    u7491 135E                                      u6931 0144  
                                    u7707 0098                                      u5980 2780  
                                    u6860 1CF2                                      u6780 1844  
                                    u6940 019E                                      u7717 36DE  
                                    u5981 277C                                      u6861 1CEE  
                                    u6781 1840                                      u6941 019A  
                                    u6870 35E4                                      u5990 279A  
                                    u6790 18F0                                      u6950 01F4  
                                    u6871 35E0                                      u7727 370A  
                                    u5991 2796                                      u6791 18EC  
                                    u6951 01F0                                      u6880 3622  
                                    u6960 024A                                      u6881 361E  
                                    u7737 3736                                      u6961 0246  
                                    u6890 3640                                      u6970 02A0  
                                    u6891 363C                                      u7747 379A  
                                    u6971 029C                                      u6980 02F6  
                                    u7757 3982                                      u6981 02F2  
                                    u6990 034C                                      u7767 39AE  
                                    u6991 0348                                      u7687 0058  
                                    u7777 39DA                                      u7697 0080  
                                    u7787 3A06                                      _TMR1 000FCE  
                                    _TMR3 000FB2                                      _WPUB 000F61  
                                    _Time 011C                      ??_lowPassExponential 0055  
                           ??_Key_Service 0005                             _uint_resetcnt 0144  
                                    _main 0050                                      _mask 2C02  
                                    _menu 00BD                                      fsr1l 000FE1  
                                    btemp 005B                             __CFG_BORV$190 000000  
                                    prodh 000FF4                                      prodl 000FF3  
                 _lowPassExponential$2499 00D4                                      start 004C  
                           __CFG_IESO$OFF 000000                           ___fldiv@new_exp 0042  
                         _TMR3_Initialize 3ED4                ??_TMR1_SetInterruptHandler 0007  
                            ___param_bank 000000                            ??_display7seg2 0005  
               __size_of_DATAEE_WriteByte 0044                   __end_of_TMR0_Initialize 3F3A  
          __size_of_OSCILLATOR_Initialize 001C             __end_of_OSCILLATOR_Initialize 3F0C  
                           ___fltol@sign1 000D                           __end_of___fladd 243E  
                                   ?_main 0001                                     ?_mask 0005  
                         __end_of___fldiv 2C02                           __end_of___awdiv 395E  
                                   _EEADR 000FA9                           __end_of___flmul 2868  
                         __end_of___flsub 3D38                           __end_of___fltol 35B6  
                                   _T0CON 000FD5                           ___awdiv@divisor 0007  
                                   _T1CON 000FCD                                     _T3CON 000FB1  
                          __CFG_DEBUG$OFF 000000                           __end_of___lwdiv 3BC6  
                         __end_of___lwmod 3C9C                                     i2l253 3EB0  
                                   i2l272 3FAE                                     i2l266 3DF8  
                                   i2l294 0040                                     i2l763 3AB4  
                                   i2l766 3AC2                                     i2l758 3A7C  
                                   i2l767 3AC6                           ___awdiv@counter 0009  
                                   _PID_d 0110                                     _PID_i 0070  
                                   _PID_p 0114                              _u8_powerduty 00BB  
                                   _TMR0H 000FD7                                     _TMR1H 000FCF  
                                   _TMR0L 000FD6                                     _TMR1L 000FCE  
                                   _TMR3H 000FB3                                     _TMR3L 000FB2  
                                   _TRISA 000F92                                     _TRISB 000F93  
                                   _TRISC 000F94                 TMR3_ReadTimer@readValHigh 0007  
                       ??_write_2bytedata 000E                           sev_display1@DD0 000D  
                         sev_display1@DD1 0009                           sev_display1@DD2 000A  
                         sev_display1@DD3 000B                             __CFG_WRT0$OFF 000000  
                         sev_display2@DD0 000D                           sev_display2@DD1 0009  
                         sev_display2@DD2 000A                           sev_display2@DD3 000B  
                           __CFG_WRT1$OFF 000000                             __CFG_WRT2$OFF 000000  
                           __CFG_WRT3$OFF 000000                            __CFG_EBTR0$OFF 000000  
                          __CFG_FCMEN$OFF 000000                            __CFG_EBTR1$OFF 000000  
                          __CFG_EBTR2$OFF 000000                            __CFG_EBTR3$OFF 000000  
                        __end_of_TMR1_ISR 3DFA                             __CFG_WRTB$OFF 000000  
                           __CFG_WRTC$OFF 000000                             __CFG_WRTD$OFF 000000  
                         _DATAEE_ReadByte 3F0C                            __CFG_EBTRB$OFF 000000  
                          fp__myTimer1ISR 0000                        __CFG_MCLRE$EXTMCLR 000000  
                 __end_of_TMR1_Initialize 3E8A                                     pclath 000FFA  
                                   tablat 000FF5                                     ttemp5 005C  
                                   ttemp6 005F                                     ttemp7 0063  
                                   status 000FD8                                     wtemp8 005C  
                          __CFG_HFOFST$ON 000000                           _TMR1_WriteTimer 3E8A  
                          __CFG_PBADEN$ON 000000                 write_2bytedata@uchr_dataH 000F  
               write_2bytedata@uchr_dataL 000E                           __initialization 3BC6  
                              _u16_offset 013C                       __end_of_Key_Service 3B52  
                            __end_of_main 13A0                              __end_of_mask 2E8C  
                        __end_of_Key_Scan 3DBC               lowPassExponential@weighting 00DC  
                            ?_myTimer1ISR 0001               ?_INTERRUPT_InterruptManager 0001  
                          _u8_loadONfirst 00C6                                    ??_main 00F0  
                                  ??_mask 0007                   __end_of_CCP5_Initialize 3F88  
                           __activetblptr 000002                       write_2bytedata@addr 0010  
                     write_2bytedata@data 000C                            _convertedValue 0136  
                                  _ADCON0 000FC2                                    _ADCON1 000FC1  
                                  _ADCON2 000FC0                                    _ADRESH 000FC4  
                                  _EEADRH 000FAA                                    _ADRESL 000FC3  
                                  _EEDATA 000FA8                                    _CCPR5H 000F56  
                                  _CCPR5L 000F55                                    _EECON2 000FA7  
                        ___awdiv@dividend 0005                                    _ANSELA 000F38  
                                  _ANSELB 000F39                                    _ANSELC 000F3A  
                                  _T1GCON 000FCC                                    _T3GCON 000FB4  
                 TMR1_WriteTimer@timerVal 0001                   __end_of_TMR3_Initialize 3EF0  
                                  i2l5000 3A9C                                    i2l5002 3AAE  
                                  i2l5004 3AB2                                    i2l5006 3ABC  
                          __CFG_WDTEN$OFF 000000                                    i2l5008 3AC0  
                                  i2l5370 3DBE                                    i2l5372 3DCA  
                                  i2l5374 3DDE                                    i2l5368 3DBC  
                                  i2l5650 003C                                    i2l5644 0012  
                                  i2l4950 3EA2                                    i2l4942 3E8A  
                                  i2l5646 0020                                    i2l4944 3E98  
                                  i2l4952 3EA8                                    i2l5648 002E  
                                  i2l4954 3EAC                                    i2l4946 3E9A  
                                  i2l4948 3E9E                                    i2l4980 3A36  
                                  i2l4990 3A6A                                    i2l4982 3A46  
                                  _TABLAT 000FF5                                    i2l4992 3A7E  
                                  i2l4984 3A4A                                    i2l4976 3A22  
                                  i2l4986 3A5C                                    i2l4978 3A34  
                                  i2l4994 3A86                                    i2l4996 3A88  
                                  i2l4988 3A64                                    i2l4998 3A98  
                                  _OSCCON 000FD3                                    _PLLRDY 007E97  
        __size_of_TMR0_HasOverflowOccured 0014          __size_of_TMR3_HasOverflowOccured 0014  
                        __end_of___xxtofl 3040                             _u8_sw_microEN 0090  
                                  _u16_ib 00A2                                    _u16_pb 00A4  
                          __CFG_PWRTEN$ON 000000                            __CFG_XINST$OFF 000000  
    __end_of_TMR1_DefaultInterruptHandler 3FB0     __size_of_TMR1_DefaultInterruptHandler 0002  
            _TMR1_DefaultInterruptHandler 3FAE                                    ___flge 35B6  
            Int_7segdisplay@uint_blinkcnt 008A                                 ??___fladd 0039  
                               ??___fldiv 0039                                 ??___awdiv 0009  
                          __CFG_STVREN$ON 000000                                 ??___flmul 0020  
                               ??___flsub 0049                                 ??___fltol 0009  
                               ??___lwdiv 0009                                 ??___lwmod 0009  
                        ?_TMR0_Initialize 0001                                    clear_0 3C0C  
                                  clear_1 3C18                          ___awdiv@quotient 000B  
                    __size_of_display7seg 0112                               _u16_SETtemp 00AC  
                             _u16_SETtime 00AA                   __end_of_DATAEE_ReadByte 3F24  
                                  tblptrh 000FF7                                    tblptrl 000FF6  
                                  tblptru 000FF8                  ADC_GetConversion@channel 0009  
TMR1_SetInterruptHandler@InterruptHandler 0005                   __end_of_TMR1_WriteTimer 3EB2  
                    __end_of_display7seg2 339E             __size_of_INTERRUPT_Initialize 0004  
                              ___flge@ff1 0018                                ___flge@ff2 001C  
                        ?_TMR1_Initialize 0001                              ___xxtofl@arg 0014  
                            ___xxtofl@exp 0013                         _SYSTEM_Initialize 3EB2  
                            ___xxtofl@val 000A                                __accesstop 0060  
                 __end_of__initialization 3C2A                               _Key_Service 3AC8  
                      ?_SYSTEM_Initialize 0001                             ___rparam_used 000001  
                              ___fltol@f1 0005                       myTimer1ISR@timemili 00B7  
                          __pcstackCOMRAM 0001                              __pidataBANK0 3F9E  
                            __pidataBANK1 3FA2                       ??_SYSTEM_Initialize 0007  
                               ?_TMR1_ISR 0001           fp__TMR1_DefaultInterruptHandler 0000  
           ?_TMR1_DefaultInterruptHandler 0001                               _u16_timesec 00A8  
                        _DATAEE_WriteByte 3D38                  __size_of_low_pass_filter 012A  
                 __size_of_TMR0_ReadTimer 0004                          ?_CCP5_Initialize 0001  
               __end_of_SYSTEM_Initialize 3ED4                                __pbssBANK0 0060  
                              __pbssBANK1 0100                                 ?_Key_Scan 0001  
                        ?_TMR3_Initialize 0001                           __CFG_PLLCFG$OFF 000000  
                      __size_of_ctrl_task 0BDE                   __size_of_TMR3_ReadTimer 000C  
                      __CFG_CCP2MX$PORTC1 000000                                   ?___flge 0018  
                         _write_2bytedata 3C9C                                ??_TMR1_ISR 0003  
                      __CFG_CCP3MX$PORTB5 000000                                   _CCP5CON 000F54  
                        _uchr_PreviousKey 00CF                   __size_of_ADC_Initialize 0016  
                    __size_of_myTimer1ISR 00A6                          ?_DATAEE_ReadByte 0005  
                               ?___xxtofl 000A                                   _OSCCON2 000FD2  
                                 _TBLPTRH 000FF7                                   _TBLPTRL 000FF6  
                                 _TBLPTRU 000FF8                                   _OSCTUNE 000F9B  
                        ?_TMR1_WriteTimer 0001                   _TMR0_HasOverflowOccured 3F64  
                 _TMR3_HasOverflowOccured 3F50                                ??_Key_Scan 0005  
                    DATAEE_WriteByte@bAdd 0005               __size_of_lowPassExponential 00E4  
                              _flt_offset 012C                                   _u16_cg1 009E  
                                 _u16_cg2 009C                                   _u16_cof 009A  
                                 _u16_mde 0098                                   _u16_off 00A6  
                                 _u16_plm 00D2                                   _u16_hys 00A0  
                    _ADC_InterruptHandler 0146                                   __Hparam 0000  
                   low_pass_filter@result 0060                                   __Lparam 0000  
                         __size_of___flge 0104                                   ___fladd 1F7E  
                                 _u8_led1 00C4                                   _u8_led2 00C3  
                                 _u8_led3 00C2                                   ___fldiv 2868  
                                 ___awdiv 389A                                   ___flmul 243E  
                                 ___flsub 3CF2                                   ___fltol 34B0  
                           ?_sev_display1 0009                             ?_sev_display2 0009  
                                 ___lwdiv 3B52                                   ___lwmod 3C38  
                                 __pcinit 3BC6                                   __ramtop 1000  
                                 __ptext0 0050                                   __ptext1 3040  
                                 __ptext2 37B6                                   __ptext3 3CF2  
                                 __ptext4 13A0                                   __ptext5 3C9C  
                                 __ptext6 3C38                                   __ptext7 3B52  
                                 __ptext8 3D38                                   __ptext9 2E8C  
                       __end_of_ctrl_task 1F7E                                 _T0CONbits 000FD5  
          ??_TMR1_DefaultInterruptHandler 0001                                 _T1CONbits 000FCD  
                   _OSCILLATOR_Initialize 3EF0                                ??___xxtofl 000E  
                               _T3CONbits 000FB1         __size_of_TMR1_SetInterruptHandler 000A  
                       ??_low_pass_filter 0055                     __size_of_display7seg2 0112  
                ??_PIN_MANAGER_Initialize 0005                 ?_TMR1_SetInterruptHandler 0005  
                lowPassExponential@Result 00D8                            _uchr_maxcurser 00C8  
              __size_of_SYSTEM_Initialize 0022                  lowPassExponential@factor 0051  
                    end_of_initialization 3C2A                            _uchr_mincurser 00C9  
                                 mask@num 0005                             __Lmediumconst 0000  
                 low_pass_filter@LPF_Beta 00E4                   __end_of_write_2bytedata 3CF2  
                          ??_sev_display1 000C                            ??_sev_display2 000C  
                                 postdec1 000FE5                                   postinc0 000FEE  
                               _PID_error 0078                 lowPassExponential@average 004D  
                               _PID_value 0074                            _TMR0_ReadTimer 3FA6  
                            _display7seg2 328C                                 _PORTAbits 000F80  
                               _PORTBbits 000F81                        _uchr_valuemodified 00CA  
                             ___fladd@grs 0040                             ___xxtofl@sign 0012  
               ??_TMR0_HasOverflowOccured 0005                 ??_TMR3_HasOverflowOccured 0005  
                             ___fldiv@grs 0044                               ___fldiv@rem 003D  
                              _uint_count 0094                  __end_of_DATAEE_WriteByte 3D7C  
                        display7seg2@data 0005                               ___flmul@grs 0026  
                        display7seg2@mask 0006                               _u8_ledvalue 00C5  
                            ?_Key_Service 0001                            _TMR3_ReadTimer 3F88  
                    myTimer1ISR@timecycle 00B8                    __end_of_TMR0_ReadTimer 3FAA  
                           ??_display7seg 0005              __end_of_INTERRUPT_Initialize 3FAE  
                    _low_pass_filter$2497 00E8                      _low_pass_filter$2498 00EC  
                          __end_of___flge 36BA                         __size_of_TMR1_ISR 003E  
                          _ADC_Initialize 3F3A                    ?_OSCILLATOR_Initialize 0001  
                               _u16_Temp1 0140                                 _u16_Temp2 013E  
              lowPassExponential@oldvalue 0108                       start_initialization 3BC6  
                               _u16_gain1 013A                                 _u16_gain2 0138  
                      _u16_displyfirstcnt 0059                  __size_of_TMR0_Initialize 0016  
         __size_of_PIN_MANAGER_Initialize 002C                    __end_of_TMR3_ReadTimer 3F94  
                       __size_of_Key_Scan 0040                       DATAEE_ReadByte@bAdd 0005  
                        ?_write_2bytedata 000C                          _uchr_blinkdigit0 00C1  
                        _uchr_blinkdigit1 00C0                          _uchr_blinkdigit2 00BF  
                        _uchr_blinkdigit3 00BE                  __size_of_TMR1_Initialize 002A  
                                ??___flge 0020                           ?_TMR0_ReadTimer 0001  
                  __end_of_ADC_Initialize 3F50                               __pdataBANK0 00F4  
                             __pdataBANK1 0154                       __end_of_display7seg 34B0  
                               ___fladd@a 0035                                 ___fladd@b 0031  
                               ___fldiv@a 0035                                 ___fldiv@b 0031  
                               ___flmul@a 001C                                 ___flmul@b 0018  
                             __pbssCOMRAM 0055                                 _u8_loadON 00C7  
                               ___flsub@a 0045                                 ___flsub@b 0041  
                           __pcstackBANK0 00D4                             __pcstackBANK1 0148  
                  Key_Service@fastincrcnt 00B6                         __size_of___xxtofl 01B4  
                    __end_of_sev_display1 3A22                      __end_of_sev_display2 37B6  
                __size_of_CCP5_Initialize 0010                           ?_TMR3_ReadTimer 0001  
                               _main$2493 0148                                 _main$2494 014C  
                               _main$2496 0150                          ___lwdiv@dividend 0005  
                  _PIN_MANAGER_Initialize 3E34                  __size_of_TMR3_Initialize 001C  
                         _uchr_PresentKey 00D0                                 __pintcode 0008  
        __end_of_TMR1_SetInterruptHandler 3F9E                                  ?___fladd 0031  
                                ?___fldiv 0031                                  ?___awdiv 0005  
                         _low_pass_filter 3040                                  ?___flmul 0018  
                                ?___flsub 0041                                  ?___fltol 0005  
                           ??_myTimer1ISR 0001                                  ?___lwdiv 0005  
                                ?___lwmod 0005                           ?_ADC_Initialize 0001  
            ??_INTERRUPT_InterruptManager 0003                          __CFG_PRICLKEN$ON 000000  
                               _flt_Temp1 0130                                 _flt_Temp2 0080  
                               _flt_gain1 007C                                 _flt_gain2 0128  
                               _ctrl_task 13A0                          ___lwdiv@quotient 000A  
                __size_of_DATAEE_ReadByte 0018                __end_of_lowPassExponential 389A  
                    _INTERRUPT_Initialize 3FAA                               _elapsedTime 0120  
                       ??_TMR0_Initialize 0005                                  _LATBbits 000F8A  
                                _LATCbits 000F8B                                 _uchr_LED1 00BA  
                               _uchr_LED2 00B9                   lowPassExponential@input 0049  
                                _PIE1bits 000F9D                      __size_of_Key_Service 008A  
                __size_of_TMR1_WriteTimer 0028       __size_of_INTERRUPT_InterruptManager 0044  
                                i2u415_40 3DDE                                  i2u415_41 3DDA  
                                i2u360_40 3A5C                                  i2u360_41 3A58  
                                i2u353_40 3E98                                  i2u361_40 3A7C  
                                i2u416_48 3DE4                                  i2u353_41 3E94  
                                i2u361_41 3A78                                  i2u416_49 3DF8  
                                _PIR1bits 000F9E                                  i2u362_40 3A98  
                                i2u362_41 3A94                                  i2u363_40 3AAE  
                                i2u363_41 3AAA                                  _PIR2bits 000FA1  
                                i2u445_40 0020                                  i2u445_41 001C  
                                i2u358_40 3A34                                  i2u446_40 002E  
                                i2u358_41 3A30                                  i2u446_41 002A  
                                i2u359_40 3A46                                  i2u447_40 003C  
                                i2u359_41 3A42                                  i2u447_41 0038  
                           _uchr_restmode 00CD                                  _RCONbits 000FD0  
                        __CFG_WDTPS$32768 000000                               _display7seg 339E  
                                _TMR1_ISR 3DBC                                 _uint_data 0100  
                       ??_TMR1_Initialize 0007                  TMR3_ReadTimer@readValLow 0008  
                              _ADCON0bits 000FC2                               _flt_adcavg1 006C  
                             _flt_adcavg2 0068                       __end_of_myTimer1ISR 3AC8  
                              ?_ctrl_task 0001                           display7seg@data 0005  
                   DATAEE_WriteByte@bData 0007                    ctrl_task@valueshiftcnt 0134  
                         display7seg@mask 0006                               _INTCON2bits 000FF1  
                               copy_data0 3BDA                                 copy_data1 3BFA  
                   ?_INTERRUPT_Initialize 0001                         ?_DATAEE_WriteByte 0005  
                                _u16_Temp 0142                                  _Key_Scan 3D7C  
                      ??_DATAEE_WriteByte 0008                                _EECON1bits 000FA6  
                 __end_of_low_pass_filter 316A                         ??_CCP5_Initialize 0005  
                                __Hrparam 0000                                  __Lrparam 0000  
                       _ADC_GetConversion 3DFA                        __CFG_BOREN$SBORDIS 000000  
                       _Sring_7segdisplay 316A                         __CFG_P2BMX$PORTB5 000000  
                 ??_OSCILLATOR_Initialize 0005                        ?_ADC_GetConversion 0005  
                        __size_of___fladd 04C0                          __size_of___fldiv 039A  
                        __size_of___awdiv 00C4                          __size_of___flmul 042A  
                        __size_of___flsub 0046                          __size_of___fltol 0106  
                                _u8_digit 0055                        ?_Sring_7segdisplay 000E  
                        __size_of___lwdiv 0074                          __size_of___lwmod 0064  
                       ??_TMR3_Initialize 0005                  _TMR1_SetInterruptHandler 3F94  
                   _TMR1_InterruptHandler 00B2                       ??_ADC_GetConversion 0007  
                   __size_of_sev_display1 00C4                     __size_of_sev_display2 00FC  
                                ___xxtofl 2E8C                       ??_Sring_7segdisplay 0012  
                  Sring_7segdisplay@char0 0011                    Sring_7segdisplay@char1 0010  
                  Sring_7segdisplay@char2 000F                    Sring_7segdisplay@char3 000E  
                         ___lwdiv@divisor 0007                           ___lwdiv@counter 0009  
                                __ptext10 34B0                                  __ptext11 243E  
                                __ptext20 2C02                                  __ptext12 2868  
                                __ptext21 35B6                                  __ptext13 1F7E  
                              _T1GCONbits 000FCC                                  __ptext30 3F24  
                                __ptext22 3F88                                  __ptext14 389A  
                                __ptext31 3E34                                  __ptext23 3F50  
                                __ptext15 316A                                  __ptext32 3EF0  
                                __ptext24 3FA6                                  __ptext16 36BA  
                                __ptext41 3DBC                                  __ptext33 3FAA  
                                __ptext25 3F64                                  __ptext17 395E  
                                __ptext42 3FAE                                  __ptext34 3F78  
                                __ptext26 3EB2                                  __ptext18 328C  
                                __ptext43 3A22                                  __ptext35 3F3A  
                                __ptext27 3ED4                                  __ptext19 339E  
                                __ptext44 3E8A                                  __ptext36 3AC8  
                                __ptext28 3E60                                  __ptext45 0000  
                                __ptext37 3D7C                                  __ptext29 3F94  
                                __ptext38 3F0C                                  __ptext39 3DFA  
                                _flt_Temp 0084                                  _flt_adc1 0064  
                                _flt_adc2 010C                                _T3GCONbits 000FB4  
             DATAEE_WriteByte@GIEBitValue 0008                             __size_of_main 1350  
                           __size_of_mask 028A                          low_pass_filter@j 008C  
                        ??_TMR0_ReadTimer 0005                          low_pass_filter@x 00E0  
          Sring_7segdisplay@uint_blinkcnt 0088                         ??_DATAEE_ReadByte 0007  
               __end_of_ADC_GetConversion 3E34                 __end_of_Sring_7segdisplay 328C  
                                _uchr_dly 00CC                            _previous_error 0124  
                                _timePrev 0118                                  int$flags 005B  
                            _sev_display1 395E                              _sev_display2 36BA  
      __end_of_INTERRUPT_InterruptManager 004C                _INTERRUPT_InterruptManager 0008  
                             _myTimer1ISR 3A22                         ??_TMR1_WriteTimer 0003  
                ?_TMR0_HasOverflowOccured 0001                  ?_TMR3_HasOverflowOccured 0001  
                              _INTCONbits 000FF2                               ??_ctrl_task 004A  
                  ??_INTERRUPT_Initialize 0005                          ??_TMR3_ReadTimer 0005  
                                intlevel2 0000                               _uchr_Curser 00CB  
                   Sring_7segdisplay@line 0012                          ___lwmod@dividend 0005  
                 ?_PIN_MANAGER_Initialize 0001                          ?_low_pass_filter 00E0  
                        ??_ADC_Initialize 0005                  __size_of_write_2bytedata 0056  
                         ___lwmod@divisor 0007                           _TMR0_Initialize 3F24  
                         ___lwmod@counter 0009                             _u16_Tempvalue 0096  
                       __CFG_T3CMX$PORTC0 000000                             ___fladd@signs 003D  
          __end_of_PIN_MANAGER_Initialize 3E60                              ___fladd@aexp 003E  
                            ___fladd@bexp 003F                         __CFG_FOSC$INTIO67 000000  
              __size_of_ADC_GetConversion 003A                           _TMR1_Initialize 3E60  
                            _u8_calisetEN 00BC                __size_of_Sring_7segdisplay 0122  
                             _uint_adccnt 008E  
