Archive member included to satisfy reference by file (symbol)

c:/program files (x86)/microchip/xc32/v2.30/bin/bin/../../lib/gcc/pic32c/6.2.1/../../../../pic32c/lib\libpic32c.a(data_init.o)
                              build/default/production/_ext/1171490990/startup_xc32.o (__pic32c_data_initialization)
c:/program files (x86)/microchip/xc32/v2.30/bin/bin/../../lib/gcc/pic32c/6.2.1\libgcc.a(_udivsi3.o)
                              build/default/production/_ext/17022449/plib_sercom0_spi_master.o (__aeabi_uidiv)
c:/program files (x86)/microchip/xc32/v2.30/bin/bin/../../lib/gcc/pic32c/6.2.1\libgcc.a(_divsi3.o)
                              build/default/production/_ext/1360937237/myapp.o (__aeabi_idiv)
c:/program files (x86)/microchip/xc32/v2.30/bin/bin/../../lib/gcc/pic32c/6.2.1\libgcc.a(_dvmd_tls.o)
                              c:/program files (x86)/microchip/xc32/v2.30/bin/bin/../../lib/gcc/pic32c/6.2.1\libgcc.a(_udivsi3.o) (__aeabi_idiv0)
c:/program files (x86)/microchip/xc32/v2.30/bin/bin/../../lib/gcc/pic32c/6.2.1\libgcc.a(_arm_cmpdf2.o)
                              build/default/production/_ext/1360937237/app3.o (__aeabi_dcmple)
c:/program files (x86)/microchip/xc32/v2.30/bin/bin/../../lib/gcc/pic32c/6.2.1\libgcc.a(_arm_cmpsf2.o)
                              build/default/production/_ext/1360937237/app3.o (__aeabi_fcmpeq)
c:/program files (x86)/microchip/xc32/v2.30/bin/bin/../../lib/gcc/pic32c/6.2.1\libgcc.a(_aeabi_uldivmod.o)
                              build/default/production/_ext/504274921/plib_sercom3_usart.o (__aeabi_uldivmod)
c:/program files (x86)/microchip/xc32/v2.30/bin/bin/../../lib/gcc/pic32c/6.2.1\libgcc.a(_muldi3.o)
                              build/default/production/_ext/504274921/plib_sercom3_usart.o (__aeabi_lmul)
c:/program files (x86)/microchip/xc32/v2.30/bin/bin/../../lib/gcc/pic32c/6.2.1\libgcc.a(_fixunssfsi.o)
                              build/default/production/_ext/1360937237/app2.o (__aeabi_f2uiz)
c:/program files (x86)/microchip/xc32/v2.30/bin/bin/../../lib/gcc/pic32c/6.2.1\libgcc.a(_fixunsdfsi.o)
                              build/default/production/_ext/1360937237/app.o (__aeabi_d2uiz)
c:/program files (x86)/microchip/xc32/v2.30/bin/bin/../../lib/gcc/pic32c/6.2.1\libgcc.a(_udivmoddi4.o)
                              c:/program files (x86)/microchip/xc32/v2.30/bin/bin/../../lib/gcc/pic32c/6.2.1\libgcc.a(_aeabi_uldivmod.o) (__udivmoddi4)
c:/program files (x86)/microchip/xc32/v2.30/bin/bin/../../lib/gcc/pic32c/6.2.1\libgcc.a(addsf3.o)
                              build/default/production/_ext/1360937237/app.o (__aeabi_fadd)
c:/program files (x86)/microchip/xc32/v2.30/bin/bin/../../lib/gcc/pic32c/6.2.1\libgcc.a(divsf3.o)
                              build/default/production/_ext/1360937237/app.o (__aeabi_fdiv)
c:/program files (x86)/microchip/xc32/v2.30/bin/bin/../../lib/gcc/pic32c/6.2.1\libgcc.a(eqsf2.o)
                              c:/program files (x86)/microchip/xc32/v2.30/bin/bin/../../lib/gcc/pic32c/6.2.1\libgcc.a(_arm_cmpsf2.o) (__eqsf2)
c:/program files (x86)/microchip/xc32/v2.30/bin/bin/../../lib/gcc/pic32c/6.2.1\libgcc.a(gesf2.o)
                              c:/program files (x86)/microchip/xc32/v2.30/bin/bin/../../lib/gcc/pic32c/6.2.1\libgcc.a(_arm_cmpsf2.o) (__gesf2)
c:/program files (x86)/microchip/xc32/v2.30/bin/bin/../../lib/gcc/pic32c/6.2.1\libgcc.a(lesf2.o)
                              c:/program files (x86)/microchip/xc32/v2.30/bin/bin/../../lib/gcc/pic32c/6.2.1\libgcc.a(_arm_cmpsf2.o) (__lesf2)
c:/program files (x86)/microchip/xc32/v2.30/bin/bin/../../lib/gcc/pic32c/6.2.1\libgcc.a(subsf3.o)
                              build/default/production/_ext/1360937237/app.o (__aeabi_fsub)
c:/program files (x86)/microchip/xc32/v2.30/bin/bin/../../lib/gcc/pic32c/6.2.1\libgcc.a(fixsfsi.o)
                              c:/program files (x86)/microchip/xc32/v2.30/bin/bin/../../lib/gcc/pic32c/6.2.1\libgcc.a(_fixunssfsi.o) (__aeabi_f2iz)
c:/program files (x86)/microchip/xc32/v2.30/bin/bin/../../lib/gcc/pic32c/6.2.1\libgcc.a(floatsisf.o)
                              build/default/production/_ext/1360937237/app2.o (__aeabi_i2f)
c:/program files (x86)/microchip/xc32/v2.30/bin/bin/../../lib/gcc/pic32c/6.2.1\libgcc.a(floatunsisf.o)
                              build/default/production/_ext/1360937237/app.o (__aeabi_ui2f)
c:/program files (x86)/microchip/xc32/v2.30/bin/bin/../../lib/gcc/pic32c/6.2.1\libgcc.a(adddf3.o)
                              build/default/production/_ext/1360937237/app.o (__aeabi_dadd)
c:/program files (x86)/microchip/xc32/v2.30/bin/bin/../../lib/gcc/pic32c/6.2.1\libgcc.a(divdf3.o)
                              build/default/production/_ext/1360937237/app2.o (__aeabi_ddiv)
c:/program files (x86)/microchip/xc32/v2.30/bin/bin/../../lib/gcc/pic32c/6.2.1\libgcc.a(eqdf2.o)
                              c:/program files (x86)/microchip/xc32/v2.30/bin/bin/../../lib/gcc/pic32c/6.2.1\libgcc.a(_arm_cmpdf2.o) (__eqdf2)
c:/program files (x86)/microchip/xc32/v2.30/bin/bin/../../lib/gcc/pic32c/6.2.1\libgcc.a(gedf2.o)
                              c:/program files (x86)/microchip/xc32/v2.30/bin/bin/../../lib/gcc/pic32c/6.2.1\libgcc.a(_arm_cmpdf2.o) (__gedf2)
c:/program files (x86)/microchip/xc32/v2.30/bin/bin/../../lib/gcc/pic32c/6.2.1\libgcc.a(ledf2.o)
                              c:/program files (x86)/microchip/xc32/v2.30/bin/bin/../../lib/gcc/pic32c/6.2.1\libgcc.a(_arm_cmpdf2.o) (__ledf2)
c:/program files (x86)/microchip/xc32/v2.30/bin/bin/../../lib/gcc/pic32c/6.2.1\libgcc.a(muldf3.o)
                              build/default/production/_ext/1360937237/app2.o (__aeabi_dmul)
c:/program files (x86)/microchip/xc32/v2.30/bin/bin/../../lib/gcc/pic32c/6.2.1\libgcc.a(subdf3.o)
                              build/default/production/_ext/1360937237/app4.o (__aeabi_dsub)
c:/program files (x86)/microchip/xc32/v2.30/bin/bin/../../lib/gcc/pic32c/6.2.1\libgcc.a(fixdfsi.o)
                              c:/program files (x86)/microchip/xc32/v2.30/bin/bin/../../lib/gcc/pic32c/6.2.1\libgcc.a(_fixunsdfsi.o) (__aeabi_d2iz)
c:/program files (x86)/microchip/xc32/v2.30/bin/bin/../../lib/gcc/pic32c/6.2.1\libgcc.a(floatsidf.o)
                              build/default/production/_ext/1360937237/app4.o (__aeabi_i2d)
c:/program files (x86)/microchip/xc32/v2.30/bin/bin/../../lib/gcc/pic32c/6.2.1\libgcc.a(floatunsidf.o)
                              build/default/production/_ext/1360937237/app3.o (__aeabi_ui2d)
c:/program files (x86)/microchip/xc32/v2.30/bin/bin/../../lib/gcc/pic32c/6.2.1\libgcc.a(extendsfdf2.o)
                              build/default/production/_ext/1360937237/myapp.o (__aeabi_f2d)
c:/program files (x86)/microchip/xc32/v2.30/bin/bin/../../lib/gcc/pic32c/6.2.1\libgcc.a(truncdfsf2.o)
                              build/default/production/_ext/1360937237/app2.o (__aeabi_d2f)
c:/program files (x86)/microchip/xc32/v2.30/bin/bin/../../lib/gcc/pic32c/6.2.1\libgcc.a(_thumb1_case_uqi.o)
                              c:/program files (x86)/microchip/xc32/v2.30/bin/bin/../../lib/gcc/pic32c/6.2.1\libgcc.a(divsf3.o) (__gnu_thumb1_case_uqi)
c:/program files (x86)/microchip/xc32/v2.30/bin/bin/../../lib/gcc/pic32c/6.2.1\libgcc.a(_thumb1_case_uhi.o)
                              c:/program files (x86)/microchip/xc32/v2.30/bin/bin/../../lib/gcc/pic32c/6.2.1\libgcc.a(divdf3.o) (__gnu_thumb1_case_uhi)
c:/program files (x86)/microchip/xc32/v2.30/bin/bin/../../lib/gcc/pic32c/6.2.1\libgcc.a(_lshrdi3.o)
                              c:/program files (x86)/microchip/xc32/v2.30/bin/bin/../../lib/gcc/pic32c/6.2.1\libgcc.a(_udivmoddi4.o) (__aeabi_llsr)
c:/program files (x86)/microchip/xc32/v2.30/bin/bin/../../lib/gcc/pic32c/6.2.1\libgcc.a(_ashldi3.o)
                              c:/program files (x86)/microchip/xc32/v2.30/bin/bin/../../lib/gcc/pic32c/6.2.1\libgcc.a(_udivmoddi4.o) (__aeabi_llsl)
c:/program files (x86)/microchip/xc32/v2.30/bin/bin/../../lib/gcc/pic32c/6.2.1\libgcc.a(_clzsi2.o)
                              c:/program files (x86)/microchip/xc32/v2.30/bin/bin/../../lib/gcc/pic32c/6.2.1\libgcc.a(addsf3.o) (__clzsi2)
c:/program files (x86)/microchip/xc32/v2.30/bin/bin/../../lib/gcc/pic32c/6.2.1\libgcc.a(_clzdi2.o)
                              c:/program files (x86)/microchip/xc32/v2.30/bin/bin/../../lib/gcc/pic32c/6.2.1\libgcc.a(_udivmoddi4.o) (__clzdi2)
c:/program files (x86)/microchip/xc32/v2.30/bin/bin/../../lib/gcc/pic32c/6.2.1/../../../../pic32c/lib\libc.a(lib_a-atof.o)
                              build/default/production/_ext/1360937237/app2.o (atof)
c:/program files (x86)/microchip/xc32/v2.30/bin/bin/../../lib/gcc/pic32c/6.2.1/../../../../pic32c/lib\libc.a(lib_a-atol.o)
                              build/default/production/_ext/1360937237/gsm_gps.o (atol)
c:/program files (x86)/microchip/xc32/v2.30/bin/bin/../../lib/gcc/pic32c/6.2.1/../../../../pic32c/lib\libc.a(lib_a-impure.o)
                              build/default/production/_ext/1171490990/initialization.o (_impure_ptr)
c:/program files (x86)/microchip/xc32/v2.30/bin/bin/../../lib/gcc/pic32c/6.2.1/../../../../pic32c/lib\libc.a(lib_a-init.o)
                              build/default/production/_ext/1171490990/startup_xc32.o (__libc_init_array)
c:/program files (x86)/microchip/xc32/v2.30/bin/bin/../../lib/gcc/pic32c/6.2.1/../../../../pic32c/lib\libc.a(lib_a-memcpy-stub.o)
                              build/default/production/_ext/60165182/plib_can0.o (memcpy)
c:/program files (x86)/microchip/xc32/v2.30/bin/bin/../../lib/gcc/pic32c/6.2.1/../../../../pic32c/lib\libc.a(lib_a-memset.o)
                              build/default/production/_ext/60165182/plib_can0.o (memset)
c:/program files (x86)/microchip/xc32/v2.30/bin/bin/../../lib/gcc/pic32c/6.2.1/../../../../pic32c/lib\libc.a(lib_a-printf.o)
                              build/default/production/_ext/1360937237/gsm_gps.o (printf)
c:/program files (x86)/microchip/xc32/v2.30/bin/bin/../../lib/gcc/pic32c/6.2.1/../../../../pic32c/lib\libc.a(lib_a-puts.o)
                              build/default/production/_ext/1360937237/main.o (puts)
c:/program files (x86)/microchip/xc32/v2.30/bin/bin/../../lib/gcc/pic32c/6.2.1/../../../../pic32c/lib\libc.a(lib_a-setbuf.o)
                              build/default/production/_ext/1171490990/initialization.o (setbuf)
c:/program files (x86)/microchip/xc32/v2.30/bin/bin/../../lib/gcc/pic32c/6.2.1/../../../../pic32c/lib\libc.a(lib_a-setvbuf.o)
                              c:/program files (x86)/microchip/xc32/v2.30/bin/bin/../../lib/gcc/pic32c/6.2.1/../../../../pic32c/lib\libc.a(lib_a-setbuf.o) (setvbuf)
c:/program files (x86)/microchip/xc32/v2.30/bin/bin/../../lib/gcc/pic32c/6.2.1/../../../../pic32c/lib\libc.a(lib_a-sprintf.o)
                              (sprintf)
c:/program files (x86)/microchip/xc32/v2.30/bin/bin/../../lib/gcc/pic32c/6.2.1/../../../../pic32c/lib\libc.a(lib_a-strcat.o)
                              build/default/production/_ext/1360937237/app3.o (strcat)
c:/program files (x86)/microchip/xc32/v2.30/bin/bin/../../lib/gcc/pic32c/6.2.1/../../../../pic32c/lib\libc.a(lib_a-strchr.o)
                              build/default/production/_ext/1360937237/at_engine.o (strchr)
c:/program files (x86)/microchip/xc32/v2.30/bin/bin/../../lib/gcc/pic32c/6.2.1/../../../../pic32c/lib\libc.a(lib_a-strcmp.o)
                              build/default/production/_ext/1360937237/at_engine.o (strcmp)
c:/program files (x86)/microchip/xc32/v2.30/bin/bin/../../lib/gcc/pic32c/6.2.1/../../../../pic32c/lib\libc.a(lib_a-strcpy.o)
                              build/default/production/_ext/1360937237/at_engine.o (strcpy)
c:/program files (x86)/microchip/xc32/v2.30/bin/bin/../../lib/gcc/pic32c/6.2.1/../../../../pic32c/lib\libc.a(lib_a-strlen.o)
                              build/default/production/_ext/1360937237/at_engine.o (strlen)
c:/program files (x86)/microchip/xc32/v2.30/bin/bin/../../lib/gcc/pic32c/6.2.1/../../../../pic32c/lib\libc.a(lib_a-strncpy.o)
                              build/default/production/_ext/1360937237/gsm_gps.o (strncpy)
c:/program files (x86)/microchip/xc32/v2.30/bin/bin/../../lib/gcc/pic32c/6.2.1/../../../../pic32c/lib\libc.a(lib_a-strstr.o)
                              build/default/production/_ext/1360937237/at_engine.o (strstr)
c:/program files (x86)/microchip/xc32/v2.30/bin/bin/../../lib/gcc/pic32c/6.2.1/../../../../pic32c/lib\libc.a(lib_a-strtod.o)
                              c:/program files (x86)/microchip/xc32/v2.30/bin/bin/../../lib/gcc/pic32c/6.2.1/../../../../pic32c/lib\libc.a(lib_a-atof.o) (strtod)
c:/program files (x86)/microchip/xc32/v2.30/bin/bin/../../lib/gcc/pic32c/6.2.1/../../../../pic32c/lib\libc.a(lib_a-strtok.o)
                              build/default/production/_ext/1360937237/at_engine.o (strtok)
c:/program files (x86)/microchip/xc32/v2.30/bin/bin/../../lib/gcc/pic32c/6.2.1/../../../../pic32c/lib\libc.a(lib_a-strtok_r.o)
                              c:/program files (x86)/microchip/xc32/v2.30/bin/bin/../../lib/gcc/pic32c/6.2.1/../../../../pic32c/lib\libc.a(lib_a-strtok.o) (__strtok_r)
c:/program files (x86)/microchip/xc32/v2.30/bin/bin/../../lib/gcc/pic32c/6.2.1/../../../../pic32c/lib\libc.a(lib_a-strtol.o)
                              c:/program files (x86)/microchip/xc32/v2.30/bin/bin/../../lib/gcc/pic32c/6.2.1/../../../../pic32c/lib\libc.a(lib_a-atol.o) (_strtol_r)
c:/program files (x86)/microchip/xc32/v2.30/bin/bin/../../lib/gcc/pic32c/6.2.1/../../../../pic32c/lib\libc.a(lib_a-svfprintf.o)
                              c:/program files (x86)/microchip/xc32/v2.30/bin/bin/../../lib/gcc/pic32c/6.2.1/../../../../pic32c/lib\libc.a(lib_a-sprintf.o) (_svfprintf_r)
c:/program files (x86)/microchip/xc32/v2.30/bin/bin/../../lib/gcc/pic32c/6.2.1/../../../../pic32c/lib\libc.a(lib_a-vfprintf.o)
                              c:/program files (x86)/microchip/xc32/v2.30/bin/bin/../../lib/gcc/pic32c/6.2.1/../../../../pic32c/lib\libc.a(lib_a-printf.o) (_vfprintf_r)
c:/program files (x86)/microchip/xc32/v2.30/bin/bin/../../lib/gcc/pic32c/6.2.1/../../../../pic32c/lib\libc.a(lib_a-wsetup.o)
                              c:/program files (x86)/microchip/xc32/v2.30/bin/bin/../../lib/gcc/pic32c/6.2.1/../../../../pic32c/lib\libc.a(lib_a-vfprintf.o) (__swsetup_r)
c:/program files (x86)/microchip/xc32/v2.30/bin/bin/../../lib/gcc/pic32c/6.2.1/../../../../pic32c/lib\libc.a(lib_a-dtoa.o)
                              c:/program files (x86)/microchip/xc32/v2.30/bin/bin/../../lib/gcc/pic32c/6.2.1/../../../../pic32c/lib\libc.a(lib_a-svfprintf.o) (_dtoa_r)
c:/program files (x86)/microchip/xc32/v2.30/bin/bin/../../lib/gcc/pic32c/6.2.1/../../../../pic32c/lib\libc.a(lib_a-fflush.o)
                              c:/program files (x86)/microchip/xc32/v2.30/bin/bin/../../lib/gcc/pic32c/6.2.1/../../../../pic32c/lib\libc.a(lib_a-setvbuf.o) (_fflush_r)
c:/program files (x86)/microchip/xc32/v2.30/bin/bin/../../lib/gcc/pic32c/6.2.1/../../../../pic32c/lib\libc.a(lib_a-findfp.o)
                              c:/program files (x86)/microchip/xc32/v2.30/bin/bin/../../lib/gcc/pic32c/6.2.1/../../../../pic32c/lib\libc.a(lib_a-puts.o) (__sinit)
c:/program files (x86)/microchip/xc32/v2.30/bin/bin/../../lib/gcc/pic32c/6.2.1/../../../../pic32c/lib\libc.a(lib_a-freer.o)
                              c:/program files (x86)/microchip/xc32/v2.30/bin/bin/../../lib/gcc/pic32c/6.2.1/../../../../pic32c/lib\libc.a(lib_a-setvbuf.o) (_free_r)
c:/program files (x86)/microchip/xc32/v2.30/bin/bin/../../lib/gcc/pic32c/6.2.1/../../../../pic32c/lib\libc.a(lib_a-fvwrite.o)
                              c:/program files (x86)/microchip/xc32/v2.30/bin/bin/../../lib/gcc/pic32c/6.2.1/../../../../pic32c/lib\libc.a(lib_a-puts.o) (__sfvwrite_r)
c:/program files (x86)/microchip/xc32/v2.30/bin/bin/../../lib/gcc/pic32c/6.2.1/../../../../pic32c/lib\libc.a(lib_a-fwalk.o)
                              c:/program files (x86)/microchip/xc32/v2.30/bin/bin/../../lib/gcc/pic32c/6.2.1/../../../../pic32c/lib\libc.a(lib_a-fflush.o) (_fwalk_reent)
c:/program files (x86)/microchip/xc32/v2.30/bin/bin/../../lib/gcc/pic32c/6.2.1/../../../../pic32c/lib\libc.a(lib_a-gdtoa-gethex.o)
                              c:/program files (x86)/microchip/xc32/v2.30/bin/bin/../../lib/gcc/pic32c/6.2.1/../../../../pic32c/lib\libc.a(lib_a-strtod.o) (__gethex)
c:/program files (x86)/microchip/xc32/v2.30/bin/bin/../../lib/gcc/pic32c/6.2.1/../../../../pic32c/lib\libc.a(lib_a-gdtoa-hexnan.o)
                              c:/program files (x86)/microchip/xc32/v2.30/bin/bin/../../lib/gcc/pic32c/6.2.1/../../../../pic32c/lib\libc.a(lib_a-strtod.o) (__match)
c:/program files (x86)/microchip/xc32/v2.30/bin/bin/../../lib/gcc/pic32c/6.2.1/../../../../pic32c/lib\libc.a(lib_a-localeconv.o)
                              c:/program files (x86)/microchip/xc32/v2.30/bin/bin/../../lib/gcc/pic32c/6.2.1/../../../../pic32c/lib\libc.a(lib_a-strtod.o) (__localeconv_l)
c:/program files (x86)/microchip/xc32/v2.30/bin/bin/../../lib/gcc/pic32c/6.2.1/../../../../pic32c/lib\libc.a(lib_a-locale.o)
                              c:/program files (x86)/microchip/xc32/v2.30/bin/bin/../../lib/gcc/pic32c/6.2.1/../../../../pic32c/lib\libc.a(lib_a-strtol.o) (__locale_ctype_ptr_l)
c:/program files (x86)/microchip/xc32/v2.30/bin/bin/../../lib/gcc/pic32c/6.2.1/../../../../pic32c/lib\libc.a(lib_a-makebuf.o)
                              c:/program files (x86)/microchip/xc32/v2.30/bin/bin/../../lib/gcc/pic32c/6.2.1/../../../../pic32c/lib\libc.a(lib_a-setvbuf.o) (__swhatbuf_r)
c:/program files (x86)/microchip/xc32/v2.30/bin/bin/../../lib/gcc/pic32c/6.2.1/../../../../pic32c/lib\libc.a(lib_a-malloc.o)
                              c:/program files (x86)/microchip/xc32/v2.30/bin/bin/../../lib/gcc/pic32c/6.2.1/../../../../pic32c/lib\libc.a(lib_a-setvbuf.o) (malloc)
c:/program files (x86)/microchip/xc32/v2.30/bin/bin/../../lib/gcc/pic32c/6.2.1/../../../../pic32c/lib\libc.a(lib_a-mallocr.o)
                              c:/program files (x86)/microchip/xc32/v2.30/bin/bin/../../lib/gcc/pic32c/6.2.1/../../../../pic32c/lib\libc.a(lib_a-svfprintf.o) (_malloc_r)
c:/program files (x86)/microchip/xc32/v2.30/bin/bin/../../lib/gcc/pic32c/6.2.1/../../../../pic32c/lib\libc.a(lib_a-mbtowc_r.o)
                              c:/program files (x86)/microchip/xc32/v2.30/bin/bin/../../lib/gcc/pic32c/6.2.1/../../../../pic32c/lib\libc.a(lib_a-locale.o) (__ascii_mbtowc)
c:/program files (x86)/microchip/xc32/v2.30/bin/bin/../../lib/gcc/pic32c/6.2.1/../../../../pic32c/lib\libc.a(lib_a-memchr-stub.o)
                              c:/program files (x86)/microchip/xc32/v2.30/bin/bin/../../lib/gcc/pic32c/6.2.1/../../../../pic32c/lib\libc.a(lib_a-svfprintf.o) (memchr)
c:/program files (x86)/microchip/xc32/v2.30/bin/bin/../../lib/gcc/pic32c/6.2.1/../../../../pic32c/lib\libc.a(lib_a-memmove.o)
                              c:/program files (x86)/microchip/xc32/v2.30/bin/bin/../../lib/gcc/pic32c/6.2.1/../../../../pic32c/lib\libc.a(lib_a-fvwrite.o) (memmove)
c:/program files (x86)/microchip/xc32/v2.30/bin/bin/../../lib/gcc/pic32c/6.2.1/../../../../pic32c/lib\libc.a(lib_a-mlock.o)
                              c:/program files (x86)/microchip/xc32/v2.30/bin/bin/../../lib/gcc/pic32c/6.2.1/../../../../pic32c/lib\libc.a(lib_a-freer.o) (__malloc_lock)
c:/program files (x86)/microchip/xc32/v2.30/bin/bin/../../lib/gcc/pic32c/6.2.1/../../../../pic32c/lib\libc.a(lib_a-mprec.o)
                              c:/program files (x86)/microchip/xc32/v2.30/bin/bin/../../lib/gcc/pic32c/6.2.1/../../../../pic32c/lib\libc.a(lib_a-strtod.o) (_Balloc)
c:/program files (x86)/microchip/xc32/v2.30/bin/bin/../../lib/gcc/pic32c/6.2.1/../../../../pic32c/lib\libc.a(lib_a-reallocr.o)
                              c:/program files (x86)/microchip/xc32/v2.30/bin/bin/../../lib/gcc/pic32c/6.2.1/../../../../pic32c/lib\libc.a(lib_a-fvwrite.o) (_realloc_r)
c:/program files (x86)/microchip/xc32/v2.30/bin/bin/../../lib/gcc/pic32c/6.2.1/../../../../pic32c/lib\libc.a(lib_a-sbrkr.o)
                              c:/program files (x86)/microchip/xc32/v2.30/bin/bin/../../lib/gcc/pic32c/6.2.1/../../../../pic32c/lib\libc.a(lib_a-freer.o) (_sbrk_r)
c:/program files (x86)/microchip/xc32/v2.30/bin/bin/../../lib/gcc/pic32c/6.2.1/../../../../pic32c/lib\libc.a(lib_a-sf_nan.o)
                              c:/program files (x86)/microchip/xc32/v2.30/bin/bin/../../lib/gcc/pic32c/6.2.1/../../../../pic32c/lib\libc.a(lib_a-strtod.o) (nanf)
c:/program files (x86)/microchip/xc32/v2.30/bin/bin/../../lib/gcc/pic32c/6.2.1/../../../../pic32c/lib\libc.a(lib_a-s_frexp.o)
                              c:/program files (x86)/microchip/xc32/v2.30/bin/bin/../../lib/gcc/pic32c/6.2.1/../../../../pic32c/lib\libc.a(lib_a-svfprintf.o) (frexp)
c:/program files (x86)/microchip/xc32/v2.30/bin/bin/../../lib/gcc/pic32c/6.2.1/../../../../pic32c/lib\libc.a(lib_a-stdio.o)
                              c:/program files (x86)/microchip/xc32/v2.30/bin/bin/../../lib/gcc/pic32c/6.2.1/../../../../pic32c/lib\libc.a(lib_a-findfp.o) (__sread)
c:/program files (x86)/microchip/xc32/v2.30/bin/bin/../../lib/gcc/pic32c/6.2.1/../../../../pic32c/lib\libc.a(lib_a-strncmp.o)
                              c:/program files (x86)/microchip/xc32/v2.30/bin/bin/../../lib/gcc/pic32c/6.2.1/../../../../pic32c/lib\libc.a(lib_a-strtod.o) (strncmp)
c:/program files (x86)/microchip/xc32/v2.30/bin/bin/../../lib/gcc/pic32c/6.2.1/../../../../pic32c/lib\libc.a(lib_a-svfiprintf.o)
                              c:/program files (x86)/microchip/xc32/v2.30/bin/bin/../../lib/gcc/pic32c/6.2.1/../../../../pic32c/lib\libc.a(lib_a-svfprintf.o) (__ssprint_r)
c:/program files (x86)/microchip/xc32/v2.30/bin/bin/../../lib/gcc/pic32c/6.2.1/../../../../pic32c/lib\libc.a(lib_a-vfiprintf.o)
                              c:/program files (x86)/microchip/xc32/v2.30/bin/bin/../../lib/gcc/pic32c/6.2.1/../../../../pic32c/lib\libc.a(lib_a-vfprintf.o) (__sprint_r)
c:/program files (x86)/microchip/xc32/v2.30/bin/bin/../../lib/gcc/pic32c/6.2.1/../../../../pic32c/lib\libc.a(lib_a-wctomb_r.o)
                              c:/program files (x86)/microchip/xc32/v2.30/bin/bin/../../lib/gcc/pic32c/6.2.1/../../../../pic32c/lib\libc.a(lib_a-locale.o) (__ascii_wctomb)
c:/program files (x86)/microchip/xc32/v2.30/bin/bin/../../lib/gcc/pic32c/6.2.1/../../../../pic32c/lib\libc.a(lib_a-writer.o)
                              c:/program files (x86)/microchip/xc32/v2.30/bin/bin/../../lib/gcc/pic32c/6.2.1/../../../../pic32c/lib\libc.a(lib_a-stdio.o) (_write_r)
c:/program files (x86)/microchip/xc32/v2.30/bin/bin/../../lib/gcc/pic32c/6.2.1/../../../../pic32c/lib\libc.a(lib_a-callocr.o)
                              c:/program files (x86)/microchip/xc32/v2.30/bin/bin/../../lib/gcc/pic32c/6.2.1/../../../../pic32c/lib\libc.a(lib_a-mprec.o) (_calloc_r)
c:/program files (x86)/microchip/xc32/v2.30/bin/bin/../../lib/gcc/pic32c/6.2.1/../../../../pic32c/lib\libc.a(lib_a-closer.o)
                              c:/program files (x86)/microchip/xc32/v2.30/bin/bin/../../lib/gcc/pic32c/6.2.1/../../../../pic32c/lib\libc.a(lib_a-stdio.o) (_close_r)
c:/program files (x86)/microchip/xc32/v2.30/bin/bin/../../lib/gcc/pic32c/6.2.1/../../../../pic32c/lib\libc.a(lib_a-ctype_.o)
                              c:/program files (x86)/microchip/xc32/v2.30/bin/bin/../../lib/gcc/pic32c/6.2.1/../../../../pic32c/lib\libc.a(lib_a-locale.o) (_ctype_)
c:/program files (x86)/microchip/xc32/v2.30/bin/bin/../../lib/gcc/pic32c/6.2.1/../../../../pic32c/lib\libc.a(lib_a-fclose.o)
                              c:/program files (x86)/microchip/xc32/v2.30/bin/bin/../../lib/gcc/pic32c/6.2.1/../../../../pic32c/lib\libc.a(lib_a-findfp.o) (_fclose_r)
c:/program files (x86)/microchip/xc32/v2.30/bin/bin/../../lib/gcc/pic32c/6.2.1/../../../../pic32c/lib\libc.a(lib_a-fputwc.o)
                              c:/program files (x86)/microchip/xc32/v2.30/bin/bin/../../lib/gcc/pic32c/6.2.1/../../../../pic32c/lib\libc.a(lib_a-vfiprintf.o) (_fputwc_r)
c:/program files (x86)/microchip/xc32/v2.30/bin/bin/../../lib/gcc/pic32c/6.2.1/../../../../pic32c/lib\libc.a(lib_a-fstatr.o)
                              c:/program files (x86)/microchip/xc32/v2.30/bin/bin/../../lib/gcc/pic32c/6.2.1/../../../../pic32c/lib\libc.a(lib_a-makebuf.o) (_fstat_r)
c:/program files (x86)/microchip/xc32/v2.30/bin/bin/../../lib/gcc/pic32c/6.2.1/../../../../pic32c/lib\libc.a(lib_a-isattyr.o)
                              c:/program files (x86)/microchip/xc32/v2.30/bin/bin/../../lib/gcc/pic32c/6.2.1/../../../../pic32c/lib\libc.a(lib_a-makebuf.o) (_isatty_r)
c:/program files (x86)/microchip/xc32/v2.30/bin/bin/../../lib/gcc/pic32c/6.2.1/../../../../pic32c/lib\libc.a(lib_a-lseekr.o)
                              c:/program files (x86)/microchip/xc32/v2.30/bin/bin/../../lib/gcc/pic32c/6.2.1/../../../../pic32c/lib\libc.a(lib_a-stdio.o) (_lseek_r)
c:/program files (x86)/microchip/xc32/v2.30/bin/bin/../../lib/gcc/pic32c/6.2.1/../../../../pic32c/lib\libc.a(lib_a-readr.o)
                              c:/program files (x86)/microchip/xc32/v2.30/bin/bin/../../lib/gcc/pic32c/6.2.1/../../../../pic32c/lib\libc.a(lib_a-stdio.o) (_read_r)
c:/program files (x86)/microchip/xc32/v2.30/bin/bin/../../lib/gcc/pic32c/6.2.1/../../../../pic32c/lib\libc.a(lib_a-reent.o)
                              c:/program files (x86)/microchip/xc32/v2.30/bin/bin/../../lib/gcc/pic32c/6.2.1/../../../../pic32c/lib\libc.a(lib_a-sbrkr.o) (errno)
c:/program files (x86)/microchip/xc32/v2.30/bin/bin/../../lib/gcc/pic32c/6.2.1/../../../../pic32c/lib\libc.a(lib_a-wbuf.o)
                              c:/program files (x86)/microchip/xc32/v2.30/bin/bin/../../lib/gcc/pic32c/6.2.1/../../../../pic32c/lib\libc.a(lib_a-fputwc.o) (__swbuf_r)
c:/program files (x86)/microchip/xc32/v2.30/bin/bin/../../lib/gcc/pic32c/6.2.1/../../../../pic32c/lib\libc.a(lib_a-wcrtomb.o)
                              c:/program files (x86)/microchip/xc32/v2.30/bin/bin/../../lib/gcc/pic32c/6.2.1/../../../../pic32c/lib\libc.a(lib_a-fputwc.o) (_wcrtomb_r)
c:/program files (x86)/microchip/xc32/v2.30/bin/bin/../../lib/gcc/pic32c/6.2.1/../../../../pic32c/lib\libpic32c.a(_close.o)
                              c:/program files (x86)/microchip/xc32/v2.30/bin/bin/../../lib/gcc/pic32c/6.2.1/../../../../pic32c/lib\libc.a(lib_a-closer.o) (_close)
c:/program files (x86)/microchip/xc32/v2.30/bin/bin/../../lib/gcc/pic32c/6.2.1/../../../../pic32c/lib\libpic32c.a(_fstat.o)
                              c:/program files (x86)/microchip/xc32/v2.30/bin/bin/../../lib/gcc/pic32c/6.2.1/../../../../pic32c/lib\libc.a(lib_a-fstatr.o) (_fstat)
c:/program files (x86)/microchip/xc32/v2.30/bin/bin/../../lib/gcc/pic32c/6.2.1/../../../../pic32c/lib\libpic32c.a(_isatty.o)
                              c:/program files (x86)/microchip/xc32/v2.30/bin/bin/../../lib/gcc/pic32c/6.2.1/../../../../pic32c/lib\libc.a(lib_a-isattyr.o) (_isatty)
c:/program files (x86)/microchip/xc32/v2.30/bin/bin/../../lib/gcc/pic32c/6.2.1/../../../../pic32c/lib\libpic32c.a(_lseek.o)
                              c:/program files (x86)/microchip/xc32/v2.30/bin/bin/../../lib/gcc/pic32c/6.2.1/../../../../pic32c/lib\libc.a(lib_a-lseekr.o) (_lseek)
c:/program files (x86)/microchip/xc32/v2.30/bin/bin/../../lib/gcc/pic32c/6.2.1/../../../../pic32c/lib\libpic32c.a(_read.o)
                              c:/program files (x86)/microchip/xc32/v2.30/bin/bin/../../lib/gcc/pic32c/6.2.1/../../../../pic32c/lib\libc.a(lib_a-readr.o) (_read)
c:/program files (x86)/microchip/xc32/v2.30/bin/bin/../../lib/gcc/pic32c/6.2.1/../../../../pic32c/lib\libpic32c.a(sbrk.o)
                              c:/program files (x86)/microchip/xc32/v2.30/bin/bin/../../lib/gcc/pic32c/6.2.1/../../../../pic32c/lib\libc.a(lib_a-sbrkr.o) (_sbrk)
c:/program files (x86)/microchip/xc32/v2.30/bin/bin/../../lib/gcc/pic32c/6.2.1/../../../../pic32c/lib\libpic32c.a(_write.o)
                              c:/program files (x86)/microchip/xc32/v2.30/bin/bin/../../lib/gcc/pic32c/6.2.1/../../../../pic32c/lib\libc.a(lib_a-writer.o) (_write)
c:/program files (x86)/microchip/xc32/v2.30/bin/bin/../../lib/gcc/pic32c/6.2.1/../../../../pic32c/lib\libpic32c.a(close.o)
                              c:/program files (x86)/microchip/xc32/v2.30/bin/bin/../../lib/gcc/pic32c/6.2.1/../../../../pic32c/lib\libpic32c.a(_close.o) (close)
c:/program files (x86)/microchip/xc32/v2.30/bin/bin/../../lib/gcc/pic32c/6.2.1/../../../../pic32c/lib\libpic32c.a(fstat.o)
                              c:/program files (x86)/microchip/xc32/v2.30/bin/bin/../../lib/gcc/pic32c/6.2.1/../../../../pic32c/lib\libpic32c.a(_fstat.o) (fstat)
c:/program files (x86)/microchip/xc32/v2.30/bin/bin/../../lib/gcc/pic32c/6.2.1/../../../../pic32c/lib\libpic32c.a(isatty.o)
                              c:/program files (x86)/microchip/xc32/v2.30/bin/bin/../../lib/gcc/pic32c/6.2.1/../../../../pic32c/lib\libpic32c.a(_isatty.o) (isatty)
c:/program files (x86)/microchip/xc32/v2.30/bin/bin/../../lib/gcc/pic32c/6.2.1/../../../../pic32c/lib\libpic32c.a(lseek.o)
                              c:/program files (x86)/microchip/xc32/v2.30/bin/bin/../../lib/gcc/pic32c/6.2.1/../../../../pic32c/lib\libpic32c.a(_lseek.o) (lseek)
c:/program files (x86)/microchip/xc32/v2.30/bin/bin/../../lib/gcc/pic32c/6.2.1/../../../../pic32c/lib\libpic32c.a(read.o)
                              c:/program files (x86)/microchip/xc32/v2.30/bin/bin/../../lib/gcc/pic32c/6.2.1/../../../../pic32c/lib\libpic32c.a(_read.o) (read)
c:/program files (x86)/microchip/xc32/v2.30/bin/bin/../../lib/gcc/pic32c/6.2.1/../../../../pic32c/lib\libpic32c.a(write.o)
                              c:/program files (x86)/microchip/xc32/v2.30/bin/bin/../../lib/gcc/pic32c/6.2.1/../../../../pic32c/lib\libpic32c.a(_write.o) (write)
c:/program files (x86)/microchip/xc32/v2.30/bin/bin/../../lib/gcc/pic32c/6.2.1\libgcc.a(unorddf2.o)
                              c:/program files (x86)/microchip/xc32/v2.30/bin/bin/../../lib/gcc/pic32c/6.2.1/../../../../pic32c/lib\libc.a(lib_a-strtod.o) (__aeabi_dcmpun)

Allocating common symbols
Common symbol       size              file

u32_loopcnt         0x4               build/default/production/_ext/1360937237/app4.o
rx_FEEE             0x8               build/default/production/_ext/1360937237/app4.o
alarm_triggered     0x1               build/default/production/_ext/1360937237/app.o
flt_CANHydoiltemp   0x4               build/default/production/_ext/1360937237/app4.o
gps_CourseOverGround
                    0x14              build/default/production/_ext/163028504/xc32_monitor.o
u8_atcmd_status     0x1               build/default/production/_ext/1360937237/gsm_gps.o
p                   0x4               build/default/production/_ext/1360937237/dev_hal.o
u16_CANHydoilfilterclogged
                    0x2               build/default/production/_ext/1360937237/app4.o
sys_time            0x24              build/default/production/_ext/1360937237/app.o
flt_CANEngineLuboilpressure_bar
                    0x4               build/default/production/_ext/1360937237/app4.o
rx_message          0x8               build/default/production/_ext/1360937237/app4.o
ipaddrbuf           0x14              build/default/production/_ext/1360937237/at_engine.o
errno               0x4               c:/program files (x86)/microchip/xc32/v2.30/bin/bin/../../lib/gcc/pic32c/6.2.1/../../../../pic32c/lib\libc.a(lib_a-reent.o)
flt_CANEnginetotalhourofoperation
                    0x4               build/default/production/_ext/1360937237/app4.o
vcl_p6              0x14              build/default/production/_ext/163028504/xc32_monitor.o
gps_UTCTime         0x14              build/default/production/_ext/163028504/xc32_monitor.o
Can0MessageRAM      0x60              build/default/production/_ext/1360937237/app4.o
u16_CANHydoillevel  0x2               build/default/production/_ext/1360937237/app4.o
gps_tempUTCTime     0x14              build/default/production/_ext/1360937237/app.o
alarm_time          0x24              build/default/production/_ext/1360937237/app.o
flt_CANEngineRPM    0x4               build/default/production/_ext/1360937237/app4.o
flt_CANBatteryVoltage
                    0x4               build/default/production/_ext/1360937237/app4.o
vcl_p7              0x14              build/default/production/_ext/163028504/xc32_monitor.o
freshdatamemloc2    0x8               build/default/production/_ext/163028504/xc32_monitor.o
logrdata            0x58              build/default/production/_ext/163028504/xc32_monitor.o
length              0x1               build/default/production/_ext/1360937237/app4.o
smrvalue            0x8               build/default/production/_ext/163028504/xc32_monitor.o
u16_CANAirfilterclogged
                    0x2               build/default/production/_ext/1360937237/app4.o
gps_tempUTCdate     0x14              build/default/production/_ext/1360937237/app.o
temp_ptr1           0x4               build/default/production/_ext/1360937237/at_engine.o
wnewmemloc          0x8               build/default/production/_ext/163028504/xc32_monitor.o
rx_F004             0x8               build/default/production/_ext/1360937237/app4.o
flt_CANLuboiltemp   0x4               build/default/production/_ext/1360937237/app4.o
gps_pasttempUTCTime
                    0x14              build/default/production/_ext/1360937237/app.o
logwdata            0x58              build/default/production/_ext/163028504/xc32_monitor.o
paratypebuf         0xa               build/default/production/_ext/1360937237/at_engine.o
message             0x8               build/default/production/_ext/1360937237/app4.o
slnobuf             0x14              build/default/production/_ext/1360937237/at_engine.o
gps_Status          0x14              build/default/production/_ext/163028504/xc32_monitor.o
vcl_p4              0x14              build/default/production/_ext/163028504/xc32_monitor.o
flt_CANEngineLuboilpressure
                    0x4               build/default/production/_ext/1360937237/app4.o
gpsrxChar           0x1               build/default/production/_ext/1360937237/app2.o
app3Data            0x1               build/default/production/_ext/1360937237/app3.o
rx_buffer           0x7e8             build/default/production/_ext/1360937237/at_engine.o
rnewmemloc          0x8               build/default/production/_ext/163028504/xc32_monitor.o
appData             0x404             build/default/production/_ext/1360937237/app.o
tx_buffer           0x7e8             build/default/production/_ext/1360937237/at_engine.o
block_protection_18
                    0x48              build/default/production/_ext/1360937237/app3.o
tempcheck           0x1               build/default/production/_ext/1360937237/app3.o
flagbit             0x8               build/default/production/_ext/163028504/xc32_monitor.o
check               0x1               build/default/production/_ext/1360937237/app3.o
rmaxmemloc          0x8               build/default/production/_ext/163028504/xc32_monitor.o
wmaxmemloc          0x8               build/default/production/_ext/163028504/xc32_monitor.o
rxChar              0x1               build/default/production/_ext/1360937237/app.o
passwordbuf         0xa               build/default/production/_ext/1360937237/at_engine.o
sysObj              0x8               build/default/production/_ext/1171490990/initialization.o
gps_SpeedOverGround
                    0x14              build/default/production/_ext/163028504/xc32_monitor.o
freshdatamemloc1    0x8               build/default/production/_ext/163028504/xc32_monitor.o
flt_CANfuallevel    0x4               build/default/production/_ext/1360937237/app4.o
guchr_validedata    0x1               build/default/production/_ext/1360937237/app2.o
rx_FEF7             0x8               build/default/production/_ext/1360937237/app4.o
vcl_p1              0x14              build/default/production/_ext/163028504/xc32_monitor.o
gps_Latitude        0x14              build/default/production/_ext/163028504/xc32_monitor.o
response_f          0x1               build/default/production/_ext/1360937237/at_engine.o
pt1                 0x4               build/default/production/_ext/163028504/xc32_monitor.o
gps_EWIndicator     0x14              build/default/production/_ext/163028504/xc32_monitor.o
flt_CANEngineLuboilpressure_kgpcmsq
                    0x4               build/default/production/_ext/1360937237/app4.o
timeout_f           0x1               build/default/production/_ext/1360937237/at_engine.o
u16_tempint         0x2               build/default/production/_ext/1360937237/app4.o
u16_CANSeatBelt     0x2               build/default/production/_ext/1360937237/app4.o
guchr_temp1         0x1               build/default/production/_ext/1360937237/app2.o
rrecomemloc         0x8               build/default/production/_ext/163028504/xc32_monitor.o
gps_Latitude_dec    0x14              build/default/production/_ext/163028504/xc32_monitor.o
flashtxData         0x29              build/default/production/_ext/163028504/xc32_monitor.o
rx_E000             0x8               build/default/production/_ext/1360937237/app4.o
apnbuf              0x14              build/default/production/_ext/1360937237/at_engine.o
vcl_p3              0x14              build/default/production/_ext/163028504/xc32_monitor.o
gps_NSIndicator     0x14              build/default/production/_ext/163028504/xc32_monitor.o
rx_FE68             0x8               build/default/production/_ext/1360937237/app4.o
exception_f         0x1               build/default/production/_ext/1360937237/at_engine.o
vcl_p5              0x14              build/default/production/_ext/163028504/xc32_monitor.o
cue_f               0x1               build/default/production/_ext/1360937237/at_engine.o
flt_CANEngineCoolantTemperature
                    0x4               build/default/production/_ext/1360937237/app4.o
ch_gps_Status       0x14              build/default/production/_ext/163028504/xc32_monitor.o
app2Data            0x408             build/default/production/_ext/1360937237/app2.o
rx_FEE5             0x8               build/default/production/_ext/1360937237/app4.o
rx_FEEF             0x8               build/default/production/_ext/1360937237/app4.o
rx_FEFC             0x8               build/default/production/_ext/1360937237/app4.o
rx_FD07             0x8               build/default/production/_ext/1360937237/app4.o
u16_tempflt         0x2               build/default/production/_ext/1360937237/app4.o
flashrxData         0x29              build/default/production/_ext/163028504/xc32_monitor.o
wrecomemloc         0x8               build/default/production/_ext/163028504/xc32_monitor.o
status              0x1               build/default/production/_ext/1360937237/app3.o
gps_Longitude_dec   0x14              build/default/production/_ext/163028504/xc32_monitor.o
app4Data            0x1               build/default/production/_ext/1360937237/app4.o
wyet2sendmemloc     0x8               build/default/production/_ext/163028504/xc32_monitor.o
vcl_p2              0x14              build/default/production/_ext/163028504/xc32_monitor.o
ryet2sendmemloc     0x8               build/default/production/_ext/163028504/xc32_monitor.o
gps_Date            0x14              build/default/production/_ext/163028504/xc32_monitor.o
gps_Longitude       0x14              build/default/production/_ext/163028504/xc32_monitor.o

Microchip PIC32 Memory-Usage Report

ROM Program-Memory Usage
section                    address  length [bytes]      (dec)  Description
-------                 ----------  -------------------------  -----------
.vectors                         0           0xbc         188   
.text                         0xbc           0x20          32  App's exec code 
.ARM.exidx                    0xdc            0x8           8   
.text._vfprintf_r             0xe4         0x1574        5492   
.text._svfprintf_r          0x1658         0x1528        5416   
.dinit                      0x2b80         0x10d0        4304   
.text.mydata_sendiot_on     0x3c50         0x1084        4228   
.text._strtod_l             0x4cd4          0xc0c        3084   
.text._dtoa_r               0x58e0          0xbc8        3016   
.text.can_recdata           0x64a8          0x7d8        2008   
.text                       0x6c80          0x5b0        1456  App's exec code 
.rodata                     0x7230          0x5a0        1440  Read-only const 
.text                       0x77d0          0xae4        2788  App's exec code 
.text.loadgpsdata           0x82b4          0x4e4        1252   
.text.savelivedatatotem     0x8798          0x4d0        1232   
.text.savelivedatatotem     0x8c68          0x4a4        1188   
.rodata                     0x910c          0x464        1124  Read-only const 
.text.__gethex              0x9570          0x44e        1102   
.text.EVSYS_Initialize      0x99be            0x2           2   
.text                       0x99c0          0x424        1060  App's exec code 
.text.myat_cmd3             0x9de4          0x408        1032   
.text._malloc_r             0xa1ec          0x3ec        1004   
.rodata                     0xa5d8          0x3a0         928  Read-only const 
.text.myatSIstaus_cmd       0xa978          0x39c         924   
.text.myat_cmd              0xad14          0x38c         908   
.text._realloc_r            0xb0a0          0x2f8         760   
.text                       0xb398          0x5d8        1496  App's exec code 
.text.APP3_Tasks            0xb970          0x2d4         724   
.rodata                     0xbc44          0x2b0         688  Read-only const 
.text.__sfvwrite_r          0xbef4          0x2ac         684   
.text.gsm_gps_init          0xc1a0          0x274         628   
.text.APP_Tasks             0xc414          0x264         612   
.text.dev_rx                0xc678          0x22c         556   
.text.myat_cmd2             0xc8a4          0x214         532   
.text.loadmemorydata        0xcab8          0x210         528   
.text.timeout_handler       0xccc8          0x20c         524   
.text.loadlivedata1         0xced4          0x1f8         504   
.text.loadlivedata2         0xd0cc          0x1f8         504   
.text.candata_filter        0xd2c4          0x1f4         500   
.text.print_message         0xd4b8          0x1e8         488   
.text.TC0_Callback_Inte     0xd6a0          0x1d4         468   
.text.SERCOM0_SPI_Write     0xd874          0x1cc         460   
.text                       0xda40          0x1c0         448  App's exec code 
.text.saveunsenddata1       0xdc00          0x1ac         428   
.text.saveunsenddata2       0xddac          0x1ac         428   
.text.at_parse              0xdf58          0x19c         412   
.text.SERCOM3_USART_Int     0xe0f4          0x180         384   
.text.SERCOM2_USART_Int     0xe274          0x180         384   
.text._DRV_USART_Buffer     0xe3f4          0x174         372   
.text._free_r               0xe568          0x168         360   
.text.CLOCK_Initialize      0xe6d0          0x154         340   
.text.DRV_USART_Open        0xe824          0x14c         332   
.text.setvbuf               0xe970          0x140         320   
.text.__sflush_r            0xeab0          0x130         304   
.text.__hexnan              0xebe0          0x12e         302   
.text.Dummy_Handler         0xed0e            0x2           2   
.text.SERCOM3_USART_Ser     0xed10          0x12c         300   
.text.SERCOM2_USART_Ser     0xee3c          0x12c         300   
.text.__multiply            0xef68          0x11e         286   
.text.NonMaskableInt_Ha     0xf086            0x2           2   
.text._APP2_UART_Receiv     0xf088          0x114         276   
.text._strtol_l.isra.0      0xf19c          0x10c         268   
.text.quorem                0xf2a8          0x108         264   
.rodata._ctype_             0xf3b0          0x101         257   
.text.DRV_USART_BufferS     0xf4b2           0x4e          78   
.rodata.nvm_user_start_     0xf500          0x100         256   
.text                       0xf600          0x100         256  App's exec code 
.text.__ssprint_r           0xf700           0xfc         252   
.text._DRV_USART_Buffer     0xf7fc           0xec         236   
.text                       0xf8e8           0xe2         226  App's exec code 
.text.HardFault_Handler     0xf9ca            0x2           2   
.text.gps_evn_location      0xf9cc           0xdc         220   
.text.APP4_Tasks            0xfaa8           0xdc         220   
.text.CAN0_MessageRecei     0xfb84           0xd8         216   
.text.__mdiff               0xfc5c           0xc8         200   
.text                       0xfd24            0x4           4  App's exec code 
.rodata.__mprec_tens        0xfd28           0xc8         200   
.text.__swsetup_r           0xfdf0           0xc4         196   
.text                       0xfeb4           0xb0         176  App's exec code 
.text.CAN0_MessageRAMCo     0xff64           0xac         172   
.text                      0x10010           0xa8         168  App's exec code 
.text.__d2b                0x100b8           0xa8         168   
.text.PORT_Initialize      0x10160           0xa4         164   
.text.__swbuf_r            0x10204           0xa4         164   
.text.__lshift             0x102a8           0xa2         162   
.text.Dummy_App_Func       0x1034a            0x2           2   
.text.CAN0_InterruptHan    0x1034c           0xa0         160   
.text.NVIC_Initialize      0x103ec           0xa0         160   
.text.at_process           0x1048c           0xa0         160   
.text                      0x1052c           0xa0         160  App's exec code 
.text.DRV_USART_Initial    0x105cc           0x9c         156   
.text.SYS_Initialize       0x10668           0x9c         156   
.text                      0x10704           0x98         152  App's exec code 
.text.__b2d                0x1079c           0x98         152   
.text._malloc_trim_r       0x10834           0x94         148   
.text.at_parser_store      0x108c8           0x90         144   
.text.__pic32c_data_ini    0x10958           0x90         144   
.text.main                 0x109e8           0x8c         140   
.text                      0x10a74           0x8c         140  App's exec code 
.text.EIC_Initialize       0x10b00           0x84         132   
.text                      0x10b84           0x84         132  App's exec code 
.text._DRV_USART_Resour    0x10c08           0x82         130   
.text.savelogdata          0x10c8a           0x80         128   
.text.dev_hal_cts_ctl      0x10d0a            0x2           2   
.text.__pow5mult           0x10d0c           0x80         128   
.text.__s2b                0x10d8c           0x7e         126   
.text._fclose_r            0x10e0a           0x7e         126   
.text.savefreshlogdata1    0x10e88           0x7c         124   
.text.savefreshlogdata2    0x10f04           0x7c         124   
.text                      0x10f80           0x7c         124  App's exec code 
.text.__smakebuf_r         0x10ffc           0x7c         124   
.text.__fputwc             0x11078           0x7c         124   
.rodata                    0x110f4           0x78         120  Read-only const 
.text                      0x1116c           0x78         120  App's exec code 
.text.__multadd            0x111e4           0x78         120   
.text._DRV_USART_Resour    0x1125c           0x76         118   
.text                      0x112d2           0x76         118  App's exec code 
.rodata                    0x11348           0x74         116  Read-only const 
.text                      0x113bc          0x1cc         460  App's exec code 
.text.__sbprintf           0x11588           0x70         112   
.text.__sprint_r           0x115f8           0x70         112   
.text.CAN0_Initialize      0x11668           0x6c         108   
.text.APP4_CAN_RxFifo1C    0x116d4           0x6c         108   
.text._puts_r              0x11740           0x6c         108   
.text                      0x117ac           0x68         104  App's exec code 
.text.SERCOM3_USART_Wri    0x11814           0x64         100   
.text.SERCOM2_USART_Wri    0x11878           0x64         100   
.text._at_search           0x118dc           0x64         100   
.text                      0x11940           0x64         100  App's exec code 
.text.rshift               0x119a4           0x64         100   
.text.frexp                0x11a08           0x64         100   
.text.APP2_Tasks           0x11a6c           0x60          96   
.rodata                    0x11acc           0x60          96  Read-only const 
.text.__swhatbuf_r         0x11b2c           0x60          96   
.text.__lo0bits            0x11b8c           0x5e          94   
.text.dev_hal_init         0x11bea            0x2           2   
.text.SERCOM4_USART_Rea    0x11bec           0x5c          92   
.text.engine_init          0x11c48           0x5c          92   
.text.__strtok_r           0x11ca4           0x5c          92   
.text.SERCOM3_USART_Ini    0x11d00           0x58          88   
.text.SERCOM2_USART_Ini    0x11d58           0x58          88   
.text.dev_adapter_reset    0x11db0           0x58          88   
.text._calloc_r            0x11e08           0x58          88   
.text._DRV_USART_Driver    0x11e60           0x54          84   
.text.SPI_HighSpeed_Rea    0x11eb4           0x54          84   
.text._Balloc              0x11f08           0x50          80   
.text.__ratio              0x11f58           0x4e          78   
.text.gsm_gps_evn_defau    0x11fa6            0x2           2   
.text._DRV_USART_QueueP    0x11fa8           0x4c          76   
.text.low_pass_filter      0x11ff4           0x4c          76   
.text.dev_adapter_init     0x12040           0x4c          76   
.text.SPI_byte_Program     0x1208c           0x4c          76   
.text.__ulp                0x120d8           0x4c          76   
.text._wcrtomb_r           0x12124           0x4c          76   
.text                      0x12170           0x4a          74  App's exec code 
.rodata                    0x121ba            0x2           2  Read-only const 
.text                      0x121bc           0x48          72  App's exec code 
.text.EIC_InterruptHand    0x12204           0x48          72   
.text.Reset_Handler        0x1224c           0x48          72   
.text.at_cmd_save          0x12294           0x48          72   
.text.__libc_init_array    0x122dc           0x48          72   
.text.std.isra.0           0x12324           0x48          72   
.text.__sinit              0x1236c           0x48          72   
.text.SERCOM3_USART_Rea    0x123b4           0x44          68   
.text.SERCOM4_USART_Wri    0x123f8           0x44          68   
.text.SERCOM2_USART_Rea    0x1243c           0x44          68   
.text.TC4_TimerInitiali    0x12480           0x44          68   
.text.TC0_TimerInitiali    0x124c4           0x44          68   
.text.TC3_TimerInitiali    0x12508           0x44          68   
.text.sprintf              0x1254c           0x44          68   
.text._fwalk_reent         0x12590           0x44          68   
.text.__any_on             0x125d4           0x44          68   
.text                      0x12618           0x42          66  App's exec code 
.text.__malloc_lock        0x1265a            0x2           2   
.text.RTC_RTCCTimeGet      0x1265c           0x40          64   
.text.SYSTICK_DelayMs      0x1269c           0x40          64   
.text.at_parser_init       0x126dc           0x40          64   
.text.SPI_Jedec_ID_Read    0x1271c           0x40          64   
.text                      0x1275c           0x40          64  App's exec code 
.text.write                0x1279c           0x40          64   
.text._DRV_USART_Remove    0x127dc           0x3e          62   
.text.__malloc_unlock      0x1281a            0x2           2   
.text.RTC_RTCCTimeSet      0x1281c           0x3c          60   
.text.SYS_INT_SourceDis    0x12858           0x3c          60   
.text                      0x12894           0x78         120  App's exec code 
.text.SERCOM4_USART_Ini    0x1290c           0x38          56   
.text.gsm_gps_task         0x12944           0x38          56   
.text                      0x1297c           0x38          56  App's exec code 
.text.__swrite             0x129b4           0x38          56   
.text.DRV_USART_BufferE    0x129ec           0x34          52   
.text.CAN0_ErrorGet        0x12a20           0x34          52   
.rodata                    0x12a54           0x68         104  Read-only const 
.text.__hi0bits            0x12abc           0x34          52   
.text                      0x12af0           0x34          52  App's exec code 
.text.my_strncpy           0x12b24           0x32          50   
.text.__mcmp               0x12b56           0x32          50   
.text.RTC_Initialize       0x12b88           0x30          48   
.text.TC4_TimerInterrup    0x12bb8           0x30          48   
.text.TC0_TimerInterrup    0x12be8           0x30          48   
.text.TC3_TimerInterrup    0x12c18           0x30          48   
.text.dev_tick_isr         0x12c48           0x30          48   
.text.readfreshdatameml    0x12c78           0x30          48   
.text.readfreshdatameml    0x12ca8           0x30          48   
.text.readIPaddr           0x12cd8           0x30          48   
.text.readAPNaddr          0x12d08           0x30          48   
.text.readsmr              0x12d38           0x30          48   
.text.readFLAG             0x12d68           0x30          48   
.text.readmaxmemloc        0x12d98           0x30          48   
.text.readrecomemloc       0x12dc8           0x30          48   
.text.readnewmemloc        0x12df8           0x30          48   
.text.readyet2sendmemlo    0x12e28           0x30          48   
.text.SPI_WriteBlockPro    0x12e58           0x30          48   
.text.strstr               0x12e88           0x30          48   
.text.sulp                 0x12eb8           0x30          48   
.text._sbrk                0x12ee8           0x30          48   
.text.readserialNo         0x12f18           0x2e          46   
.text.SPI_Sector_Erase     0x12f46           0x2e          46   
.text                      0x12f74           0x2e          46  App's exec code 
.text._DRV_USART_RX_PLI    0x12fa2           0x2c          44   
.text.SERCOM0_SPI_Initi    0x12fd0           0x2c          44   
.text.SERCOM3_USART_Err    0x12ffc           0x2c          44   
.text.SERCOM4_USART_Err    0x13028           0x2c          44   
.text.SERCOM2_USART_Err    0x13054           0x2c          44   
.rodata.drvUsart0InitDa    0x13080           0x2c          44   
.rodata.drvUsart0PlibAP    0x130ac           0x2c          44   
.rodata.drvUsart1InitDa    0x130d8           0x2c          44   
.rodata.drvUsart1PlibAP    0x13104           0x2c          44   
.text._APP_UART_Receive    0x13130           0x2c          44   
.text.__copybits           0x1315c           0x2c          44   
.text.__sseek              0x13188           0x2c          44   
.text.read                 0x131b4           0x2c          44   
.text._DRV_USART_ReadAb    0x131e0           0x2a          42   
.text.savefreshdatameml    0x1320a           0x2a          42   
.text.savefreshdatameml    0x13234           0x2a          42   
.text.saveIPaddr           0x1325e           0x2a          42   
.text.saveAPNaddr          0x13288           0x2a          42   
.text.savesmr              0x132b2           0x2a          42   
.text.saveFLAG             0x132dc           0x2a          42   
.text.savemaxmemloc        0x13306           0x2a          42   
.text.saverecomemloc       0x13330           0x2a          42   
.text.savenewmemloc        0x1335a           0x2a          42   
.text.saveyet2sendmemlo    0x13384           0x2a          42   
.text.strncpy              0x133ae           0x2a          42   
.text.__hexdig_fun         0x133d8           0x2a          42   
.rodata.can0ExtFilter      0x13404           0x28          40   
.text.EIC_CallbackRegis    0x1342c           0x28          40   
.text.SERCOM3_USART_Rea    0x13454           0x28          40   
.text.SERCOM2_USART_Rea    0x1347c           0x28          40   
.text.__localeconv_l       0x134a4            0x4           4   
.rodata.tinytens           0x134a8           0x28          40   
.text.strtol               0x134d0           0x28          40   
.text._fflush_r            0x134f8           0x28          40   
.text.__match              0x13520           0x28          40   
.rodata.__mprec_bigtens    0x13548           0x28          40   
.text.__sread              0x13570           0x28          40   
.text._write_r             0x13598           0x28          40   
.text._lseek_r             0x135c0           0x28          40   
.text._read_r              0x135e8           0x28          40   
.text.saveserialNo         0x13610           0x26          38   
.text._DRV_USART_GetDri    0x13638           0x24          36   
.text._DRV_USART_Remove    0x1365c           0x24          36   
.text.SYSTICK_TimerInit    0x13680           0x24          36   
.text.SysTick_Handler      0x136a4           0x24          36   
.text.dev_timer_init       0x136c8           0x24          36   
.text.strtod               0x136ec           0x24          36   
.text.__ascii_mbtowc       0x13710           0x24          36   
.text.memmove              0x13734           0x24          36   
.text._sbrk_r              0x13758           0x24          36   
.text._close_r             0x1377c           0x24          36   
.text._fstat_r             0x137a0           0x24          36   
.text._isatty_r            0x137c4           0x24          36   
.text._DRV_USART_ReadSu    0x137e8           0x22          34   
.text._DRV_USART_WriteS    0x1380a           0x22          34   
.text.L_shift              0x1382c           0x22          34   
.text.strncmp              0x1384e           0x22          34   
.text.WDT_Enable           0x13870           0x20          32   
.text.WDT_Disable          0x13890           0x20          32   
.text.exflash_erras        0x138b0           0x20          32   
.text.SPI2_Exchange8bit    0x138d0           0x20          32   
.text.printf               0x138f0           0x20          32   
.text._fputwc_r            0x13910           0x1e          30   
.text.TC0_TimerStart       0x13930           0x1c          28   
.text.TC3_TimerStop        0x1394c           0x1c          28   
.text.SYS_INT_SourceRes    0x13968           0x1c          28   
.text.ftoa                 0x13984           0x1c          28   
.text.EIC_User_Handler     0x139a0           0x1c          28   
.rodata.APP_Tasks          0x139bc           0x1c          28   
.text.dev_hal_pwr_ctl      0x139d8           0x1c          28   
.text.SPI_Read_Status_R    0x139f4           0x1c          28   
.text.strchr               0x13a10           0x1c          28   
.text.__locale_mb_cur_m    0x13a2c           0x1c          28   
.text._mon_getc            0x13a48           0x1a          26   
.text._mon_putc            0x13a62           0x1a          26   
.text.strcat               0x13a7c           0x1a          26   
.rodata.drvUsart0remapP    0x13a98           0x18          24   
.rodata.drvUsart1remapP    0x13ab0           0x18          24   
.text.dev_timer_start      0x13ac8           0x18          24   
.text                      0x13ae0           0x48          72  App's exec code 
.text._localeconv_r        0x13b28           0x18          24   
.text.__ascii_wctomb       0x13b40           0x18          24   
.text.SPI_WREN             0x13b58           0x16          22   
.text.SPI_Chip_Erase       0x13b6e           0x16          22   
.text.datacpy              0x13b84           0x16          22   
.text.memchr               0x13b9a           0x16          22   
.text.CAN0_RxFifoCallba    0x13bb0           0x14          20   
.text.NVIC_INT_Restore     0x13bc4           0x14          20   
.text.SYSTICK_TimerStar    0x13bd8           0x14          20   
.text.WDT_Clear            0x13bec           0x14          20   
.rodata.drvUSART0Interr    0x13c00           0x14          20   
.rodata.drvUSART1Interr    0x13c14           0x14          20   
.rodata.drvUsart0remapD    0x13c28           0x14          20   
.rodata.drvUsart1remapD    0x13c3c           0x14          20   
.text.SYS_Tasks            0x13c50           0x14          20   
.text.TC3_Callback_Inte    0x13c64           0x14          20   
.text.dev_timer_stop       0x13c78           0x14          20   
.text.readlogdata          0x13c8c           0x14          20   
.text.smr_clear            0x13ca0           0x14          20   
.text                      0x13cb4           0x28          40  App's exec code 
.text.puts                 0x13cdc           0x14          20   
.text                      0x13cf0           0x14          20  App's exec code 
.rodata.fpi.6142           0x13d04           0x14          20   
.rodata.fpinan.6178        0x13d18           0x14          20   
.text.strtok               0x13d2c           0x14          20   
.text.malloc               0x13d40           0x14          20   
.text._Bfree               0x13d54           0x14          20   
.text.NVIC_INT_Disable     0x13d68           0x12          18   
.text.readfreshlogdata1    0x13d7a           0x12          18   
.text.readfreshlogdata2    0x13d8c           0x12          18   
.text.EXTFLASH_init        0x13d9e           0x12          18   
.text.SPI_Wait_Busy        0x13db0           0x12          18   
.text.memcpy               0x13dc2           0x12          18   
.text.setbuf               0x13dd4           0x12          18   
.text.__i2b                0x13de6           0x12          18   
.text.DRV_USART_WriteBu    0x13df8           0x10          16   
.text.DRV_USART_ReadBuf    0x13e08           0x10          16   
.text.SERCOM3_USART_Err    0x13e18           0x10          16   
.text.SERCOM3_USART_Rea    0x13e28           0x10          16   
.text.SERCOM2_USART_Err    0x13e38           0x10          16   
.text.SERCOM2_USART_Rea    0x13e48           0x10          16   
.text.TC4_Callback_Inte    0x13e58           0x10          16   
.text.memset               0x13e68           0x10          16   
.text.strcpy               0x13e78           0x10          16   
.rodata.blanks.7220        0x13e88           0x10          16   
.rodata.zeroes.7221        0x13e98           0x10          16   
.rodata.blanks.7235        0x13ea8           0x10          16   
.rodata.zeroes.7236        0x13eb8           0x10          16   
.text._cleanup_r           0x13ec8           0x10          16   
.rodata                    0x13ed8            0xf          15  Read-only const 
.text._DRV_USART_TX_PLI    0x13ee8            0xe          14   
.text                      0x13ef6            0xe          14  App's exec code 
.text.NVMCTRL_Initializ    0x13f04            0xc          12   
.text.SERCOM3_USART_Wri    0x13f10            0xc          12   
.text.SERCOM3_USART_Wri    0x13f1c            0xc          12   
.text.SERCOM3_USART_Wri    0x13f28            0xc          12   
.text.SERCOM3_USART_Rea    0x13f34            0xc          12   
.text.SERCOM3_USART_Rea    0x13f40            0xc          12   
.text.SERCOM2_USART_Wri    0x13f4c            0xc          12   
.text.SERCOM2_USART_Wri    0x13f58            0xc          12   
.text.SERCOM2_USART_Wri    0x13f64            0xc          12   
.text.SERCOM2_USART_Rea    0x13f70            0xc          12   
.text.SERCOM2_USART_Rea    0x13f7c            0xc          12   
.text.SYSTICK_TimerCall    0x13f88            0xc          12   
.text.TC4_TimerCallback    0x13f94            0xc          12   
.text.TC0_TimerCallback    0x13fa0            0xc          12   
.text.TC3_TimerCallback    0x13fac            0xc          12   
.rodata.drvUsart0remapE    0x13fb8            0xc          12   
.rodata.drvUsart0remapS    0x13fc4            0xc          12   
.rodata.drvUsart1remapE    0x13fd0            0xc          12   
.rodata.drvUsart1remapS    0x13fdc            0xc          12   
.text.APP_Initialize       0x13fe8            0xc          12   
.rodata                    0x13ff4            0xc          12  Read-only const 
.text.dev_timer_load       0x14000            0xc          12   
.text.APP2_Initialize      0x1400c            0xc          12   
.text.APP3_Initialize      0x14018            0xc          12   
.text.APP4_Initialize      0x14024            0xc          12   
.text.atol                 0x14030            0xc          12   
.rodata                    0x1403c            0xc          12  Read-only const 
.rodata.p05.6056           0x14048            0xc          12   
.text.__sclose             0x14054            0xc          12   
.text.fstat                0x14060            0xc          12   
.rodata                    0x1406c            0xb          11  Read-only const 
.text.DRV_USART_WriteQu    0x14078            0xa          10   
.text.DRV_USART_ReadQue    0x14082            0xa          10   
.text.atof                 0x1408c            0xa          10   
.text.SYS_INT_Disable      0x14096            0x8           8   
.text.SYS_INT_Restore      0x1409e            0x8           8   
.rodata                    0x140a8            0x8           8  Read-only const 
.text._close               0x140b0            0x8           8   
.text._fstat               0x140b8            0x8           8   
.text._isatty              0x140c0            0x8           8   
.text._lseek               0x140c8            0x8           8   
.text._read                0x140d0            0x8           8   
.text._write               0x140d8            0x8           8   
.text.close                0x140e0            0x8           8   
.text.__locale_ctype_pt    0x140e8            0x6           6   
.text.isatty               0x140f0            0x4           4   
.text.lseek                0x140f4            0x4           4   
      Total ROM used  :     0x140e7       82151  31.3% of 0x40000
        --------------------------------------------------------------------------
         Total Program Memory used  :     0x140e7       82151  31.3% of 0x40000
        --------------------------------------------------------------------------


RAM Data-Memory Usage
section                    address  length [bytes]      (dec)  Description
-------                 ----------  -------------------------  -----------
.bss                    0x20000000         0x1d3c        7484  Uninitialized data 
.bss.at_cmd_storage     0x20001d3c          0x960        2400   
.bss.drvUSART0BufferObj 0x2000269c          0x800        2048   
.bss.drvUSART1BufferObj 0x20002e9c          0x800        2048   
.bss.flt_avgfrq         0x2000369c            0x4           4   
.data.impure_data       0x200036a0          0x418        1048   
.data.__malloc_av_      0x20003ab8          0x408        1032   
.bss.gps_GPRMCdata      0x20003ec0          0x230         560   
.data.__global_locale   0x200040f0          0x16c         364   
.bss.rxBuff             0x2000425c          0x105         261   
.bss.b_Hydraulicoilfilt 0x20004361            0x1           1   
.bss.u16_gerrercode1blk 0x20004362            0x2           2   
.bss.eicCallbackObject  0x20004364           0xc0         192   
.bss.gDrvUSARTObj       0x20004424           0x98         152   
.bss.error              0x200044bc           0x64         100   
.bss.sercom3USARTObj    0x20004520           0x30          48   
.bss.sercom2USARTObj    0x20004550           0x30          48   
.bss.samples.8804       0x20004580           0x2c          44   
.bss.__malloc_current_m 0x200045ac           0x28          40   
.bss                    0x200045d4           0x1c          28  Uninitialized data 
.bss.can0Obj            0x200045f0           0x1c          28   
.bss.samples.9263       0x2000460c           0x14          20   
.bss.can0RxFifoCallback 0x20004620           0x10          16   
.bss.drvUSART0ClientObj 0x20004630           0x10          16   
.bss.drvUSART1ClientObj 0x20004640           0x10          16   
.bss.rxFiFo1            0x20004650           0x10          16   
.bss.systick            0x20004660            0xc          12   
.bss.latitude           0x2000466c            0xa          10   
.bss.counter            0x20004676            0x2           2   
.bss.longitude          0x20004678            0xa          10   
.bss.mincount.8810      0x20004682            0x2           2   
.bss.altitude           0x20004684            0x9           9   
.bss.b_IgnitionON       0x2000468d            0x1           1   
.bss.u16_gerrercode2blk 0x2000468e            0x2           2   
.bss.can0TxEventFifoCal 0x20004690            0x8           8   
.bss.can0TxFifoCallback 0x20004698            0x8           8   
.bss.TC4_CallbackObject 0x200046a0            0x8           8   
.bss.TC0_CallbackObject 0x200046a8            0x8           8   
.bss.TC3_CallbackObject 0x200046b0            0x8           8   
.bss.i.8805             0x200046b8            0x4           4   
.bss.total.8806         0x200046bc            0x4           4   
.bss.u32_pulsecunt      0x200046c0            0x4           4   
.bss.u32_watchdogtimerc 0x200046c4            0x4           4   
.bss.cb                 0x200046c8            0x4           4   
.bss.cb_default         0x200046cc            0x4           4   
.bss.temp_timer         0x200046d0            0x4           4   
.bss.data_ptr           0x200046d4            0x4           4   
.bss.timer              0x200046d8            0x4           4   
.bss.timer_c            0x200046dc            0x4           4   
.bss.tempendaddr        0x200046e0            0x4           4   
.bss.tempstartaddr      0x200046e4            0x4           4   
.bss.u32_tempdiffaddr   0x200046e8            0x4           4   
.data.latt              0x200046ec            0x4           4   
.data.lonn              0x200046f0            0x4           4   
.bss.flt_gps_CourseOver 0x200046f4            0x4           4   
.bss.flt_gps_SpeedOverG 0x200046f8            0x4           4   
.bss.tempsmr1.9279      0x200046fc            0x4           4   
.bss.tempsmr2.9317      0x20004700            0x4           4   
.data.x.9264            0x20004704            0x4           4   
.bss.rx_messageID       0x20004708            0x4           4   
.bss.temprx_messageID   0x2000470c            0x4           4   
.bss.xferContext        0x20004710            0x4           4   
.data._impure_ptr       0x20004714            0x4           4   
.bss.__malloc_max_sbrke 0x20004718            0x4           4   
.bss.__malloc_max_total 0x2000471c            0x4           4   
.bss.__malloc_top_pad   0x20004720            0x4           4   
.data.__malloc_sbrk_bas 0x20004724            0x4           4   
.data.__malloc_trim_thr 0x20004728            0x4           4   
.bss                    0x2000472c            0x4           4  Uninitialized data 
.bss.u16_gerrercode3blk 0x20004730            0x2           2   
.bss.u16_loopcounter    0x20004732            0x2           2   
.bss.uint_avgfrqcnt     0x20004734            0x2           2   
.bss.uint_frq           0x20004736            0x2           2   
.bss.rx_idx             0x20004738            0x2           2   
.bss.sentdataofSI1.8809 0x2000473a            0x2           2   
.bss.sentdataofSI2.8810 0x2000473c            0x2           2   
.bss.sentdataofSI3.8811 0x2000473e            0x2           2   
.bss.sentdataofSI4.8812 0x20004740            0x2           2   
.bss.sentdataofSI5.8813 0x20004742            0x2           2   
.bss.sentdataofSI6.8814 0x20004744            0x2           2   
.bss.uint_datasentcount 0x20004746            0x2           2   
.bss.b_LubeOilPressure  0x20004748            0x1           1   
.bss.b_airfiltercool    0x20004749            0x1           1   
.bss.b_highenginteperat 0x2000474a            0x1           1   
.bss.b_speare1          0x2000474b            0x1           1   
.bss.b_speare2          0x2000474c            0x1           1   
.bss.b_speare3          0x2000474d            0x1           1   
.bss.bl_pulsevalidestat 0x2000474e            0x1           1   
.bss.new_gpsdataset     0x2000474f            0x1           1   
.bss.newdataEN1         0x20004750            0x1           1   
.bss.newdataEN2         0x20004751            0x1           1   
.bss.newdataupdated     0x20004752            0x1           1   
.bss.switchsrtpress     0x20004753            0x1           1   
.bss.timedout           0x20004754            0x1           1   
.bss.u8_SAVING2MEM      0x20004755            0x1           1   
.bss.u8_freshdatamemloc 0x20004756            0x1           1   
.bss.u8_gerrercode1     0x20004757            0x1           1   
.bss.u8_gerrercode2     0x20004758            0x1           1   
.bss.u8_gerrercode3     0x20004759            0x1           1   
.bss.u8_newdataset1     0x2000475a            0x1           1   
.bss.u8_newdataset2     0x2000475b            0x1           1   
.bss.uchr_pastMin       0x2000475c            0x1           1   
.bss.at_cmd_storage_use 0x2000475d            0x1           1   
.bss.header_size        0x2000475e            0x1           1   
.bss.data_f             0x2000475f            0x1           1   
.bss.data_t             0x20004760            0x1           1   
.bss.err_c              0x20004761            0x1           1   
.bss.err_f              0x20004762            0x1           1   
.bss.frag_f             0x20004763            0x1           1   
.bss.head_f             0x20004764            0x1           1   
.bss.head_t             0x20004765            0x1           1   
.bss.summ_f             0x20004766            0x1           1   
.bss.summ_t             0x20004767            0x1           1   
.bss.term_f             0x20004768            0x1           1   
.bss.timer_f            0x20004769            0x1           1   
.bss.loc_update_f       0x2000476a            0x1           1   
.bss.onlinemode         0x2000476b            0x1           1   
.bss.onlinemodecnt      0x2000476c            0x1           1   
.bss.req_pend_f         0x2000476d            0x1           1   
.bss.u8_SSid            0x2000476e            0x1           1   
.bss.u8_SSid1error      0x2000476f            0x1           1   
.bss.u8_SSid2error      0x20004770            0x1           1   
.bss.u8_SSid3error      0x20004771            0x1           1   
.bss.u8_SSid4error      0x20004772            0x1           1   
.bss.u8_SSid5error      0x20004773            0x1           1   
.bss.u8_SSid6error      0x20004774            0x1           1   
.bss.u8_datasendEN      0x20004775            0x1           1   
.bss.ch_gpstimereloadst 0x20004776            0x1           1   
.bss.Device_Id          0x20004777            0x1           1   
.bss.Device_Type        0x20004778            0x1           1   
.bss.Manufacturer_Id    0x20004779            0x1           1   
.bss.isTransferDone     0x2000477a            0x1           1   
.bss.rx_E000set         0x2000477b            0x1           1   
.bss.rx_F004set         0x2000477c            0x1           1   
.bss.rx_FD07set         0x2000477d            0x1           1   
.bss.rx_FE68set         0x2000477e            0x1           1   
.bss.rx_FEE5set         0x2000477f            0x1           1   
.bss.rx_FEEEset         0x20004780            0x1           1   
.bss.rx_FEEFset         0x20004781            0x1           1   
.bss.rx_FEF7set         0x20004782            0x1           1   
.bss.rx_FEFCset         0x20004783            0x1           1   
.bss.rx_set             0x20004784            0x1           1   
.data.state             0x20004785            0x1           1   
         Total RAM used  :      0x4786       18310  55.9% of 0x8000
        --------------------------------------------------------------------------
            Total Data Memory used  :      0x4786       18310  55.9% of 0x8000
        --------------------------------------------------------------------------


Dynamic Data-Memory Reservation
section                    address  length [bytes]      (dec)  Description
-------                 ----------  -------------------------  -----------
heap                    0x20004788          0x200         512  Reserved for heap 
stack                   0x200049a0         0x3650       13904  Reserved for stack 

        --------------------------------------------------------------------------

Discarded input sections

 .text          0x00000000        0x0 c:/program files (x86)/microchip/xc32/v2.30/bin/bin/../../lib/gcc/pic32c/6.2.1/crti.o
 .data          0x00000000        0x0 c:/program files (x86)/microchip/xc32/v2.30/bin/bin/../../lib/gcc/pic32c/6.2.1/crti.o
 .bss           0x00000000        0x0 c:/program files (x86)/microchip/xc32/v2.30/bin/bin/../../lib/gcc/pic32c/6.2.1/crti.o
 .data          0x00000000        0x4 c:/program files (x86)/microchip/xc32/v2.30/bin/bin/../../lib/gcc/pic32c/6.2.1/crtbegin.o
 .text          0x00000000        0x0 build/default/production/_ext/869808652/drv_usart.o
 .data          0x00000000        0x0 build/default/production/_ext/869808652/drv_usart.o
 .bss           0x00000000        0x0 build/default/production/_ext/869808652/drv_usart.o
 .text._DRV_USART_GetTransferObj
                0x00000000       0x30 build/default/production/_ext/869808652/drv_usart.o
 .text.DRV_USART_Status
                0x00000000       0x1c build/default/production/_ext/869808652/drv_usart.o
 .text.DRV_USART_Close
                0x00000000       0x7c build/default/production/_ext/869808652/drv_usart.o
 .text.DRV_USART_ErrorGet
                0x00000000       0x3a build/default/production/_ext/869808652/drv_usart.o
 .text.DRV_USART_SerialSetup
                0x00000000       0xb0 build/default/production/_ext/869808652/drv_usart.o
 .text.DRV_USART_BufferCompletedBytesGet
                0x00000000       0x66 build/default/production/_ext/869808652/drv_usart.o
 .text.DRV_USART_ReadAbort
                0x00000000       0x40 build/default/production/_ext/869808652/drv_usart.o
 .text          0x00000000        0x0 build/default/production/_ext/60165182/plib_can0.o
 .data          0x00000000        0x0 build/default/production/_ext/60165182/plib_can0.o
 .bss           0x00000000        0x0 build/default/production/_ext/60165182/plib_can0.o
 .text.CAN0_MessageTransmitFifo
                0x00000000       0x40 build/default/production/_ext/60165182/plib_can0.o
 .text.CAN0_TxFifoFreeLevelGet
                0x00000000       0x10 build/default/production/_ext/60165182/plib_can0.o
 .text.CAN0_TxBufferIsBusy
                0x00000000       0x14 build/default/production/_ext/60165182/plib_can0.o
 .text.CAN0_TxEventFifoRead
                0x00000000       0x74 build/default/production/_ext/60165182/plib_can0.o
 .text.CAN0_ErrorCountGet
                0x00000000       0x14 build/default/production/_ext/60165182/plib_can0.o
 .text.CAN0_ExtendedFilterElementSet
                0x00000000       0x38 build/default/production/_ext/60165182/plib_can0.o
 .text.CAN0_ExtendedFilterElementGet
                0x00000000       0x38 build/default/production/_ext/60165182/plib_can0.o
 .text.CAN0_SleepModeEnter
                0x00000000       0x1c build/default/production/_ext/60165182/plib_can0.o
 .text.CAN0_SleepModeExit
                0x00000000       0x30 build/default/production/_ext/60165182/plib_can0.o
 .text.CAN0_TxFifoCallbackRegister
                0x00000000       0x10 build/default/production/_ext/60165182/plib_can0.o
 .text.CAN0_TxEventFifoCallbackRegister
                0x00000000       0x10 build/default/production/_ext/60165182/plib_can0.o
 .text          0x00000000        0x0 build/default/production/_ext/1984496892/plib_clock.o
 .data          0x00000000        0x0 build/default/production/_ext/1984496892/plib_clock.o
 .bss           0x00000000        0x0 build/default/production/_ext/1984496892/plib_clock.o
 .text          0x00000000        0x0 build/default/production/_ext/60167341/plib_eic.o
 .data          0x00000000        0x0 build/default/production/_ext/60167341/plib_eic.o
 .bss           0x00000000        0x0 build/default/production/_ext/60167341/plib_eic.o
 .text.EIC_InterruptEnable
                0x00000000       0x10 build/default/production/_ext/60167341/plib_eic.o
 .text.EIC_InterruptDisable
                0x00000000       0x10 build/default/production/_ext/60167341/plib_eic.o
 .text          0x00000000        0x0 build/default/production/_ext/1986646378/plib_evsys.o
 .data          0x00000000        0x0 build/default/production/_ext/1986646378/plib_evsys.o
 .bss           0x00000000        0x0 build/default/production/_ext/1986646378/plib_evsys.o
 .text          0x00000000        0x0 build/default/production/_ext/1865468468/plib_nvic.o
 .data          0x00000000        0x0 build/default/production/_ext/1865468468/plib_nvic.o
 .bss           0x00000000        0x0 build/default/production/_ext/1865468468/plib_nvic.o
 .text.NVIC_INT_Enable
                0x00000000        0x8 build/default/production/_ext/1865468468/plib_nvic.o
 .text          0x00000000        0x0 build/default/production/_ext/1593096446/plib_nvmctrl.o
 .data          0x00000000        0x0 build/default/production/_ext/1593096446/plib_nvmctrl.o
 .bss           0x00000000        0x0 build/default/production/_ext/1593096446/plib_nvmctrl.o
 .text.NVMCTRL_CacheInvalidate
                0x00000000       0x10 build/default/production/_ext/1593096446/plib_nvmctrl.o
 .text.NVMCTRL_RWWEEPROM_Read
                0x00000000       0x10 build/default/production/_ext/1593096446/plib_nvmctrl.o
 .text.NVMCTRL_RWWEEPROM_PageWrite
                0x00000000       0x28 build/default/production/_ext/1593096446/plib_nvmctrl.o
 .text.NVMCTRL_RWWEEPROM_RowErase
                0x00000000       0x18 build/default/production/_ext/1593096446/plib_nvmctrl.o
 .text.NVMCTRL_Read
                0x00000000       0x10 build/default/production/_ext/1593096446/plib_nvmctrl.o
 .text.NVMCTRL_PageBufferWrite
                0x00000000       0x14 build/default/production/_ext/1593096446/plib_nvmctrl.o
 .text.NVMCTRL_PageBufferCommit
                0x00000000       0x28 build/default/production/_ext/1593096446/plib_nvmctrl.o
 .text.NVMCTRL_PageWrite
                0x00000000       0x28 build/default/production/_ext/1593096446/plib_nvmctrl.o
 .text.NVMCTRL_RowErase
                0x00000000       0x18 build/default/production/_ext/1593096446/plib_nvmctrl.o
 .text.NVMCTRL_ErrorGet
                0x00000000       0x2c build/default/production/_ext/1593096446/plib_nvmctrl.o
 .text.NVMCTRL_IsBusy
                0x00000000       0x14 build/default/production/_ext/1593096446/plib_nvmctrl.o
 .text.NVMCTRL_RegionLock
                0x00000000       0x14 build/default/production/_ext/1593096446/plib_nvmctrl.o
 .text.NVMCTRL_RegionUnlock
                0x00000000       0x14 build/default/production/_ext/1593096446/plib_nvmctrl.o
 .text          0x00000000        0x0 build/default/production/_ext/1865521619/plib_port.o
 .data          0x00000000        0x0 build/default/production/_ext/1865521619/plib_port.o
 .bss           0x00000000        0x0 build/default/production/_ext/1865521619/plib_port.o
 .text.PORT_GroupRead
                0x00000000        0x4 build/default/production/_ext/1865521619/plib_port.o
 .text.PORT_GroupWrite
                0x00000000        0xc build/default/production/_ext/1865521619/plib_port.o
 .text.PORT_GroupLatchRead
                0x00000000        0x4 build/default/production/_ext/1865521619/plib_port.o
 .text.PORT_GroupSet
                0x00000000        0x4 build/default/production/_ext/1865521619/plib_port.o
 .text.PORT_GroupClear
                0x00000000        0x4 build/default/production/_ext/1865521619/plib_port.o
 .text.PORT_GroupToggle
                0x00000000        0x4 build/default/production/_ext/1865521619/plib_port.o
 .text.PORT_GroupInputEnable
                0x00000000        0x4 build/default/production/_ext/1865521619/plib_port.o
 .text.PORT_GroupOutputEnable
                0x00000000        0x4 build/default/production/_ext/1865521619/plib_port.o
 .text.PORT_PinPeripheralFunctionConfig
                0x00000000       0x46 build/default/production/_ext/1865521619/plib_port.o
 .text.PORT_PinGPIOConfig
                0x00000000       0x1e build/default/production/_ext/1865521619/plib_port.o
 .text          0x00000000        0x0 build/default/production/_ext/60180175/plib_rtc_clock.o
 .data          0x00000000        0x0 build/default/production/_ext/60180175/plib_rtc_clock.o
 .bss           0x00000000        0x0 build/default/production/_ext/60180175/plib_rtc_clock.o
 .text.RTC_FrequencyCorrect
                0x00000000       0x28 build/default/production/_ext/60180175/plib_rtc_clock.o
 .text.RTC_PeriodicIntervalHasCompleted
                0x00000000       0x20 build/default/production/_ext/60180175/plib_rtc_clock.o
 .text          0x00000000        0x0 build/default/production/_ext/17022449/plib_sercom0_spi_master.o
 .data          0x00000000        0x0 build/default/production/_ext/17022449/plib_sercom0_spi_master.o
 .bss           0x00000000        0x0 build/default/production/_ext/17022449/plib_sercom0_spi_master.o
 .text.SERCOM0_SPI_TransferSetup
                0x00000000       0x88 build/default/production/_ext/17022449/plib_sercom0_spi_master.o
 .text.SERCOM0_SPI_IsTransmitterBusy
                0x00000000       0x14 build/default/production/_ext/17022449/plib_sercom0_spi_master.o
 .text.SERCOM0_SPI_Write
                0x00000000        0xc build/default/production/_ext/17022449/plib_sercom0_spi_master.o
 .text.SERCOM0_SPI_Read
                0x00000000       0x10 build/default/production/_ext/17022449/plib_sercom0_spi_master.o
 .text          0x00000000        0x0 build/default/production/_ext/504274921/plib_sercom3_usart.o
 .data          0x00000000        0x0 build/default/production/_ext/504274921/plib_sercom3_usart.o
 .bss           0x00000000        0x0 build/default/production/_ext/504274921/plib_sercom3_usart.o
 .text.SERCOM3_USART_FrequencyGet
                0x00000000        0x8 build/default/production/_ext/504274921/plib_sercom3_usart.o
 .text.SERCOM3_USART_TransmitterEnable
                0x00000000       0x18 build/default/production/_ext/504274921/plib_sercom3_usart.o
 .text.SERCOM3_USART_TransmitterDisable
                0x00000000       0x1c build/default/production/_ext/504274921/plib_sercom3_usart.o
 .text.SERCOM3_USART_ReceiverEnable
                0x00000000       0x18 build/default/production/_ext/504274921/plib_sercom3_usart.o
 .text.SERCOM3_USART_ReceiverDisable
                0x00000000       0x1c build/default/production/_ext/504274921/plib_sercom3_usart.o
 .text          0x00000000        0x0 build/default/production/_ext/504274921/plib_sercom4_usart.o
 .data          0x00000000        0x0 build/default/production/_ext/504274921/plib_sercom4_usart.o
 .bss           0x00000000        0x0 build/default/production/_ext/504274921/plib_sercom4_usart.o
 .text.SERCOM4_USART_FrequencyGet
                0x00000000        0x8 build/default/production/_ext/504274921/plib_sercom4_usart.o
 .text.SERCOM4_USART_SerialSetup
                0x00000000      0x118 build/default/production/_ext/504274921/plib_sercom4_usart.o
 .text.SERCOM4_USART_ErrorGet
                0x00000000       0x1c build/default/production/_ext/504274921/plib_sercom4_usart.o
 .text.SERCOM4_USART_TransmitterEnable
                0x00000000       0x18 build/default/production/_ext/504274921/plib_sercom4_usart.o
 .text.SERCOM4_USART_TransmitterDisable
                0x00000000       0x1c build/default/production/_ext/504274921/plib_sercom4_usart.o
 .text.SERCOM4_USART_TransmitterIsReady
                0x00000000       0x10 build/default/production/_ext/504274921/plib_sercom4_usart.o
 .text.SERCOM4_USART_TransmitComplete
                0x00000000       0x10 build/default/production/_ext/504274921/plib_sercom4_usart.o
 .text.SERCOM4_USART_WriteByte
                0x00000000       0x18 build/default/production/_ext/504274921/plib_sercom4_usart.o
 .text.SERCOM4_USART_ReceiverEnable
                0x00000000       0x18 build/default/production/_ext/504274921/plib_sercom4_usart.o
 .text.SERCOM4_USART_ReceiverDisable
                0x00000000       0x1c build/default/production/_ext/504274921/plib_sercom4_usart.o
 .text.SERCOM4_USART_ReceiverIsReady
                0x00000000       0x10 build/default/production/_ext/504274921/plib_sercom4_usart.o
 .text.SERCOM4_USART_ReadByte
                0x00000000        0xc build/default/production/_ext/504274921/plib_sercom4_usart.o
 .text          0x00000000        0x0 build/default/production/_ext/504274921/plib_sercom2_usart.o
 .data          0x00000000        0x0 build/default/production/_ext/504274921/plib_sercom2_usart.o
 .bss           0x00000000        0x0 build/default/production/_ext/504274921/plib_sercom2_usart.o
 .text.SERCOM2_USART_FrequencyGet
                0x00000000        0x8 build/default/production/_ext/504274921/plib_sercom2_usart.o
 .text.SERCOM2_USART_TransmitterEnable
                0x00000000       0x18 build/default/production/_ext/504274921/plib_sercom2_usart.o
 .text.SERCOM2_USART_TransmitterDisable
                0x00000000       0x1c build/default/production/_ext/504274921/plib_sercom2_usart.o
 .text.SERCOM2_USART_ReceiverEnable
                0x00000000       0x18 build/default/production/_ext/504274921/plib_sercom2_usart.o
 .text.SERCOM2_USART_ReceiverDisable
                0x00000000       0x1c build/default/production/_ext/504274921/plib_sercom2_usart.o
 .text          0x00000000        0x0 build/default/production/_ext/1827571544/plib_systick.o
 .data          0x00000000        0x0 build/default/production/_ext/1827571544/plib_systick.o
 .bss           0x00000000        0x0 build/default/production/_ext/1827571544/plib_systick.o
 .text.SYSTICK_TimerRestart
                0x00000000       0x1c build/default/production/_ext/1827571544/plib_systick.o
 .text.SYSTICK_TimerStop
                0x00000000       0x10 build/default/production/_ext/1827571544/plib_systick.o
 .text.SYSTICK_TimerPeriodSet
                0x00000000        0xc build/default/production/_ext/1827571544/plib_systick.o
 .text.SYSTICK_TimerPeriodGet
                0x00000000        0xc build/default/production/_ext/1827571544/plib_systick.o
 .text.SYSTICK_TimerCounterGet
                0x00000000        0xc build/default/production/_ext/1827571544/plib_systick.o
 .text.SYSTICK_TimerFrequencyGet
                0x00000000        0x8 build/default/production/_ext/1827571544/plib_systick.o
 .text.SYSTICK_DelayUs
                0x00000000       0x3c build/default/production/_ext/1827571544/plib_systick.o
 .text          0x00000000        0x0 build/default/production/_ext/829342655/plib_tc4.o
 .data          0x00000000        0x0 build/default/production/_ext/829342655/plib_tc4.o
 .bss           0x00000000        0x0 build/default/production/_ext/829342655/plib_tc4.o
 .text.TC4_TimerStart
                0x00000000       0x1c build/default/production/_ext/829342655/plib_tc4.o
 .text.TC4_TimerStop
                0x00000000       0x1c build/default/production/_ext/829342655/plib_tc4.o
 .text.TC4_TimerFrequencyGet
                0x00000000        0x8 build/default/production/_ext/829342655/plib_tc4.o
 .text.TC4_TimerCommandSet
                0x00000000       0x18 build/default/production/_ext/829342655/plib_tc4.o
 .text.TC4_Timer16bitCounterGet
                0x00000000       0x2c build/default/production/_ext/829342655/plib_tc4.o
 .text.TC4_Timer16bitCounterSet
                0x00000000       0x14 build/default/production/_ext/829342655/plib_tc4.o
 .text.TC4_Timer16bitPeriodSet
                0x00000000       0x14 build/default/production/_ext/829342655/plib_tc4.o
 .text.TC4_Timer16bitPeriodGet
                0x00000000        0xc build/default/production/_ext/829342655/plib_tc4.o
 .text          0x00000000        0x0 build/default/production/_ext/829342655/plib_tc0.o
 .data          0x00000000        0x0 build/default/production/_ext/829342655/plib_tc0.o
 .bss           0x00000000        0x0 build/default/production/_ext/829342655/plib_tc0.o
 .text.TC0_TimerStop
                0x00000000       0x1c build/default/production/_ext/829342655/plib_tc0.o
 .text.TC0_TimerFrequencyGet
                0x00000000        0x8 build/default/production/_ext/829342655/plib_tc0.o
 .text.TC0_TimerCommandSet
                0x00000000       0x18 build/default/production/_ext/829342655/plib_tc0.o
 .text.TC0_Timer16bitCounterGet
                0x00000000       0x2c build/default/production/_ext/829342655/plib_tc0.o
 .text.TC0_Timer16bitCounterSet
                0x00000000       0x14 build/default/production/_ext/829342655/plib_tc0.o
 .text.TC0_Timer16bitPeriodSet
                0x00000000       0x14 build/default/production/_ext/829342655/plib_tc0.o
 .text.TC0_Timer16bitPeriodGet
                0x00000000        0xc build/default/production/_ext/829342655/plib_tc0.o
 .text          0x00000000        0x0 build/default/production/_ext/829342655/plib_tc3.o
 .data          0x00000000        0x0 build/default/production/_ext/829342655/plib_tc3.o
 .bss           0x00000000        0x0 build/default/production/_ext/829342655/plib_tc3.o
 .text.TC3_TimerStart
                0x00000000       0x1c build/default/production/_ext/829342655/plib_tc3.o
 .text.TC3_TimerFrequencyGet
                0x00000000        0x8 build/default/production/_ext/829342655/plib_tc3.o
 .text.TC3_TimerCommandSet
                0x00000000       0x18 build/default/production/_ext/829342655/plib_tc3.o
 .text.TC3_Timer16bitCounterGet
                0x00000000       0x2c build/default/production/_ext/829342655/plib_tc3.o
 .text.TC3_Timer16bitCounterSet
                0x00000000       0x14 build/default/production/_ext/829342655/plib_tc3.o
 .text.TC3_Timer16bitPeriodSet
                0x00000000       0x14 build/default/production/_ext/829342655/plib_tc3.o
 .text.TC3_Timer16bitPeriodGet
                0x00000000        0xc build/default/production/_ext/829342655/plib_tc3.o
 .text          0x00000000        0x0 build/default/production/_ext/60184501/plib_wdt.o
 .data          0x00000000        0x0 build/default/production/_ext/60184501/plib_wdt.o
 .bss           0x00000000        0x0 build/default/production/_ext/60184501/plib_wdt.o
 .text.WDT_TimeoutPeriodSet
                0x00000000       0x14 build/default/production/_ext/60184501/plib_wdt.o
 .text.WDT_ClearWithSync
                0x00000000       0x1c build/default/production/_ext/60184501/plib_wdt.o
 .text          0x00000000        0x0 build/default/production/_ext/163028504/xc32_monitor.o
 .data          0x00000000        0x0 build/default/production/_ext/163028504/xc32_monitor.o
 .bss           0x00000000        0x0 build/default/production/_ext/163028504/xc32_monitor.o
 .text          0x00000000        0x0 build/default/production/_ext/14461671/sys_dma.o
 .data          0x00000000        0x0 build/default/production/_ext/14461671/sys_dma.o
 .bss           0x00000000        0x0 build/default/production/_ext/14461671/sys_dma.o
 .text.SYS_DMA_AddressingModeSetup
                0x00000000        0x2 build/default/production/_ext/14461671/sys_dma.o
 .text.SYS_DMA_DataWidthSetup
                0x00000000        0x2 build/default/production/_ext/14461671/sys_dma.o
 .debug_info    0x00000000      0x698 build/default/production/_ext/14461671/sys_dma.o
 .debug_abbrev  0x00000000       0x99 build/default/production/_ext/14461671/sys_dma.o
 .debug_aranges
                0x00000000       0x28 build/default/production/_ext/14461671/sys_dma.o
 .debug_ranges  0x00000000       0x18 build/default/production/_ext/14461671/sys_dma.o
 .debug_line    0x00000000       0x79 build/default/production/_ext/14461671/sys_dma.o
 .debug_str     0x00000000        0x0 build/default/production/_ext/14461671/sys_dma.o
 .comment       0x00000000       0x3d build/default/production/_ext/14461671/sys_dma.o
 .debug_frame   0x00000000       0x30 build/default/production/_ext/14461671/sys_dma.o
 .ARM.attributes
                0x00000000       0x32 build/default/production/_ext/14461671/sys_dma.o
 .text          0x00000000        0x0 build/default/production/_ext/1881668453/sys_int.o
 .data          0x00000000        0x0 build/default/production/_ext/1881668453/sys_int.o
 .bss           0x00000000        0x0 build/default/production/_ext/1881668453/sys_int.o
 .text.SYS_INT_Enable
                0x00000000        0x8 build/default/production/_ext/1881668453/sys_int.o
 .text          0x00000000        0x0 build/default/production/_ext/1171490990/initialization.o
 .data          0x00000000        0x0 build/default/production/_ext/1171490990/initialization.o
 .bss           0x00000000        0x0 build/default/production/_ext/1171490990/initialization.o
 .text          0x00000000        0x0 build/default/production/_ext/1171490990/interrupts.o
 .data          0x00000000        0x0 build/default/production/_ext/1171490990/interrupts.o
 .bss           0x00000000        0x0 build/default/production/_ext/1171490990/interrupts.o
 .text          0x00000000        0x0 build/default/production/_ext/1171490990/exceptions.o
 .data          0x00000000        0x0 build/default/production/_ext/1171490990/exceptions.o
 .bss           0x00000000        0x0 build/default/production/_ext/1171490990/exceptions.o
 .text          0x00000000        0x0 build/default/production/_ext/1171490990/startup_xc32.o
 .data          0x00000000        0x0 build/default/production/_ext/1171490990/startup_xc32.o
 .bss           0x00000000        0x0 build/default/production/_ext/1171490990/startup_xc32.o
 .text          0x00000000        0x0 build/default/production/_ext/1171490990/libc_syscalls.o
 .data          0x00000000        0x0 build/default/production/_ext/1171490990/libc_syscalls.o
 .bss           0x00000000        0x0 build/default/production/_ext/1171490990/libc_syscalls.o
 .text._exit    0x00000000        0x2 build/default/production/_ext/1171490990/libc_syscalls.o
 .debug_info    0x00000000      0xe5a build/default/production/_ext/1171490990/libc_syscalls.o
 .debug_abbrev  0x00000000      0x1a1 build/default/production/_ext/1171490990/libc_syscalls.o
 .debug_aranges
                0x00000000       0x20 build/default/production/_ext/1171490990/libc_syscalls.o
 .debug_ranges  0x00000000       0x10 build/default/production/_ext/1171490990/libc_syscalls.o
 .debug_line    0x00000000      0x14f build/default/production/_ext/1171490990/libc_syscalls.o
 .debug_str     0x00000000        0xe build/default/production/_ext/1171490990/libc_syscalls.o
 .comment       0x00000000       0x3d build/default/production/_ext/1171490990/libc_syscalls.o
 .debug_frame   0x00000000       0x20 build/default/production/_ext/1171490990/libc_syscalls.o
 .ARM.attributes
                0x00000000       0x32 build/default/production/_ext/1171490990/libc_syscalls.o
 .text          0x00000000        0x0 build/default/production/_ext/1171490990/tasks.o
 .data          0x00000000        0x0 build/default/production/_ext/1171490990/tasks.o
 .bss           0x00000000        0x0 build/default/production/_ext/1171490990/tasks.o
 .text          0x00000000        0x0 build/default/production/_ext/1360937237/main.o
 .data          0x00000000        0x0 build/default/production/_ext/1360937237/main.o
 .bss           0x00000000        0x0 build/default/production/_ext/1360937237/main.o
 .text          0x00000000        0x0 build/default/production/_ext/1360937237/myapp.o
 .data          0x00000000        0x0 build/default/production/_ext/1360937237/myapp.o
 .bss           0x00000000        0x0 build/default/production/_ext/1360937237/myapp.o
 .text.MYAPP_Initialize
                0x00000000        0xc build/default/production/_ext/1360937237/myapp.o
 .text.reverse  0x00000000       0x1c build/default/production/_ext/1360937237/myapp.o
 .text.intToStr
                0x00000000       0x66 build/default/production/_ext/1360937237/myapp.o
 .text.MYAPP_Tasks
                0x00000000       0x34 build/default/production/_ext/1360937237/myapp.o
 .bss.myappData
                0x00000000        0x2 build/default/production/_ext/1360937237/myapp.o
 .text          0x00000000        0x0 build/default/production/_ext/1360937237/app.o
 .data          0x00000000        0x0 build/default/production/_ext/1360937237/app.o
 .bss           0x00000000        0x0 build/default/production/_ext/1360937237/app.o
 .bss.low_edge  0x00000000        0x1 build/default/production/_ext/1360937237/app.o
 .bss.manual_ATcmm
                0x00000000       0x32 build/default/production/_ext/1360937237/app.o
 .bss.switchLngpress
                0x00000000        0x1 build/default/production/_ext/1360937237/app.o
 .bss.transfer_status
                0x00000000        0x1 build/default/production/_ext/1360937237/app.o
 .bss.u16_loopof1sec
                0x00000000        0x2 build/default/production/_ext/1360937237/app.o
 .bss.updated_phn_num
                0x00000000        0x1 build/default/production/_ext/1360937237/app.o
 .text          0x00000000        0x0 build/default/production/_ext/1360937237/at_engine.o
 .data          0x00000000        0x0 build/default/production/_ext/1360937237/at_engine.o
 .bss           0x00000000        0x0 build/default/production/_ext/1360937237/at_engine.o
 .text.at_cmd   0x00000000       0x4c build/default/production/_ext/1360937237/at_engine.o
 .text.at_cmd_addition
                0x00000000       0x3c build/default/production/_ext/1360937237/at_engine.o
 .bss.temp_cb   0x00000000        0x4 build/default/production/_ext/1360937237/at_engine.o
 .text          0x00000000        0x0 build/default/production/_ext/1360937237/at_parser.o
 .data          0x00000000        0x0 build/default/production/_ext/1360937237/at_parser.o
 .bss           0x00000000        0x0 build/default/production/_ext/1360937237/at_parser.o
 .text          0x00000000        0x0 build/default/production/_ext/1360937237/dev_adapter.o
 .data          0x00000000        0x0 build/default/production/_ext/1360937237/dev_adapter.o
 .bss           0x00000000        0x0 build/default/production/_ext/1360937237/dev_adapter.o
 .text.dev_tx   0x00000000       0xc4 build/default/production/_ext/1360937237/dev_adapter.o
 .text.mydev_tx
                0x00000000       0xc4 build/default/production/_ext/1360937237/dev_adapter.o
 .text.mydev_rx
                0x00000000       0x24 build/default/production/_ext/1360937237/dev_adapter.o
 .bss.tx_idx    0x00000000        0x2 build/default/production/_ext/1360937237/dev_adapter.o
 .text          0x00000000        0x0 build/default/production/_ext/1360937237/dev_hal.o
 .data          0x00000000        0x0 build/default/production/_ext/1360937237/dev_hal.o
 .bss           0x00000000        0x0 build/default/production/_ext/1360937237/dev_hal.o
 .text.dev_hal_rts_ctl
                0x00000000        0x4 build/default/production/_ext/1360937237/dev_hal.o
 .text.dev_hal_write
                0x00000000       0xe0 build/default/production/_ext/1360937237/dev_hal.o
 .rodata        0x00000000       0x38 build/default/production/_ext/1360937237/dev_hal.o
 COMMON         0x00000000        0x4 build/default/production/_ext/1360937237/dev_hal.o
 .text          0x00000000        0x0 build/default/production/_ext/1360937237/dev_timer.o
 .data          0x00000000        0x0 build/default/production/_ext/1360937237/dev_timer.o
 .bss           0x00000000        0x0 build/default/production/_ext/1360937237/dev_timer.o
 .text.dev_timer_restart
                0x00000000        0xc build/default/production/_ext/1360937237/dev_timer.o
 .text          0x00000000        0x0 build/default/production/_ext/1360937237/gsm_gps.o
 .data          0x00000000        0x0 build/default/production/_ext/1360937237/gsm_gps.o
 .bss           0x00000000        0x0 build/default/production/_ext/1360937237/gsm_gps.o
 .text.gsm_ev_ring
                0x00000000        0x2 build/default/production/_ext/1360937237/gsm_gps.o
 .text.gsm_evn_call_id
                0x00000000       0x24 build/default/production/_ext/1360937237/gsm_gps.o
 .text.gsm_act_read_info
                0x00000000       0x40 build/default/production/_ext/1360937237/gsm_gps.o
 .text.readsms  0x00000000      0x14c build/default/production/_ext/1360937237/gsm_gps.o
 .text.gsm_manualAT_info
                0x00000000        0xc build/default/production/_ext/1360937237/gsm_gps.o
 .text.gps_act_pwr_control
                0x00000000       0x20 build/default/production/_ext/1360937237/gsm_gps.o
 .text.gsm_sms_task
                0x00000000       0x38 build/default/production/_ext/1360937237/gsm_gps.o
 .bss.tmp_num   0x00000000       0x14 build/default/production/_ext/1360937237/gsm_gps.o
 .data.finaltxbuff
                0x00000000      0x400 build/default/production/_ext/1360937237/gsm_gps.o
 .text          0x00000000        0x0 build/default/production/_ext/1360937237/app2.o
 .data          0x00000000        0x0 build/default/production/_ext/1360937237/app2.o
 .bss           0x00000000        0x0 build/default/production/_ext/1360937237/app2.o
 .text.loadgpstime
                0x00000000      0x110 build/default/production/_ext/1360937237/app2.o
 .text          0x00000000        0x0 build/default/production/_ext/1360937237/app3.o
 .data          0x00000000        0x0 build/default/production/_ext/1360937237/app3.o
 .bss           0x00000000        0x0 build/default/production/_ext/1360937237/app3.o
 .text.SPIEventHandler
                0x00000000       0x24 build/default/production/_ext/1360937237/app3.o
 .text.crc16_ccitt
                0x00000000       0x4c build/default/production/_ext/1360937237/app3.o
 .bss.crcresult
                0x00000000        0x2 build/default/production/_ext/1360937237/app3.o
 .bss.state     0x00000000        0x1 build/default/production/_ext/1360937237/app3.o
 .text          0x00000000        0x0 build/default/production/_ext/1360937237/ext_flash.o
 .data          0x00000000        0x0 build/default/production/_ext/1360937237/ext_flash.o
 .bss           0x00000000        0x0 build/default/production/_ext/1360937237/ext_flash.o
 .text.EXTFLASH_readStatus
                0x00000000       0x30 build/default/production/_ext/1360937237/ext_flash.o
 .text.EXTFLASH_waitReady
                0x00000000       0x1c build/default/production/_ext/1360937237/ext_flash.o
 .text.EXTFLASH_writeEnable
                0x00000000       0x28 build/default/production/_ext/1360937237/ext_flash.o
 .text.EXTFLASH_open
                0x00000000       0x84 build/default/production/_ext/1360937237/ext_flash.o
 .text.EXTFLASH_read
                0x00000000       0x4c build/default/production/_ext/1360937237/ext_flash.o
 .text.EXTFLASH_write
                0x00000000       0xcc build/default/production/_ext/1360937237/ext_flash.o
 .text.EXTFLASH_erase
                0x00000000       0x80 build/default/production/_ext/1360937237/ext_flash.o
 .text.SPI_Read_Configuration_Register
                0x00000000       0x1c build/default/production/_ext/1360937237/ext_flash.o
 .text.SPI_WRDI
                0x00000000       0x16 build/default/production/_ext/1360937237/ext_flash.o
 .text.SPI_Read
                0x00000000       0x34 build/default/production/_ext/1360937237/ext_flash.o
 .text.SPI_Read_Cont
                0x00000000       0x4e build/default/production/_ext/1360937237/ext_flash.o
 .text.SPI_HighSpeed_Read
                0x00000000       0x3a build/default/production/_ext/1360937237/ext_flash.o
 .text.SPI_Page_Program
                0x00000000       0x48 build/default/production/_ext/1360937237/ext_flash.o
 .text.SPI_Block_Erase
                0x00000000       0x2e build/default/production/_ext/1360937237/ext_flash.o
 .text.SPI_NoOp
                0x00000000       0x16 build/default/production/_ext/1360937237/ext_flash.o
 .text.SPI_ResetEn
                0x00000000       0x16 build/default/production/_ext/1360937237/ext_flash.o
 .text.SPI_Reset
                0x00000000       0x16 build/default/production/_ext/1360937237/ext_flash.o
 .text.SPI_Write_Suspend
                0x00000000       0x16 build/default/production/_ext/1360937237/ext_flash.o
 .text.SPI_Write_Resume
                0x00000000       0x16 build/default/production/_ext/1360937237/ext_flash.o
 .text.SPI_Write_Status_Register
                0x00000000       0x36 build/default/production/_ext/1360937237/ext_flash.o
 .text.SPI_ReadSID
                0x00000000       0x58 build/default/production/_ext/1360937237/ext_flash.o
 .text.SPI_ProgSID
                0x00000000       0x4e build/default/production/_ext/1360937237/ext_flash.o
 .text.SPI_LockSID
                0x00000000       0x16 build/default/production/_ext/1360937237/ext_flash.o
 .text.SPI_ReadBlockProtection
                0x00000000       0x30 build/default/production/_ext/1360937237/ext_flash.o
 .text.SPI_Global_Block_Protection_Unlock
                0x00000000       0x16 build/default/production/_ext/1360937237/ext_flash.o
 .text.SPI_LockBlockProtection
                0x00000000       0x16 build/default/production/_ext/1360937237/ext_flash.o
 .text.SPI_NonVolWriteLockProtection
                0x00000000       0x30 build/default/production/_ext/1360937237/ext_flash.o
 .text.SPI_SFDP_Read
                0x00000000       0x3a build/default/production/_ext/1360937237/ext_flash.o
 .bss.infoBuf   0x00000000        0x2 build/default/production/_ext/1360937237/ext_flash.o
 .bss.pFlashInfo
                0x00000000        0x4 build/default/production/_ext/1360937237/ext_flash.o
 .rodata.flashInfo
                0x00000000       0x10 build/default/production/_ext/1360937237/ext_flash.o
 .text          0x00000000        0x0 build/default/production/_ext/1360937237/app4.o
 .data          0x00000000        0x0 build/default/production/_ext/1360937237/app4.o
 .bss           0x00000000        0x0 build/default/production/_ext/1360937237/app4.o
 .text.APP4_CAN_TxFifoCallback
                0x00000000       0x38 build/default/production/_ext/1360937237/app4.o
 .text.APP4_CAN_RxFifo0Callback
                0x00000000       0x6c build/default/production/_ext/1360937237/app4.o
 .text.print_menu
                0x00000000       0x10 build/default/production/_ext/1360937237/app4.o
 .bss.messageID
                0x00000000        0x4 build/default/production/_ext/1360937237/app4.o
 .bss.messageLength
                0x00000000        0x1 build/default/production/_ext/1360937237/app4.o
 .bss.rxFiFo0   0x00000000       0x10 build/default/production/_ext/1360937237/app4.o
 .bss.rx_messageLength
                0x00000000        0x1 build/default/production/_ext/1360937237/app4.o
 .bss.tx_set    0x00000000        0x1 build/default/production/_ext/1360937237/app4.o
 .text          0x00000000        0x0 c:/program files (x86)/microchip/xc32/v2.30/bin/bin/../../lib/gcc/pic32c/6.2.1/../../../../pic32c/lib\libpic32c.a(data_init.o)
 .data          0x00000000        0x0 c:/program files (x86)/microchip/xc32/v2.30/bin/bin/../../lib/gcc/pic32c/6.2.1/../../../../pic32c/lib\libpic32c.a(data_init.o)
 .bss           0x00000000        0x0 c:/program files (x86)/microchip/xc32/v2.30/bin/bin/../../lib/gcc/pic32c/6.2.1/../../../../pic32c/lib\libpic32c.a(data_init.o)
 .data          0x00000000        0x0 c:/program files (x86)/microchip/xc32/v2.30/bin/bin/../../lib/gcc/pic32c/6.2.1\libgcc.a(_udivsi3.o)
 .bss           0x00000000        0x0 c:/program files (x86)/microchip/xc32/v2.30/bin/bin/../../lib/gcc/pic32c/6.2.1\libgcc.a(_udivsi3.o)
 .data          0x00000000        0x0 c:/program files (x86)/microchip/xc32/v2.30/bin/bin/../../lib/gcc/pic32c/6.2.1\libgcc.a(_divsi3.o)
 .bss           0x00000000        0x0 c:/program files (x86)/microchip/xc32/v2.30/bin/bin/../../lib/gcc/pic32c/6.2.1\libgcc.a(_divsi3.o)
 .data          0x00000000        0x0 c:/program files (x86)/microchip/xc32/v2.30/bin/bin/../../lib/gcc/pic32c/6.2.1\libgcc.a(_dvmd_tls.o)
 .bss           0x00000000        0x0 c:/program files (x86)/microchip/xc32/v2.30/bin/bin/../../lib/gcc/pic32c/6.2.1\libgcc.a(_dvmd_tls.o)
 .data          0x00000000        0x0 c:/program files (x86)/microchip/xc32/v2.30/bin/bin/../../lib/gcc/pic32c/6.2.1\libgcc.a(_arm_cmpdf2.o)
 .bss           0x00000000        0x0 c:/program files (x86)/microchip/xc32/v2.30/bin/bin/../../lib/gcc/pic32c/6.2.1\libgcc.a(_arm_cmpdf2.o)
 .data          0x00000000        0x0 c:/program files (x86)/microchip/xc32/v2.30/bin/bin/../../lib/gcc/pic32c/6.2.1\libgcc.a(_arm_cmpsf2.o)
 .bss           0x00000000        0x0 c:/program files (x86)/microchip/xc32/v2.30/bin/bin/../../lib/gcc/pic32c/6.2.1\libgcc.a(_arm_cmpsf2.o)
 .data          0x00000000        0x0 c:/program files (x86)/microchip/xc32/v2.30/bin/bin/../../lib/gcc/pic32c/6.2.1\libgcc.a(_aeabi_uldivmod.o)
 .bss           0x00000000        0x0 c:/program files (x86)/microchip/xc32/v2.30/bin/bin/../../lib/gcc/pic32c/6.2.1\libgcc.a(_aeabi_uldivmod.o)
 .data          0x00000000        0x0 c:/program files (x86)/microchip/xc32/v2.30/bin/bin/../../lib/gcc/pic32c/6.2.1\libgcc.a(_muldi3.o)
 .bss           0x00000000        0x0 c:/program files (x86)/microchip/xc32/v2.30/bin/bin/../../lib/gcc/pic32c/6.2.1\libgcc.a(_muldi3.o)
 .data          0x00000000        0x0 c:/program files (x86)/microchip/xc32/v2.30/bin/bin/../../lib/gcc/pic32c/6.2.1\libgcc.a(_fixunssfsi.o)
 .bss           0x00000000        0x0 c:/program files (x86)/microchip/xc32/v2.30/bin/bin/../../lib/gcc/pic32c/6.2.1\libgcc.a(_fixunssfsi.o)
 .data          0x00000000        0x0 c:/program files (x86)/microchip/xc32/v2.30/bin/bin/../../lib/gcc/pic32c/6.2.1\libgcc.a(_fixunsdfsi.o)
 .bss           0x00000000        0x0 c:/program files (x86)/microchip/xc32/v2.30/bin/bin/../../lib/gcc/pic32c/6.2.1\libgcc.a(_fixunsdfsi.o)
 .data          0x00000000        0x0 c:/program files (x86)/microchip/xc32/v2.30/bin/bin/../../lib/gcc/pic32c/6.2.1\libgcc.a(_udivmoddi4.o)
 .bss           0x00000000        0x0 c:/program files (x86)/microchip/xc32/v2.30/bin/bin/../../lib/gcc/pic32c/6.2.1\libgcc.a(_udivmoddi4.o)
 .ARM.extab     0x00000000        0x0 c:/program files (x86)/microchip/xc32/v2.30/bin/bin/../../lib/gcc/pic32c/6.2.1\libgcc.a(_udivmoddi4.o)
 .data          0x00000000        0x0 c:/program files (x86)/microchip/xc32/v2.30/bin/bin/../../lib/gcc/pic32c/6.2.1\libgcc.a(addsf3.o)
 .bss           0x00000000        0x0 c:/program files (x86)/microchip/xc32/v2.30/bin/bin/../../lib/gcc/pic32c/6.2.1\libgcc.a(addsf3.o)
 .data          0x00000000        0x0 c:/program files (x86)/microchip/xc32/v2.30/bin/bin/../../lib/gcc/pic32c/6.2.1\libgcc.a(divsf3.o)
 .bss           0x00000000        0x0 c:/program files (x86)/microchip/xc32/v2.30/bin/bin/../../lib/gcc/pic32c/6.2.1\libgcc.a(divsf3.o)
 .data          0x00000000        0x0 c:/program files (x86)/microchip/xc32/v2.30/bin/bin/../../lib/gcc/pic32c/6.2.1\libgcc.a(eqsf2.o)
 .bss           0x00000000        0x0 c:/program files (x86)/microchip/xc32/v2.30/bin/bin/../../lib/gcc/pic32c/6.2.1\libgcc.a(eqsf2.o)
 .data          0x00000000        0x0 c:/program files (x86)/microchip/xc32/v2.30/bin/bin/../../lib/gcc/pic32c/6.2.1\libgcc.a(gesf2.o)
 .bss           0x00000000        0x0 c:/program files (x86)/microchip/xc32/v2.30/bin/bin/../../lib/gcc/pic32c/6.2.1\libgcc.a(gesf2.o)
 .data          0x00000000        0x0 c:/program files (x86)/microchip/xc32/v2.30/bin/bin/../../lib/gcc/pic32c/6.2.1\libgcc.a(lesf2.o)
 .bss           0x00000000        0x0 c:/program files (x86)/microchip/xc32/v2.30/bin/bin/../../lib/gcc/pic32c/6.2.1\libgcc.a(lesf2.o)
 .data          0x00000000        0x0 c:/program files (x86)/microchip/xc32/v2.30/bin/bin/../../lib/gcc/pic32c/6.2.1\libgcc.a(subsf3.o)
 .bss           0x00000000        0x0 c:/program files (x86)/microchip/xc32/v2.30/bin/bin/../../lib/gcc/pic32c/6.2.1\libgcc.a(subsf3.o)
 .data          0x00000000        0x0 c:/program files (x86)/microchip/xc32/v2.30/bin/bin/../../lib/gcc/pic32c/6.2.1\libgcc.a(fixsfsi.o)
 .bss           0x00000000        0x0 c:/program files (x86)/microchip/xc32/v2.30/bin/bin/../../lib/gcc/pic32c/6.2.1\libgcc.a(fixsfsi.o)
 .data          0x00000000        0x0 c:/program files (x86)/microchip/xc32/v2.30/bin/bin/../../lib/gcc/pic32c/6.2.1\libgcc.a(floatsisf.o)
 .bss           0x00000000        0x0 c:/program files (x86)/microchip/xc32/v2.30/bin/bin/../../lib/gcc/pic32c/6.2.1\libgcc.a(floatsisf.o)
 .data          0x00000000        0x0 c:/program files (x86)/microchip/xc32/v2.30/bin/bin/../../lib/gcc/pic32c/6.2.1\libgcc.a(floatunsisf.o)
 .bss           0x00000000        0x0 c:/program files (x86)/microchip/xc32/v2.30/bin/bin/../../lib/gcc/pic32c/6.2.1\libgcc.a(floatunsisf.o)
 .data          0x00000000        0x0 c:/program files (x86)/microchip/xc32/v2.30/bin/bin/../../lib/gcc/pic32c/6.2.1\libgcc.a(adddf3.o)
 .bss           0x00000000        0x0 c:/program files (x86)/microchip/xc32/v2.30/bin/bin/../../lib/gcc/pic32c/6.2.1\libgcc.a(adddf3.o)
 .data          0x00000000        0x0 c:/program files (x86)/microchip/xc32/v2.30/bin/bin/../../lib/gcc/pic32c/6.2.1\libgcc.a(divdf3.o)
 .bss           0x00000000        0x0 c:/program files (x86)/microchip/xc32/v2.30/bin/bin/../../lib/gcc/pic32c/6.2.1\libgcc.a(divdf3.o)
 .data          0x00000000        0x0 c:/program files (x86)/microchip/xc32/v2.30/bin/bin/../../lib/gcc/pic32c/6.2.1\libgcc.a(eqdf2.o)
 .bss           0x00000000        0x0 c:/program files (x86)/microchip/xc32/v2.30/bin/bin/../../lib/gcc/pic32c/6.2.1\libgcc.a(eqdf2.o)
 .data          0x00000000        0x0 c:/program files (x86)/microchip/xc32/v2.30/bin/bin/../../lib/gcc/pic32c/6.2.1\libgcc.a(gedf2.o)
 .bss           0x00000000        0x0 c:/program files (x86)/microchip/xc32/v2.30/bin/bin/../../lib/gcc/pic32c/6.2.1\libgcc.a(gedf2.o)
 .data          0x00000000        0x0 c:/program files (x86)/microchip/xc32/v2.30/bin/bin/../../lib/gcc/pic32c/6.2.1\libgcc.a(ledf2.o)
 .bss           0x00000000        0x0 c:/program files (x86)/microchip/xc32/v2.30/bin/bin/../../lib/gcc/pic32c/6.2.1\libgcc.a(ledf2.o)
 .data          0x00000000        0x0 c:/program files (x86)/microchip/xc32/v2.30/bin/bin/../../lib/gcc/pic32c/6.2.1\libgcc.a(muldf3.o)
 .bss           0x00000000        0x0 c:/program files (x86)/microchip/xc32/v2.30/bin/bin/../../lib/gcc/pic32c/6.2.1\libgcc.a(muldf3.o)
 .data          0x00000000        0x0 c:/program files (x86)/microchip/xc32/v2.30/bin/bin/../../lib/gcc/pic32c/6.2.1\libgcc.a(subdf3.o)
 .bss           0x00000000        0x0 c:/program files (x86)/microchip/xc32/v2.30/bin/bin/../../lib/gcc/pic32c/6.2.1\libgcc.a(subdf3.o)
 .data          0x00000000        0x0 c:/program files (x86)/microchip/xc32/v2.30/bin/bin/../../lib/gcc/pic32c/6.2.1\libgcc.a(fixdfsi.o)
 .bss           0x00000000        0x0 c:/program files (x86)/microchip/xc32/v2.30/bin/bin/../../lib/gcc/pic32c/6.2.1\libgcc.a(fixdfsi.o)
 .data          0x00000000        0x0 c:/program files (x86)/microchip/xc32/v2.30/bin/bin/../../lib/gcc/pic32c/6.2.1\libgcc.a(floatsidf.o)
 .bss           0x00000000        0x0 c:/program files (x86)/microchip/xc32/v2.30/bin/bin/../../lib/gcc/pic32c/6.2.1\libgcc.a(floatsidf.o)
 .data          0x00000000        0x0 c:/program files (x86)/microchip/xc32/v2.30/bin/bin/../../lib/gcc/pic32c/6.2.1\libgcc.a(floatunsidf.o)
 .bss           0x00000000        0x0 c:/program files (x86)/microchip/xc32/v2.30/bin/bin/../../lib/gcc/pic32c/6.2.1\libgcc.a(floatunsidf.o)
 .data          0x00000000        0x0 c:/program files (x86)/microchip/xc32/v2.30/bin/bin/../../lib/gcc/pic32c/6.2.1\libgcc.a(extendsfdf2.o)
 .bss           0x00000000        0x0 c:/program files (x86)/microchip/xc32/v2.30/bin/bin/../../lib/gcc/pic32c/6.2.1\libgcc.a(extendsfdf2.o)
 .data          0x00000000        0x0 c:/program files (x86)/microchip/xc32/v2.30/bin/bin/../../lib/gcc/pic32c/6.2.1\libgcc.a(truncdfsf2.o)
 .bss           0x00000000        0x0 c:/program files (x86)/microchip/xc32/v2.30/bin/bin/../../lib/gcc/pic32c/6.2.1\libgcc.a(truncdfsf2.o)
 .data          0x00000000        0x0 c:/program files (x86)/microchip/xc32/v2.30/bin/bin/../../lib/gcc/pic32c/6.2.1\libgcc.a(_thumb1_case_uqi.o)
 .bss           0x00000000        0x0 c:/program files (x86)/microchip/xc32/v2.30/bin/bin/../../lib/gcc/pic32c/6.2.1\libgcc.a(_thumb1_case_uqi.o)
 .data          0x00000000        0x0 c:/program files (x86)/microchip/xc32/v2.30/bin/bin/../../lib/gcc/pic32c/6.2.1\libgcc.a(_thumb1_case_uhi.o)
 .bss           0x00000000        0x0 c:/program files (x86)/microchip/xc32/v2.30/bin/bin/../../lib/gcc/pic32c/6.2.1\libgcc.a(_thumb1_case_uhi.o)
 .data          0x00000000        0x0 c:/program files (x86)/microchip/xc32/v2.30/bin/bin/../../lib/gcc/pic32c/6.2.1\libgcc.a(_lshrdi3.o)
 .bss           0x00000000        0x0 c:/program files (x86)/microchip/xc32/v2.30/bin/bin/../../lib/gcc/pic32c/6.2.1\libgcc.a(_lshrdi3.o)
 .data          0x00000000        0x0 c:/program files (x86)/microchip/xc32/v2.30/bin/bin/../../lib/gcc/pic32c/6.2.1\libgcc.a(_ashldi3.o)
 .bss           0x00000000        0x0 c:/program files (x86)/microchip/xc32/v2.30/bin/bin/../../lib/gcc/pic32c/6.2.1\libgcc.a(_ashldi3.o)
 .data          0x00000000        0x0 c:/program files (x86)/microchip/xc32/v2.30/bin/bin/../../lib/gcc/pic32c/6.2.1\libgcc.a(_clzsi2.o)
 .bss           0x00000000        0x0 c:/program files (x86)/microchip/xc32/v2.30/bin/bin/../../lib/gcc/pic32c/6.2.1\libgcc.a(_clzsi2.o)
 .data          0x00000000        0x0 c:/program files (x86)/microchip/xc32/v2.30/bin/bin/../../lib/gcc/pic32c/6.2.1\libgcc.a(_clzdi2.o)
 .bss           0x00000000        0x0 c:/program files (x86)/microchip/xc32/v2.30/bin/bin/../../lib/gcc/pic32c/6.2.1\libgcc.a(_clzdi2.o)
 .text          0x00000000        0x0 c:/program files (x86)/microchip/xc32/v2.30/bin/bin/../../lib/gcc/pic32c/6.2.1/../../../../pic32c/lib\libc.a(lib_a-atof.o)
 .data          0x00000000        0x0 c:/program files (x86)/microchip/xc32/v2.30/bin/bin/../../lib/gcc/pic32c/6.2.1/../../../../pic32c/lib\libc.a(lib_a-atof.o)
 .bss           0x00000000        0x0 c:/program files (x86)/microchip/xc32/v2.30/bin/bin/../../lib/gcc/pic32c/6.2.1/../../../../pic32c/lib\libc.a(lib_a-atof.o)
 .text          0x00000000        0x0 c:/program files (x86)/microchip/xc32/v2.30/bin/bin/../../lib/gcc/pic32c/6.2.1/../../../../pic32c/lib\libc.a(lib_a-atol.o)
 .data          0x00000000        0x0 c:/program files (x86)/microchip/xc32/v2.30/bin/bin/../../lib/gcc/pic32c/6.2.1/../../../../pic32c/lib\libc.a(lib_a-atol.o)
 .bss           0x00000000        0x0 c:/program files (x86)/microchip/xc32/v2.30/bin/bin/../../lib/gcc/pic32c/6.2.1/../../../../pic32c/lib\libc.a(lib_a-atol.o)
 .text._atol_r  0x00000000        0xc c:/program files (x86)/microchip/xc32/v2.30/bin/bin/../../lib/gcc/pic32c/6.2.1/../../../../pic32c/lib\libc.a(lib_a-atol.o)
 .text          0x00000000        0x0 c:/program files (x86)/microchip/xc32/v2.30/bin/bin/../../lib/gcc/pic32c/6.2.1/../../../../pic32c/lib\libc.a(lib_a-impure.o)
 .data          0x00000000        0x0 c:/program files (x86)/microchip/xc32/v2.30/bin/bin/../../lib/gcc/pic32c/6.2.1/../../../../pic32c/lib\libc.a(lib_a-impure.o)
 .bss           0x00000000        0x0 c:/program files (x86)/microchip/xc32/v2.30/bin/bin/../../lib/gcc/pic32c/6.2.1/../../../../pic32c/lib\libc.a(lib_a-impure.o)
 .rodata._global_impure_ptr
                0x00000000        0x4 c:/program files (x86)/microchip/xc32/v2.30/bin/bin/../../lib/gcc/pic32c/6.2.1/../../../../pic32c/lib\libc.a(lib_a-impure.o)
 .text          0x00000000        0x0 c:/program files (x86)/microchip/xc32/v2.30/bin/bin/../../lib/gcc/pic32c/6.2.1/../../../../pic32c/lib\libc.a(lib_a-init.o)
 .data          0x00000000        0x0 c:/program files (x86)/microchip/xc32/v2.30/bin/bin/../../lib/gcc/pic32c/6.2.1/../../../../pic32c/lib\libc.a(lib_a-init.o)
 .bss           0x00000000        0x0 c:/program files (x86)/microchip/xc32/v2.30/bin/bin/../../lib/gcc/pic32c/6.2.1/../../../../pic32c/lib\libc.a(lib_a-init.o)
 .text          0x00000000        0x0 c:/program files (x86)/microchip/xc32/v2.30/bin/bin/../../lib/gcc/pic32c/6.2.1/../../../../pic32c/lib\libc.a(lib_a-memcpy-stub.o)
 .data          0x00000000        0x0 c:/program files (x86)/microchip/xc32/v2.30/bin/bin/../../lib/gcc/pic32c/6.2.1/../../../../pic32c/lib\libc.a(lib_a-memcpy-stub.o)
 .bss           0x00000000        0x0 c:/program files (x86)/microchip/xc32/v2.30/bin/bin/../../lib/gcc/pic32c/6.2.1/../../../../pic32c/lib\libc.a(lib_a-memcpy-stub.o)
 .text          0x00000000        0x0 c:/program files (x86)/microchip/xc32/v2.30/bin/bin/../../lib/gcc/pic32c/6.2.1/../../../../pic32c/lib\libc.a(lib_a-memset.o)
 .data          0x00000000        0x0 c:/program files (x86)/microchip/xc32/v2.30/bin/bin/../../lib/gcc/pic32c/6.2.1/../../../../pic32c/lib\libc.a(lib_a-memset.o)
 .bss           0x00000000        0x0 c:/program files (x86)/microchip/xc32/v2.30/bin/bin/../../lib/gcc/pic32c/6.2.1/../../../../pic32c/lib\libc.a(lib_a-memset.o)
 .text          0x00000000        0x0 c:/program files (x86)/microchip/xc32/v2.30/bin/bin/../../lib/gcc/pic32c/6.2.1/../../../../pic32c/lib\libc.a(lib_a-printf.o)
 .data          0x00000000        0x0 c:/program files (x86)/microchip/xc32/v2.30/bin/bin/../../lib/gcc/pic32c/6.2.1/../../../../pic32c/lib\libc.a(lib_a-printf.o)
 .bss           0x00000000        0x0 c:/program files (x86)/microchip/xc32/v2.30/bin/bin/../../lib/gcc/pic32c/6.2.1/../../../../pic32c/lib\libc.a(lib_a-printf.o)
 .text._printf_r
                0x00000000       0x18 c:/program files (x86)/microchip/xc32/v2.30/bin/bin/../../lib/gcc/pic32c/6.2.1/../../../../pic32c/lib\libc.a(lib_a-printf.o)
 .text          0x00000000        0x0 c:/program files (x86)/microchip/xc32/v2.30/bin/bin/../../lib/gcc/pic32c/6.2.1/../../../../pic32c/lib\libc.a(lib_a-puts.o)
 .data          0x00000000        0x0 c:/program files (x86)/microchip/xc32/v2.30/bin/bin/../../lib/gcc/pic32c/6.2.1/../../../../pic32c/lib\libc.a(lib_a-puts.o)
 .bss           0x00000000        0x0 c:/program files (x86)/microchip/xc32/v2.30/bin/bin/../../lib/gcc/pic32c/6.2.1/../../../../pic32c/lib\libc.a(lib_a-puts.o)
 .text          0x00000000        0x0 c:/program files (x86)/microchip/xc32/v2.30/bin/bin/../../lib/gcc/pic32c/6.2.1/../../../../pic32c/lib\libc.a(lib_a-setbuf.o)
 .data          0x00000000        0x0 c:/program files (x86)/microchip/xc32/v2.30/bin/bin/../../lib/gcc/pic32c/6.2.1/../../../../pic32c/lib\libc.a(lib_a-setbuf.o)
 .bss           0x00000000        0x0 c:/program files (x86)/microchip/xc32/v2.30/bin/bin/../../lib/gcc/pic32c/6.2.1/../../../../pic32c/lib\libc.a(lib_a-setbuf.o)
 .text          0x00000000        0x0 c:/program files (x86)/microchip/xc32/v2.30/bin/bin/../../lib/gcc/pic32c/6.2.1/../../../../pic32c/lib\libc.a(lib_a-setvbuf.o)
 .data          0x00000000        0x0 c:/program files (x86)/microchip/xc32/v2.30/bin/bin/../../lib/gcc/pic32c/6.2.1/../../../../pic32c/lib\libc.a(lib_a-setvbuf.o)
 .bss           0x00000000        0x0 c:/program files (x86)/microchip/xc32/v2.30/bin/bin/../../lib/gcc/pic32c/6.2.1/../../../../pic32c/lib\libc.a(lib_a-setvbuf.o)
 .text          0x00000000        0x0 c:/program files (x86)/microchip/xc32/v2.30/bin/bin/../../lib/gcc/pic32c/6.2.1/../../../../pic32c/lib\libc.a(lib_a-sprintf.o)
 .data          0x00000000        0x0 c:/program files (x86)/microchip/xc32/v2.30/bin/bin/../../lib/gcc/pic32c/6.2.1/../../../../pic32c/lib\libc.a(lib_a-sprintf.o)
 .bss           0x00000000        0x0 c:/program files (x86)/microchip/xc32/v2.30/bin/bin/../../lib/gcc/pic32c/6.2.1/../../../../pic32c/lib\libc.a(lib_a-sprintf.o)
 .text._sprintf_r
                0x00000000       0x40 c:/program files (x86)/microchip/xc32/v2.30/bin/bin/../../lib/gcc/pic32c/6.2.1/../../../../pic32c/lib\libc.a(lib_a-sprintf.o)
 .text          0x00000000        0x0 c:/program files (x86)/microchip/xc32/v2.30/bin/bin/../../lib/gcc/pic32c/6.2.1/../../../../pic32c/lib\libc.a(lib_a-strcat.o)
 .data          0x00000000        0x0 c:/program files (x86)/microchip/xc32/v2.30/bin/bin/../../lib/gcc/pic32c/6.2.1/../../../../pic32c/lib\libc.a(lib_a-strcat.o)
 .bss           0x00000000        0x0 c:/program files (x86)/microchip/xc32/v2.30/bin/bin/../../lib/gcc/pic32c/6.2.1/../../../../pic32c/lib\libc.a(lib_a-strcat.o)
 .text          0x00000000        0x0 c:/program files (x86)/microchip/xc32/v2.30/bin/bin/../../lib/gcc/pic32c/6.2.1/../../../../pic32c/lib\libc.a(lib_a-strchr.o)
 .data          0x00000000        0x0 c:/program files (x86)/microchip/xc32/v2.30/bin/bin/../../lib/gcc/pic32c/6.2.1/../../../../pic32c/lib\libc.a(lib_a-strchr.o)
 .bss           0x00000000        0x0 c:/program files (x86)/microchip/xc32/v2.30/bin/bin/../../lib/gcc/pic32c/6.2.1/../../../../pic32c/lib\libc.a(lib_a-strchr.o)
 .data          0x00000000        0x0 c:/program files (x86)/microchip/xc32/v2.30/bin/bin/../../lib/gcc/pic32c/6.2.1/../../../../pic32c/lib\libc.a(lib_a-strcmp.o)
 .bss           0x00000000        0x0 c:/program files (x86)/microchip/xc32/v2.30/bin/bin/../../lib/gcc/pic32c/6.2.1/../../../../pic32c/lib\libc.a(lib_a-strcmp.o)
 .text          0x00000000        0x0 c:/program files (x86)/microchip/xc32/v2.30/bin/bin/../../lib/gcc/pic32c/6.2.1/../../../../pic32c/lib\libc.a(lib_a-strcpy.o)
 .data          0x00000000        0x0 c:/program files (x86)/microchip/xc32/v2.30/bin/bin/../../lib/gcc/pic32c/6.2.1/../../../../pic32c/lib\libc.a(lib_a-strcpy.o)
 .bss           0x00000000        0x0 c:/program files (x86)/microchip/xc32/v2.30/bin/bin/../../lib/gcc/pic32c/6.2.1/../../../../pic32c/lib\libc.a(lib_a-strcpy.o)
 .data          0x00000000        0x0 c:/program files (x86)/microchip/xc32/v2.30/bin/bin/../../lib/gcc/pic32c/6.2.1/../../../../pic32c/lib\libc.a(lib_a-strlen.o)
 .bss           0x00000000        0x0 c:/program files (x86)/microchip/xc32/v2.30/bin/bin/../../lib/gcc/pic32c/6.2.1/../../../../pic32c/lib\libc.a(lib_a-strlen.o)
 .text          0x00000000        0x0 c:/program files (x86)/microchip/xc32/v2.30/bin/bin/../../lib/gcc/pic32c/6.2.1/../../../../pic32c/lib\libc.a(lib_a-strncpy.o)
 .data          0x00000000        0x0 c:/program files (x86)/microchip/xc32/v2.30/bin/bin/../../lib/gcc/pic32c/6.2.1/../../../../pic32c/lib\libc.a(lib_a-strncpy.o)
 .bss           0x00000000        0x0 c:/program files (x86)/microchip/xc32/v2.30/bin/bin/../../lib/gcc/pic32c/6.2.1/../../../../pic32c/lib\libc.a(lib_a-strncpy.o)
 .text          0x00000000        0x0 c:/program files (x86)/microchip/xc32/v2.30/bin/bin/../../lib/gcc/pic32c/6.2.1/../../../../pic32c/lib\libc.a(lib_a-strstr.o)
 .data          0x00000000        0x0 c:/program files (x86)/microchip/xc32/v2.30/bin/bin/../../lib/gcc/pic32c/6.2.1/../../../../pic32c/lib\libc.a(lib_a-strstr.o)
 .bss           0x00000000        0x0 c:/program files (x86)/microchip/xc32/v2.30/bin/bin/../../lib/gcc/pic32c/6.2.1/../../../../pic32c/lib\libc.a(lib_a-strstr.o)
 .text          0x00000000        0x0 c:/program files (x86)/microchip/xc32/v2.30/bin/bin/../../lib/gcc/pic32c/6.2.1/../../../../pic32c/lib\libc.a(lib_a-strtod.o)
 .data          0x00000000        0x0 c:/program files (x86)/microchip/xc32/v2.30/bin/bin/../../lib/gcc/pic32c/6.2.1/../../../../pic32c/lib\libc.a(lib_a-strtod.o)
 .bss           0x00000000        0x0 c:/program files (x86)/microchip/xc32/v2.30/bin/bin/../../lib/gcc/pic32c/6.2.1/../../../../pic32c/lib\libc.a(lib_a-strtod.o)
 .text._strtod_r
                0x00000000       0x1c c:/program files (x86)/microchip/xc32/v2.30/bin/bin/../../lib/gcc/pic32c/6.2.1/../../../../pic32c/lib\libc.a(lib_a-strtod.o)
 .text.strtod_l
                0x00000000       0x18 c:/program files (x86)/microchip/xc32/v2.30/bin/bin/../../lib/gcc/pic32c/6.2.1/../../../../pic32c/lib\libc.a(lib_a-strtod.o)
 .text.strtof_l
                0x00000000       0x38 c:/program files (x86)/microchip/xc32/v2.30/bin/bin/../../lib/gcc/pic32c/6.2.1/../../../../pic32c/lib\libc.a(lib_a-strtod.o)
 .text.strtof   0x00000000       0x44 c:/program files (x86)/microchip/xc32/v2.30/bin/bin/../../lib/gcc/pic32c/6.2.1/../../../../pic32c/lib\libc.a(lib_a-strtod.o)
 .text          0x00000000        0x0 c:/program files (x86)/microchip/xc32/v2.30/bin/bin/../../lib/gcc/pic32c/6.2.1/../../../../pic32c/lib\libc.a(lib_a-strtok.o)
 .data          0x00000000        0x0 c:/program files (x86)/microchip/xc32/v2.30/bin/bin/../../lib/gcc/pic32c/6.2.1/../../../../pic32c/lib\libc.a(lib_a-strtok.o)
 .bss           0x00000000        0x0 c:/program files (x86)/microchip/xc32/v2.30/bin/bin/../../lib/gcc/pic32c/6.2.1/../../../../pic32c/lib\libc.a(lib_a-strtok.o)
 .text          0x00000000        0x0 c:/program files (x86)/microchip/xc32/v2.30/bin/bin/../../lib/gcc/pic32c/6.2.1/../../../../pic32c/lib\libc.a(lib_a-strtok_r.o)
 .data          0x00000000        0x0 c:/program files (x86)/microchip/xc32/v2.30/bin/bin/../../lib/gcc/pic32c/6.2.1/../../../../pic32c/lib\libc.a(lib_a-strtok_r.o)
 .bss           0x00000000        0x0 c:/program files (x86)/microchip/xc32/v2.30/bin/bin/../../lib/gcc/pic32c/6.2.1/../../../../pic32c/lib\libc.a(lib_a-strtok_r.o)
 .text.strtok_r
                0x00000000        0xa c:/program files (x86)/microchip/xc32/v2.30/bin/bin/../../lib/gcc/pic32c/6.2.1/../../../../pic32c/lib\libc.a(lib_a-strtok_r.o)
 .text          0x00000000        0x0 c:/program files (x86)/microchip/xc32/v2.30/bin/bin/../../lib/gcc/pic32c/6.2.1/../../../../pic32c/lib\libc.a(lib_a-strtol.o)
 .data          0x00000000        0x0 c:/program files (x86)/microchip/xc32/v2.30/bin/bin/../../lib/gcc/pic32c/6.2.1/../../../../pic32c/lib\libc.a(lib_a-strtol.o)
 .bss           0x00000000        0x0 c:/program files (x86)/microchip/xc32/v2.30/bin/bin/../../lib/gcc/pic32c/6.2.1/../../../../pic32c/lib\libc.a(lib_a-strtol.o)
 .text._strtol_r
                0x00000000       0x20 c:/program files (x86)/microchip/xc32/v2.30/bin/bin/../../lib/gcc/pic32c/6.2.1/../../../../pic32c/lib\libc.a(lib_a-strtol.o)
 .text.strtol_l
                0x00000000       0x18 c:/program files (x86)/microchip/xc32/v2.30/bin/bin/../../lib/gcc/pic32c/6.2.1/../../../../pic32c/lib\libc.a(lib_a-strtol.o)
 .text          0x00000000        0x0 c:/program files (x86)/microchip/xc32/v2.30/bin/bin/../../lib/gcc/pic32c/6.2.1/../../../../pic32c/lib\libc.a(lib_a-svfprintf.o)
 .data          0x00000000        0x0 c:/program files (x86)/microchip/xc32/v2.30/bin/bin/../../lib/gcc/pic32c/6.2.1/../../../../pic32c/lib\libc.a(lib_a-svfprintf.o)
 .bss           0x00000000        0x0 c:/program files (x86)/microchip/xc32/v2.30/bin/bin/../../lib/gcc/pic32c/6.2.1/../../../../pic32c/lib\libc.a(lib_a-svfprintf.o)
 .text          0x00000000        0x0 c:/program files (x86)/microchip/xc32/v2.30/bin/bin/../../lib/gcc/pic32c/6.2.1/../../../../pic32c/lib\libc.a(lib_a-vfprintf.o)
 .data          0x00000000        0x0 c:/program files (x86)/microchip/xc32/v2.30/bin/bin/../../lib/gcc/pic32c/6.2.1/../../../../pic32c/lib\libc.a(lib_a-vfprintf.o)
 .bss           0x00000000        0x0 c:/program files (x86)/microchip/xc32/v2.30/bin/bin/../../lib/gcc/pic32c/6.2.1/../../../../pic32c/lib\libc.a(lib_a-vfprintf.o)
 .text.vfprintf
                0x00000000       0x18 c:/program files (x86)/microchip/xc32/v2.30/bin/bin/../../lib/gcc/pic32c/6.2.1/../../../../pic32c/lib\libc.a(lib_a-vfprintf.o)
 .text          0x00000000        0x0 c:/program files (x86)/microchip/xc32/v2.30/bin/bin/../../lib/gcc/pic32c/6.2.1/../../../../pic32c/lib\libc.a(lib_a-wsetup.o)
 .data          0x00000000        0x0 c:/program files (x86)/microchip/xc32/v2.30/bin/bin/../../lib/gcc/pic32c/6.2.1/../../../../pic32c/lib\libc.a(lib_a-wsetup.o)
 .bss           0x00000000        0x0 c:/program files (x86)/microchip/xc32/v2.30/bin/bin/../../lib/gcc/pic32c/6.2.1/../../../../pic32c/lib\libc.a(lib_a-wsetup.o)
 .text          0x00000000        0x0 c:/program files (x86)/microchip/xc32/v2.30/bin/bin/../../lib/gcc/pic32c/6.2.1/../../../../pic32c/lib\libc.a(lib_a-dtoa.o)
 .data          0x00000000        0x0 c:/program files (x86)/microchip/xc32/v2.30/bin/bin/../../lib/gcc/pic32c/6.2.1/../../../../pic32c/lib\libc.a(lib_a-dtoa.o)
 .bss           0x00000000        0x0 c:/program files (x86)/microchip/xc32/v2.30/bin/bin/../../lib/gcc/pic32c/6.2.1/../../../../pic32c/lib\libc.a(lib_a-dtoa.o)
 .text          0x00000000        0x0 c:/program files (x86)/microchip/xc32/v2.30/bin/bin/../../lib/gcc/pic32c/6.2.1/../../../../pic32c/lib\libc.a(lib_a-fflush.o)
 .data          0x00000000        0x0 c:/program files (x86)/microchip/xc32/v2.30/bin/bin/../../lib/gcc/pic32c/6.2.1/../../../../pic32c/lib\libc.a(lib_a-fflush.o)
 .bss           0x00000000        0x0 c:/program files (x86)/microchip/xc32/v2.30/bin/bin/../../lib/gcc/pic32c/6.2.1/../../../../pic32c/lib\libc.a(lib_a-fflush.o)
 .text.fflush   0x00000000       0x28 c:/program files (x86)/microchip/xc32/v2.30/bin/bin/../../lib/gcc/pic32c/6.2.1/../../../../pic32c/lib\libc.a(lib_a-fflush.o)
 .text          0x00000000        0x0 c:/program files (x86)/microchip/xc32/v2.30/bin/bin/../../lib/gcc/pic32c/6.2.1/../../../../pic32c/lib\libc.a(lib_a-findfp.o)
 .data          0x00000000        0x0 c:/program files (x86)/microchip/xc32/v2.30/bin/bin/../../lib/gcc/pic32c/6.2.1/../../../../pic32c/lib\libc.a(lib_a-findfp.o)
 .bss           0x00000000        0x0 c:/program files (x86)/microchip/xc32/v2.30/bin/bin/../../lib/gcc/pic32c/6.2.1/../../../../pic32c/lib\libc.a(lib_a-findfp.o)
 .text.__sfmoreglue
                0x00000000       0x2c c:/program files (x86)/microchip/xc32/v2.30/bin/bin/../../lib/gcc/pic32c/6.2.1/../../../../pic32c/lib\libc.a(lib_a-findfp.o)
 .text._cleanup
                0x00000000       0x10 c:/program files (x86)/microchip/xc32/v2.30/bin/bin/../../lib/gcc/pic32c/6.2.1/../../../../pic32c/lib\libc.a(lib_a-findfp.o)
 .text.__sfp    0x00000000       0x84 c:/program files (x86)/microchip/xc32/v2.30/bin/bin/../../lib/gcc/pic32c/6.2.1/../../../../pic32c/lib\libc.a(lib_a-findfp.o)
 .text          0x00000000        0x0 c:/program files (x86)/microchip/xc32/v2.30/bin/bin/../../lib/gcc/pic32c/6.2.1/../../../../pic32c/lib\libc.a(lib_a-freer.o)
 .data          0x00000000        0x0 c:/program files (x86)/microchip/xc32/v2.30/bin/bin/../../lib/gcc/pic32c/6.2.1/../../../../pic32c/lib\libc.a(lib_a-freer.o)
 .bss           0x00000000        0x0 c:/program files (x86)/microchip/xc32/v2.30/bin/bin/../../lib/gcc/pic32c/6.2.1/../../../../pic32c/lib\libc.a(lib_a-freer.o)
 .text          0x00000000        0x0 c:/program files (x86)/microchip/xc32/v2.30/bin/bin/../../lib/gcc/pic32c/6.2.1/../../../../pic32c/lib\libc.a(lib_a-fvwrite.o)
 .data          0x00000000        0x0 c:/program files (x86)/microchip/xc32/v2.30/bin/bin/../../lib/gcc/pic32c/6.2.1/../../../../pic32c/lib\libc.a(lib_a-fvwrite.o)
 .bss           0x00000000        0x0 c:/program files (x86)/microchip/xc32/v2.30/bin/bin/../../lib/gcc/pic32c/6.2.1/../../../../pic32c/lib\libc.a(lib_a-fvwrite.o)
 .text          0x00000000        0x0 c:/program files (x86)/microchip/xc32/v2.30/bin/bin/../../lib/gcc/pic32c/6.2.1/../../../../pic32c/lib\libc.a(lib_a-fwalk.o)
 .data          0x00000000        0x0 c:/program files (x86)/microchip/xc32/v2.30/bin/bin/../../lib/gcc/pic32c/6.2.1/../../../../pic32c/lib\libc.a(lib_a-fwalk.o)
 .bss           0x00000000        0x0 c:/program files (x86)/microchip/xc32/v2.30/bin/bin/../../lib/gcc/pic32c/6.2.1/../../../../pic32c/lib\libc.a(lib_a-fwalk.o)
 .text._fwalk   0x00000000       0x3a c:/program files (x86)/microchip/xc32/v2.30/bin/bin/../../lib/gcc/pic32c/6.2.1/../../../../pic32c/lib\libc.a(lib_a-fwalk.o)
 .text          0x00000000        0x0 c:/program files (x86)/microchip/xc32/v2.30/bin/bin/../../lib/gcc/pic32c/6.2.1/../../../../pic32c/lib\libc.a(lib_a-gdtoa-gethex.o)
 .data          0x00000000        0x0 c:/program files (x86)/microchip/xc32/v2.30/bin/bin/../../lib/gcc/pic32c/6.2.1/../../../../pic32c/lib\libc.a(lib_a-gdtoa-gethex.o)
 .bss           0x00000000        0x0 c:/program files (x86)/microchip/xc32/v2.30/bin/bin/../../lib/gcc/pic32c/6.2.1/../../../../pic32c/lib\libc.a(lib_a-gdtoa-gethex.o)
 .text          0x00000000        0x0 c:/program files (x86)/microchip/xc32/v2.30/bin/bin/../../lib/gcc/pic32c/6.2.1/../../../../pic32c/lib\libc.a(lib_a-gdtoa-hexnan.o)
 .data          0x00000000        0x0 c:/program files (x86)/microchip/xc32/v2.30/bin/bin/../../lib/gcc/pic32c/6.2.1/../../../../pic32c/lib\libc.a(lib_a-gdtoa-hexnan.o)
 .bss           0x00000000        0x0 c:/program files (x86)/microchip/xc32/v2.30/bin/bin/../../lib/gcc/pic32c/6.2.1/../../../../pic32c/lib\libc.a(lib_a-gdtoa-hexnan.o)
 .text          0x00000000        0x0 c:/program files (x86)/microchip/xc32/v2.30/bin/bin/../../lib/gcc/pic32c/6.2.1/../../../../pic32c/lib\libc.a(lib_a-localeconv.o)
 .data          0x00000000        0x0 c:/program files (x86)/microchip/xc32/v2.30/bin/bin/../../lib/gcc/pic32c/6.2.1/../../../../pic32c/lib\libc.a(lib_a-localeconv.o)
 .bss           0x00000000        0x0 c:/program files (x86)/microchip/xc32/v2.30/bin/bin/../../lib/gcc/pic32c/6.2.1/../../../../pic32c/lib\libc.a(lib_a-localeconv.o)
 .text.localeconv
                0x00000000       0x18 c:/program files (x86)/microchip/xc32/v2.30/bin/bin/../../lib/gcc/pic32c/6.2.1/../../../../pic32c/lib\libc.a(lib_a-localeconv.o)
 .text          0x00000000        0x0 c:/program files (x86)/microchip/xc32/v2.30/bin/bin/../../lib/gcc/pic32c/6.2.1/../../../../pic32c/lib\libc.a(lib_a-locale.o)
 .data          0x00000000        0x0 c:/program files (x86)/microchip/xc32/v2.30/bin/bin/../../lib/gcc/pic32c/6.2.1/../../../../pic32c/lib\libc.a(lib_a-locale.o)
 .bss           0x00000000        0x0 c:/program files (x86)/microchip/xc32/v2.30/bin/bin/../../lib/gcc/pic32c/6.2.1/../../../../pic32c/lib\libc.a(lib_a-locale.o)
 .text._setlocale_r
                0x00000000       0x3c c:/program files (x86)/microchip/xc32/v2.30/bin/bin/../../lib/gcc/pic32c/6.2.1/../../../../pic32c/lib\libc.a(lib_a-locale.o)
 .text.__locale_ctype_ptr
                0x00000000       0x1c c:/program files (x86)/microchip/xc32/v2.30/bin/bin/../../lib/gcc/pic32c/6.2.1/../../../../pic32c/lib\libc.a(lib_a-locale.o)
 .text.setlocale
                0x00000000       0x14 c:/program files (x86)/microchip/xc32/v2.30/bin/bin/../../lib/gcc/pic32c/6.2.1/../../../../pic32c/lib\libc.a(lib_a-locale.o)
 .bss._PathLocale
                0x00000000        0x4 c:/program files (x86)/microchip/xc32/v2.30/bin/bin/../../lib/gcc/pic32c/6.2.1/../../../../pic32c/lib\libc.a(lib_a-locale.o)
 .text          0x00000000        0x0 c:/program files (x86)/microchip/xc32/v2.30/bin/bin/../../lib/gcc/pic32c/6.2.1/../../../../pic32c/lib\libc.a(lib_a-makebuf.o)
 .data          0x00000000        0x0 c:/program files (x86)/microchip/xc32/v2.30/bin/bin/../../lib/gcc/pic32c/6.2.1/../../../../pic32c/lib\libc.a(lib_a-makebuf.o)
 .bss           0x00000000        0x0 c:/program files (x86)/microchip/xc32/v2.30/bin/bin/../../lib/gcc/pic32c/6.2.1/../../../../pic32c/lib\libc.a(lib_a-makebuf.o)
 .text          0x00000000        0x0 c:/program files (x86)/microchip/xc32/v2.30/bin/bin/../../lib/gcc/pic32c/6.2.1/../../../../pic32c/lib\libc.a(lib_a-malloc.o)
 .data          0x00000000        0x0 c:/program files (x86)/microchip/xc32/v2.30/bin/bin/../../lib/gcc/pic32c/6.2.1/../../../../pic32c/lib\libc.a(lib_a-malloc.o)
 .bss           0x00000000        0x0 c:/program files (x86)/microchip/xc32/v2.30/bin/bin/../../lib/gcc/pic32c/6.2.1/../../../../pic32c/lib\libc.a(lib_a-malloc.o)
 .text.free     0x00000000       0x14 c:/program files (x86)/microchip/xc32/v2.30/bin/bin/../../lib/gcc/pic32c/6.2.1/../../../../pic32c/lib\libc.a(lib_a-malloc.o)
 .text          0x00000000        0x0 c:/program files (x86)/microchip/xc32/v2.30/bin/bin/../../lib/gcc/pic32c/6.2.1/../../../../pic32c/lib\libc.a(lib_a-mallocr.o)
 .data          0x00000000        0x0 c:/program files (x86)/microchip/xc32/v2.30/bin/bin/../../lib/gcc/pic32c/6.2.1/../../../../pic32c/lib\libc.a(lib_a-mallocr.o)
 .bss           0x00000000        0x0 c:/program files (x86)/microchip/xc32/v2.30/bin/bin/../../lib/gcc/pic32c/6.2.1/../../../../pic32c/lib\libc.a(lib_a-mallocr.o)
 .text          0x00000000        0x0 c:/program files (x86)/microchip/xc32/v2.30/bin/bin/../../lib/gcc/pic32c/6.2.1/../../../../pic32c/lib\libc.a(lib_a-mbtowc_r.o)
 .data          0x00000000        0x0 c:/program files (x86)/microchip/xc32/v2.30/bin/bin/../../lib/gcc/pic32c/6.2.1/../../../../pic32c/lib\libc.a(lib_a-mbtowc_r.o)
 .bss           0x00000000        0x0 c:/program files (x86)/microchip/xc32/v2.30/bin/bin/../../lib/gcc/pic32c/6.2.1/../../../../pic32c/lib\libc.a(lib_a-mbtowc_r.o)
 .text._mbtowc_r
                0x00000000       0x24 c:/program files (x86)/microchip/xc32/v2.30/bin/bin/../../lib/gcc/pic32c/6.2.1/../../../../pic32c/lib\libc.a(lib_a-mbtowc_r.o)
 .text          0x00000000        0x0 c:/program files (x86)/microchip/xc32/v2.30/bin/bin/../../lib/gcc/pic32c/6.2.1/../../../../pic32c/lib\libc.a(lib_a-memchr-stub.o)
 .data          0x00000000        0x0 c:/program files (x86)/microchip/xc32/v2.30/bin/bin/../../lib/gcc/pic32c/6.2.1/../../../../pic32c/lib\libc.a(lib_a-memchr-stub.o)
 .bss           0x00000000        0x0 c:/program files (x86)/microchip/xc32/v2.30/bin/bin/../../lib/gcc/pic32c/6.2.1/../../../../pic32c/lib\libc.a(lib_a-memchr-stub.o)
 .text          0x00000000        0x0 c:/program files (x86)/microchip/xc32/v2.30/bin/bin/../../lib/gcc/pic32c/6.2.1/../../../../pic32c/lib\libc.a(lib_a-memmove.o)
 .data          0x00000000        0x0 c:/program files (x86)/microchip/xc32/v2.30/bin/bin/../../lib/gcc/pic32c/6.2.1/../../../../pic32c/lib\libc.a(lib_a-memmove.o)
 .bss           0x00000000        0x0 c:/program files (x86)/microchip/xc32/v2.30/bin/bin/../../lib/gcc/pic32c/6.2.1/../../../../pic32c/lib\libc.a(lib_a-memmove.o)
 .text          0x00000000        0x0 c:/program files (x86)/microchip/xc32/v2.30/bin/bin/../../lib/gcc/pic32c/6.2.1/../../../../pic32c/lib\libc.a(lib_a-mlock.o)
 .data          0x00000000        0x0 c:/program files (x86)/microchip/xc32/v2.30/bin/bin/../../lib/gcc/pic32c/6.2.1/../../../../pic32c/lib\libc.a(lib_a-mlock.o)
 .bss           0x00000000        0x0 c:/program files (x86)/microchip/xc32/v2.30/bin/bin/../../lib/gcc/pic32c/6.2.1/../../../../pic32c/lib\libc.a(lib_a-mlock.o)
 .text          0x00000000        0x0 c:/program files (x86)/microchip/xc32/v2.30/bin/bin/../../lib/gcc/pic32c/6.2.1/../../../../pic32c/lib\libc.a(lib_a-mprec.o)
 .data          0x00000000        0x0 c:/program files (x86)/microchip/xc32/v2.30/bin/bin/../../lib/gcc/pic32c/6.2.1/../../../../pic32c/lib\libc.a(lib_a-mprec.o)
 .bss           0x00000000        0x0 c:/program files (x86)/microchip/xc32/v2.30/bin/bin/../../lib/gcc/pic32c/6.2.1/../../../../pic32c/lib\libc.a(lib_a-mprec.o)
 .text._mprec_log10
                0x00000000       0x34 c:/program files (x86)/microchip/xc32/v2.30/bin/bin/../../lib/gcc/pic32c/6.2.1/../../../../pic32c/lib\libc.a(lib_a-mprec.o)
 .rodata.__mprec_tinytens
                0x00000000       0x28 c:/program files (x86)/microchip/xc32/v2.30/bin/bin/../../lib/gcc/pic32c/6.2.1/../../../../pic32c/lib\libc.a(lib_a-mprec.o)
 .text          0x00000000        0x0 c:/program files (x86)/microchip/xc32/v2.30/bin/bin/../../lib/gcc/pic32c/6.2.1/../../../../pic32c/lib\libc.a(lib_a-reallocr.o)
 .data          0x00000000        0x0 c:/program files (x86)/microchip/xc32/v2.30/bin/bin/../../lib/gcc/pic32c/6.2.1/../../../../pic32c/lib\libc.a(lib_a-reallocr.o)
 .bss           0x00000000        0x0 c:/program files (x86)/microchip/xc32/v2.30/bin/bin/../../lib/gcc/pic32c/6.2.1/../../../../pic32c/lib\libc.a(lib_a-reallocr.o)
 .text          0x00000000        0x0 c:/program files (x86)/microchip/xc32/v2.30/bin/bin/../../lib/gcc/pic32c/6.2.1/../../../../pic32c/lib\libc.a(lib_a-sbrkr.o)
 .data          0x00000000        0x0 c:/program files (x86)/microchip/xc32/v2.30/bin/bin/../../lib/gcc/pic32c/6.2.1/../../../../pic32c/lib\libc.a(lib_a-sbrkr.o)
 .bss           0x00000000        0x0 c:/program files (x86)/microchip/xc32/v2.30/bin/bin/../../lib/gcc/pic32c/6.2.1/../../../../pic32c/lib\libc.a(lib_a-sbrkr.o)
 .text          0x00000000        0x0 c:/program files (x86)/microchip/xc32/v2.30/bin/bin/../../lib/gcc/pic32c/6.2.1/../../../../pic32c/lib\libc.a(lib_a-sf_nan.o)
 .data          0x00000000        0x0 c:/program files (x86)/microchip/xc32/v2.30/bin/bin/../../lib/gcc/pic32c/6.2.1/../../../../pic32c/lib\libc.a(lib_a-sf_nan.o)
 .bss           0x00000000        0x0 c:/program files (x86)/microchip/xc32/v2.30/bin/bin/../../lib/gcc/pic32c/6.2.1/../../../../pic32c/lib\libc.a(lib_a-sf_nan.o)
 .text.nanf     0x00000000        0x8 c:/program files (x86)/microchip/xc32/v2.30/bin/bin/../../lib/gcc/pic32c/6.2.1/../../../../pic32c/lib\libc.a(lib_a-sf_nan.o)
 .debug_info    0x00000000      0xdaa c:/program files (x86)/microchip/xc32/v2.30/bin/bin/../../lib/gcc/pic32c/6.2.1/../../../../pic32c/lib\libc.a(lib_a-sf_nan.o)
 .debug_abbrev  0x00000000      0x1bf c:/program files (x86)/microchip/xc32/v2.30/bin/bin/../../lib/gcc/pic32c/6.2.1/../../../../pic32c/lib\libc.a(lib_a-sf_nan.o)
 .debug_loc     0x00000000       0x21 c:/program files (x86)/microchip/xc32/v2.30/bin/bin/../../lib/gcc/pic32c/6.2.1/../../../../pic32c/lib\libc.a(lib_a-sf_nan.o)
 .debug_aranges
                0x00000000       0x20 c:/program files (x86)/microchip/xc32/v2.30/bin/bin/../../lib/gcc/pic32c/6.2.1/../../../../pic32c/lib\libc.a(lib_a-sf_nan.o)
 .debug_ranges  0x00000000       0x10 c:/program files (x86)/microchip/xc32/v2.30/bin/bin/../../lib/gcc/pic32c/6.2.1/../../../../pic32c/lib\libc.a(lib_a-sf_nan.o)
 .debug_line    0x00000000      0x1fe c:/program files (x86)/microchip/xc32/v2.30/bin/bin/../../lib/gcc/pic32c/6.2.1/../../../../pic32c/lib\libc.a(lib_a-sf_nan.o)
 .debug_str     0x00000000        0xe c:/program files (x86)/microchip/xc32/v2.30/bin/bin/../../lib/gcc/pic32c/6.2.1/../../../../pic32c/lib\libc.a(lib_a-sf_nan.o)
 .comment       0x00000000       0x3d c:/program files (x86)/microchip/xc32/v2.30/bin/bin/../../lib/gcc/pic32c/6.2.1/../../../../pic32c/lib\libc.a(lib_a-sf_nan.o)
 .debug_frame   0x00000000       0x20 c:/program files (x86)/microchip/xc32/v2.30/bin/bin/../../lib/gcc/pic32c/6.2.1/../../../../pic32c/lib\libc.a(lib_a-sf_nan.o)
 .ARM.attributes
                0x00000000       0x2c c:/program files (x86)/microchip/xc32/v2.30/bin/bin/../../lib/gcc/pic32c/6.2.1/../../../../pic32c/lib\libc.a(lib_a-sf_nan.o)
 .text          0x00000000        0x0 c:/program files (x86)/microchip/xc32/v2.30/bin/bin/../../lib/gcc/pic32c/6.2.1/../../../../pic32c/lib\libc.a(lib_a-s_frexp.o)
 .data          0x00000000        0x0 c:/program files (x86)/microchip/xc32/v2.30/bin/bin/../../lib/gcc/pic32c/6.2.1/../../../../pic32c/lib\libc.a(lib_a-s_frexp.o)
 .bss           0x00000000        0x0 c:/program files (x86)/microchip/xc32/v2.30/bin/bin/../../lib/gcc/pic32c/6.2.1/../../../../pic32c/lib\libc.a(lib_a-s_frexp.o)
 .text          0x00000000        0x0 c:/program files (x86)/microchip/xc32/v2.30/bin/bin/../../lib/gcc/pic32c/6.2.1/../../../../pic32c/lib\libc.a(lib_a-stdio.o)
 .data          0x00000000        0x0 c:/program files (x86)/microchip/xc32/v2.30/bin/bin/../../lib/gcc/pic32c/6.2.1/../../../../pic32c/lib\libc.a(lib_a-stdio.o)
 .bss           0x00000000        0x0 c:/program files (x86)/microchip/xc32/v2.30/bin/bin/../../lib/gcc/pic32c/6.2.1/../../../../pic32c/lib\libc.a(lib_a-stdio.o)
 .text.__seofread
                0x00000000        0x4 c:/program files (x86)/microchip/xc32/v2.30/bin/bin/../../lib/gcc/pic32c/6.2.1/../../../../pic32c/lib\libc.a(lib_a-stdio.o)
 .text          0x00000000        0x0 c:/program files (x86)/microchip/xc32/v2.30/bin/bin/../../lib/gcc/pic32c/6.2.1/../../../../pic32c/lib\libc.a(lib_a-strncmp.o)
 .data          0x00000000        0x0 c:/program files (x86)/microchip/xc32/v2.30/bin/bin/../../lib/gcc/pic32c/6.2.1/../../../../pic32c/lib\libc.a(lib_a-strncmp.o)
 .bss           0x00000000        0x0 c:/program files (x86)/microchip/xc32/v2.30/bin/bin/../../lib/gcc/pic32c/6.2.1/../../../../pic32c/lib\libc.a(lib_a-strncmp.o)
 .text          0x00000000        0x0 c:/program files (x86)/microchip/xc32/v2.30/bin/bin/../../lib/gcc/pic32c/6.2.1/../../../../pic32c/lib\libc.a(lib_a-svfiprintf.o)
 .data          0x00000000        0x0 c:/program files (x86)/microchip/xc32/v2.30/bin/bin/../../lib/gcc/pic32c/6.2.1/../../../../pic32c/lib\libc.a(lib_a-svfiprintf.o)
 .bss           0x00000000        0x0 c:/program files (x86)/microchip/xc32/v2.30/bin/bin/../../lib/gcc/pic32c/6.2.1/../../../../pic32c/lib\libc.a(lib_a-svfiprintf.o)
 .text._svfiprintf_r
                0x00000000      0x944 c:/program files (x86)/microchip/xc32/v2.30/bin/bin/../../lib/gcc/pic32c/6.2.1/../../../../pic32c/lib\libc.a(lib_a-svfiprintf.o)
 .rodata        0x00000000       0x22 c:/program files (x86)/microchip/xc32/v2.30/bin/bin/../../lib/gcc/pic32c/6.2.1/../../../../pic32c/lib\libc.a(lib_a-svfiprintf.o)
 .rodata.blanks.7199
                0x00000000       0x10 c:/program files (x86)/microchip/xc32/v2.30/bin/bin/../../lib/gcc/pic32c/6.2.1/../../../../pic32c/lib\libc.a(lib_a-svfiprintf.o)
 .rodata.zeroes.7200
                0x00000000       0x10 c:/program files (x86)/microchip/xc32/v2.30/bin/bin/../../lib/gcc/pic32c/6.2.1/../../../../pic32c/lib\libc.a(lib_a-svfiprintf.o)
 .text          0x00000000        0x0 c:/program files (x86)/microchip/xc32/v2.30/bin/bin/../../lib/gcc/pic32c/6.2.1/../../../../pic32c/lib\libc.a(lib_a-vfiprintf.o)
 .data          0x00000000        0x0 c:/program files (x86)/microchip/xc32/v2.30/bin/bin/../../lib/gcc/pic32c/6.2.1/../../../../pic32c/lib\libc.a(lib_a-vfiprintf.o)
 .bss           0x00000000        0x0 c:/program files (x86)/microchip/xc32/v2.30/bin/bin/../../lib/gcc/pic32c/6.2.1/../../../../pic32c/lib\libc.a(lib_a-vfiprintf.o)
 .text._vfiprintf_r
                0x00000000      0x998 c:/program files (x86)/microchip/xc32/v2.30/bin/bin/../../lib/gcc/pic32c/6.2.1/../../../../pic32c/lib\libc.a(lib_a-vfiprintf.o)
 .text.vfiprintf
                0x00000000       0x18 c:/program files (x86)/microchip/xc32/v2.30/bin/bin/../../lib/gcc/pic32c/6.2.1/../../../../pic32c/lib\libc.a(lib_a-vfiprintf.o)
 .text.__sbprintf
                0x00000000       0x70 c:/program files (x86)/microchip/xc32/v2.30/bin/bin/../../lib/gcc/pic32c/6.2.1/../../../../pic32c/lib\libc.a(lib_a-vfiprintf.o)
 .rodata        0x00000000       0x22 c:/program files (x86)/microchip/xc32/v2.30/bin/bin/../../lib/gcc/pic32c/6.2.1/../../../../pic32c/lib\libc.a(lib_a-vfiprintf.o)
 .rodata.blanks.7213
                0x00000000       0x10 c:/program files (x86)/microchip/xc32/v2.30/bin/bin/../../lib/gcc/pic32c/6.2.1/../../../../pic32c/lib\libc.a(lib_a-vfiprintf.o)
 .rodata.zeroes.7214
                0x00000000       0x10 c:/program files (x86)/microchip/xc32/v2.30/bin/bin/../../lib/gcc/pic32c/6.2.1/../../../../pic32c/lib\libc.a(lib_a-vfiprintf.o)
 .text          0x00000000        0x0 c:/program files (x86)/microchip/xc32/v2.30/bin/bin/../../lib/gcc/pic32c/6.2.1/../../../../pic32c/lib\libc.a(lib_a-wctomb_r.o)
 .data          0x00000000        0x0 c:/program files (x86)/microchip/xc32/v2.30/bin/bin/../../lib/gcc/pic32c/6.2.1/../../../../pic32c/lib\libc.a(lib_a-wctomb_r.o)
 .bss           0x00000000        0x0 c:/program files (x86)/microchip/xc32/v2.30/bin/bin/../../lib/gcc/pic32c/6.2.1/../../../../pic32c/lib\libc.a(lib_a-wctomb_r.o)
 .text._wctomb_r
                0x00000000       0x20 c:/program files (x86)/microchip/xc32/v2.30/bin/bin/../../lib/gcc/pic32c/6.2.1/../../../../pic32c/lib\libc.a(lib_a-wctomb_r.o)
 .text          0x00000000        0x0 c:/program files (x86)/microchip/xc32/v2.30/bin/bin/../../lib/gcc/pic32c/6.2.1/../../../../pic32c/lib\libc.a(lib_a-writer.o)
 .data          0x00000000        0x0 c:/program files (x86)/microchip/xc32/v2.30/bin/bin/../../lib/gcc/pic32c/6.2.1/../../../../pic32c/lib\libc.a(lib_a-writer.o)
 .bss           0x00000000        0x0 c:/program files (x86)/microchip/xc32/v2.30/bin/bin/../../lib/gcc/pic32c/6.2.1/../../../../pic32c/lib\libc.a(lib_a-writer.o)
 .text          0x00000000        0x0 c:/program files (x86)/microchip/xc32/v2.30/bin/bin/../../lib/gcc/pic32c/6.2.1/../../../../pic32c/lib\libc.a(lib_a-callocr.o)
 .data          0x00000000        0x0 c:/program files (x86)/microchip/xc32/v2.30/bin/bin/../../lib/gcc/pic32c/6.2.1/../../../../pic32c/lib\libc.a(lib_a-callocr.o)
 .bss           0x00000000        0x0 c:/program files (x86)/microchip/xc32/v2.30/bin/bin/../../lib/gcc/pic32c/6.2.1/../../../../pic32c/lib\libc.a(lib_a-callocr.o)
 .text          0x00000000        0x0 c:/program files (x86)/microchip/xc32/v2.30/bin/bin/../../lib/gcc/pic32c/6.2.1/../../../../pic32c/lib\libc.a(lib_a-closer.o)
 .data          0x00000000        0x0 c:/program files (x86)/microchip/xc32/v2.30/bin/bin/../../lib/gcc/pic32c/6.2.1/../../../../pic32c/lib\libc.a(lib_a-closer.o)
 .bss           0x00000000        0x0 c:/program files (x86)/microchip/xc32/v2.30/bin/bin/../../lib/gcc/pic32c/6.2.1/../../../../pic32c/lib\libc.a(lib_a-closer.o)
 .text          0x00000000        0x0 c:/program files (x86)/microchip/xc32/v2.30/bin/bin/../../lib/gcc/pic32c/6.2.1/../../../../pic32c/lib\libc.a(lib_a-ctype_.o)
 .data          0x00000000        0x0 c:/program files (x86)/microchip/xc32/v2.30/bin/bin/../../lib/gcc/pic32c/6.2.1/../../../../pic32c/lib\libc.a(lib_a-ctype_.o)
 .bss           0x00000000        0x0 c:/program files (x86)/microchip/xc32/v2.30/bin/bin/../../lib/gcc/pic32c/6.2.1/../../../../pic32c/lib\libc.a(lib_a-ctype_.o)
 .text          0x00000000        0x0 c:/program files (x86)/microchip/xc32/v2.30/bin/bin/../../lib/gcc/pic32c/6.2.1/../../../../pic32c/lib\libc.a(lib_a-fclose.o)
 .data          0x00000000        0x0 c:/program files (x86)/microchip/xc32/v2.30/bin/bin/../../lib/gcc/pic32c/6.2.1/../../../../pic32c/lib\libc.a(lib_a-fclose.o)
 .bss           0x00000000        0x0 c:/program files (x86)/microchip/xc32/v2.30/bin/bin/../../lib/gcc/pic32c/6.2.1/../../../../pic32c/lib\libc.a(lib_a-fclose.o)
 .text.fclose   0x00000000       0x14 c:/program files (x86)/microchip/xc32/v2.30/bin/bin/../../lib/gcc/pic32c/6.2.1/../../../../pic32c/lib\libc.a(lib_a-fclose.o)
 .text          0x00000000        0x0 c:/program files (x86)/microchip/xc32/v2.30/bin/bin/../../lib/gcc/pic32c/6.2.1/../../../../pic32c/lib\libc.a(lib_a-fputwc.o)
 .data          0x00000000        0x0 c:/program files (x86)/microchip/xc32/v2.30/bin/bin/../../lib/gcc/pic32c/6.2.1/../../../../pic32c/lib\libc.a(lib_a-fputwc.o)
 .bss           0x00000000        0x0 c:/program files (x86)/microchip/xc32/v2.30/bin/bin/../../lib/gcc/pic32c/6.2.1/../../../../pic32c/lib\libc.a(lib_a-fputwc.o)
 .text.fputwc   0x00000000       0x2c c:/program files (x86)/microchip/xc32/v2.30/bin/bin/../../lib/gcc/pic32c/6.2.1/../../../../pic32c/lib\libc.a(lib_a-fputwc.o)
 .text          0x00000000        0x0 c:/program files (x86)/microchip/xc32/v2.30/bin/bin/../../lib/gcc/pic32c/6.2.1/../../../../pic32c/lib\libc.a(lib_a-fstatr.o)
 .data          0x00000000        0x0 c:/program files (x86)/microchip/xc32/v2.30/bin/bin/../../lib/gcc/pic32c/6.2.1/../../../../pic32c/lib\libc.a(lib_a-fstatr.o)
 .bss           0x00000000        0x0 c:/program files (x86)/microchip/xc32/v2.30/bin/bin/../../lib/gcc/pic32c/6.2.1/../../../../pic32c/lib\libc.a(lib_a-fstatr.o)
 .text          0x00000000        0x0 c:/program files (x86)/microchip/xc32/v2.30/bin/bin/../../lib/gcc/pic32c/6.2.1/../../../../pic32c/lib\libc.a(lib_a-isattyr.o)
 .data          0x00000000        0x0 c:/program files (x86)/microchip/xc32/v2.30/bin/bin/../../lib/gcc/pic32c/6.2.1/../../../../pic32c/lib\libc.a(lib_a-isattyr.o)
 .bss           0x00000000        0x0 c:/program files (x86)/microchip/xc32/v2.30/bin/bin/../../lib/gcc/pic32c/6.2.1/../../../../pic32c/lib\libc.a(lib_a-isattyr.o)
 .text          0x00000000        0x0 c:/program files (x86)/microchip/xc32/v2.30/bin/bin/../../lib/gcc/pic32c/6.2.1/../../../../pic32c/lib\libc.a(lib_a-lseekr.o)
 .data          0x00000000        0x0 c:/program files (x86)/microchip/xc32/v2.30/bin/bin/../../lib/gcc/pic32c/6.2.1/../../../../pic32c/lib\libc.a(lib_a-lseekr.o)
 .bss           0x00000000        0x0 c:/program files (x86)/microchip/xc32/v2.30/bin/bin/../../lib/gcc/pic32c/6.2.1/../../../../pic32c/lib\libc.a(lib_a-lseekr.o)
 .text          0x00000000        0x0 c:/program files (x86)/microchip/xc32/v2.30/bin/bin/../../lib/gcc/pic32c/6.2.1/../../../../pic32c/lib\libc.a(lib_a-readr.o)
 .data          0x00000000        0x0 c:/program files (x86)/microchip/xc32/v2.30/bin/bin/../../lib/gcc/pic32c/6.2.1/../../../../pic32c/lib\libc.a(lib_a-readr.o)
 .bss           0x00000000        0x0 c:/program files (x86)/microchip/xc32/v2.30/bin/bin/../../lib/gcc/pic32c/6.2.1/../../../../pic32c/lib\libc.a(lib_a-readr.o)
 .text          0x00000000        0x0 c:/program files (x86)/microchip/xc32/v2.30/bin/bin/../../lib/gcc/pic32c/6.2.1/../../../../pic32c/lib\libc.a(lib_a-reent.o)
 .data          0x00000000        0x0 c:/program files (x86)/microchip/xc32/v2.30/bin/bin/../../lib/gcc/pic32c/6.2.1/../../../../pic32c/lib\libc.a(lib_a-reent.o)
 .bss           0x00000000        0x0 c:/program files (x86)/microchip/xc32/v2.30/bin/bin/../../lib/gcc/pic32c/6.2.1/../../../../pic32c/lib\libc.a(lib_a-reent.o)
 .text.cleanup_glue
                0x00000000       0x1a c:/program files (x86)/microchip/xc32/v2.30/bin/bin/../../lib/gcc/pic32c/6.2.1/../../../../pic32c/lib\libc.a(lib_a-reent.o)
 .text._reclaim_reent
                0x00000000       0x94 c:/program files (x86)/microchip/xc32/v2.30/bin/bin/../../lib/gcc/pic32c/6.2.1/../../../../pic32c/lib\libc.a(lib_a-reent.o)
 .text          0x00000000        0x0 c:/program files (x86)/microchip/xc32/v2.30/bin/bin/../../lib/gcc/pic32c/6.2.1/../../../../pic32c/lib\libc.a(lib_a-wbuf.o)
 .data          0x00000000        0x0 c:/program files (x86)/microchip/xc32/v2.30/bin/bin/../../lib/gcc/pic32c/6.2.1/../../../../pic32c/lib\libc.a(lib_a-wbuf.o)
 .bss           0x00000000        0x0 c:/program files (x86)/microchip/xc32/v2.30/bin/bin/../../lib/gcc/pic32c/6.2.1/../../../../pic32c/lib\libc.a(lib_a-wbuf.o)
 .text.__swbuf  0x00000000       0x14 c:/program files (x86)/microchip/xc32/v2.30/bin/bin/../../lib/gcc/pic32c/6.2.1/../../../../pic32c/lib\libc.a(lib_a-wbuf.o)
 .text          0x00000000        0x0 c:/program files (x86)/microchip/xc32/v2.30/bin/bin/../../lib/gcc/pic32c/6.2.1/../../../../pic32c/lib\libc.a(lib_a-wcrtomb.o)
 .data          0x00000000        0x0 c:/program files (x86)/microchip/xc32/v2.30/bin/bin/../../lib/gcc/pic32c/6.2.1/../../../../pic32c/lib\libc.a(lib_a-wcrtomb.o)
 .bss           0x00000000        0x0 c:/program files (x86)/microchip/xc32/v2.30/bin/bin/../../lib/gcc/pic32c/6.2.1/../../../../pic32c/lib\libc.a(lib_a-wcrtomb.o)
 .text.wcrtomb  0x00000000       0x18 c:/program files (x86)/microchip/xc32/v2.30/bin/bin/../../lib/gcc/pic32c/6.2.1/../../../../pic32c/lib\libc.a(lib_a-wcrtomb.o)
 .text          0x00000000        0x0 c:/program files (x86)/microchip/xc32/v2.30/bin/bin/../../lib/gcc/pic32c/6.2.1/../../../../pic32c/lib\libpic32c.a(_close.o)
 .data          0x00000000        0x0 c:/program files (x86)/microchip/xc32/v2.30/bin/bin/../../lib/gcc/pic32c/6.2.1/../../../../pic32c/lib\libpic32c.a(_close.o)
 .bss           0x00000000        0x0 c:/program files (x86)/microchip/xc32/v2.30/bin/bin/../../lib/gcc/pic32c/6.2.1/../../../../pic32c/lib\libpic32c.a(_close.o)
 .text          0x00000000        0x0 c:/program files (x86)/microchip/xc32/v2.30/bin/bin/../../lib/gcc/pic32c/6.2.1/../../../../pic32c/lib\libpic32c.a(_fstat.o)
 .data          0x00000000        0x0 c:/program files (x86)/microchip/xc32/v2.30/bin/bin/../../lib/gcc/pic32c/6.2.1/../../../../pic32c/lib\libpic32c.a(_fstat.o)
 .bss           0x00000000        0x0 c:/program files (x86)/microchip/xc32/v2.30/bin/bin/../../lib/gcc/pic32c/6.2.1/../../../../pic32c/lib\libpic32c.a(_fstat.o)
 .text          0x00000000        0x0 c:/program files (x86)/microchip/xc32/v2.30/bin/bin/../../lib/gcc/pic32c/6.2.1/../../../../pic32c/lib\libpic32c.a(_isatty.o)
 .data          0x00000000        0x0 c:/program files (x86)/microchip/xc32/v2.30/bin/bin/../../lib/gcc/pic32c/6.2.1/../../../../pic32c/lib\libpic32c.a(_isatty.o)
 .bss           0x00000000        0x0 c:/program files (x86)/microchip/xc32/v2.30/bin/bin/../../lib/gcc/pic32c/6.2.1/../../../../pic32c/lib\libpic32c.a(_isatty.o)
 .text          0x00000000        0x0 c:/program files (x86)/microchip/xc32/v2.30/bin/bin/../../lib/gcc/pic32c/6.2.1/../../../../pic32c/lib\libpic32c.a(_lseek.o)
 .data          0x00000000        0x0 c:/program files (x86)/microchip/xc32/v2.30/bin/bin/../../lib/gcc/pic32c/6.2.1/../../../../pic32c/lib\libpic32c.a(_lseek.o)
 .bss           0x00000000        0x0 c:/program files (x86)/microchip/xc32/v2.30/bin/bin/../../lib/gcc/pic32c/6.2.1/../../../../pic32c/lib\libpic32c.a(_lseek.o)
 .text          0x00000000        0x0 c:/program files (x86)/microchip/xc32/v2.30/bin/bin/../../lib/gcc/pic32c/6.2.1/../../../../pic32c/lib\libpic32c.a(_read.o)
 .data          0x00000000        0x0 c:/program files (x86)/microchip/xc32/v2.30/bin/bin/../../lib/gcc/pic32c/6.2.1/../../../../pic32c/lib\libpic32c.a(_read.o)
 .bss           0x00000000        0x0 c:/program files (x86)/microchip/xc32/v2.30/bin/bin/../../lib/gcc/pic32c/6.2.1/../../../../pic32c/lib\libpic32c.a(_read.o)
 .text          0x00000000        0x0 c:/program files (x86)/microchip/xc32/v2.30/bin/bin/../../lib/gcc/pic32c/6.2.1/../../../../pic32c/lib\libpic32c.a(sbrk.o)
 .data          0x00000000        0x0 c:/program files (x86)/microchip/xc32/v2.30/bin/bin/../../lib/gcc/pic32c/6.2.1/../../../../pic32c/lib\libpic32c.a(sbrk.o)
 .text          0x00000000        0x0 c:/program files (x86)/microchip/xc32/v2.30/bin/bin/../../lib/gcc/pic32c/6.2.1/../../../../pic32c/lib\libpic32c.a(_write.o)
 .data          0x00000000        0x0 c:/program files (x86)/microchip/xc32/v2.30/bin/bin/../../lib/gcc/pic32c/6.2.1/../../../../pic32c/lib\libpic32c.a(_write.o)
 .bss           0x00000000        0x0 c:/program files (x86)/microchip/xc32/v2.30/bin/bin/../../lib/gcc/pic32c/6.2.1/../../../../pic32c/lib\libpic32c.a(_write.o)
 .text          0x00000000        0x0 c:/program files (x86)/microchip/xc32/v2.30/bin/bin/../../lib/gcc/pic32c/6.2.1/../../../../pic32c/lib\libpic32c.a(close.o)
 .data          0x00000000        0x0 c:/program files (x86)/microchip/xc32/v2.30/bin/bin/../../lib/gcc/pic32c/6.2.1/../../../../pic32c/lib\libpic32c.a(close.o)
 .bss           0x00000000        0x0 c:/program files (x86)/microchip/xc32/v2.30/bin/bin/../../lib/gcc/pic32c/6.2.1/../../../../pic32c/lib\libpic32c.a(close.o)
 .gnu.warning.closestub
                0x00000000        0x0 c:/program files (x86)/microchip/xc32/v2.30/bin/bin/../../lib/gcc/pic32c/6.2.1/../../../../pic32c/lib\libpic32c.a(close.o)
 .text          0x00000000        0x0 c:/program files (x86)/microchip/xc32/v2.30/bin/bin/../../lib/gcc/pic32c/6.2.1/../../../../pic32c/lib\libpic32c.a(fstat.o)
 .data          0x00000000        0x0 c:/program files (x86)/microchip/xc32/v2.30/bin/bin/../../lib/gcc/pic32c/6.2.1/../../../../pic32c/lib\libpic32c.a(fstat.o)
 .bss           0x00000000        0x0 c:/program files (x86)/microchip/xc32/v2.30/bin/bin/../../lib/gcc/pic32c/6.2.1/../../../../pic32c/lib\libpic32c.a(fstat.o)
 .text          0x00000000        0x0 c:/program files (x86)/microchip/xc32/v2.30/bin/bin/../../lib/gcc/pic32c/6.2.1/../../../../pic32c/lib\libpic32c.a(isatty.o)
 .data          0x00000000        0x0 c:/program files (x86)/microchip/xc32/v2.30/bin/bin/../../lib/gcc/pic32c/6.2.1/../../../../pic32c/lib\libpic32c.a(isatty.o)
 .bss           0x00000000        0x0 c:/program files (x86)/microchip/xc32/v2.30/bin/bin/../../lib/gcc/pic32c/6.2.1/../../../../pic32c/lib\libpic32c.a(isatty.o)
 .text          0x00000000        0x0 c:/program files (x86)/microchip/xc32/v2.30/bin/bin/../../lib/gcc/pic32c/6.2.1/../../../../pic32c/lib\libpic32c.a(lseek.o)
 .data          0x00000000        0x0 c:/program files (x86)/microchip/xc32/v2.30/bin/bin/../../lib/gcc/pic32c/6.2.1/../../../../pic32c/lib\libpic32c.a(lseek.o)
 .bss           0x00000000        0x0 c:/program files (x86)/microchip/xc32/v2.30/bin/bin/../../lib/gcc/pic32c/6.2.1/../../../../pic32c/lib\libpic32c.a(lseek.o)
 .text          0x00000000        0x0 c:/program files (x86)/microchip/xc32/v2.30/bin/bin/../../lib/gcc/pic32c/6.2.1/../../../../pic32c/lib\libpic32c.a(read.o)
 .data          0x00000000        0x0 c:/program files (x86)/microchip/xc32/v2.30/bin/bin/../../lib/gcc/pic32c/6.2.1/../../../../pic32c/lib\libpic32c.a(read.o)
 .bss           0x00000000        0x0 c:/program files (x86)/microchip/xc32/v2.30/bin/bin/../../lib/gcc/pic32c/6.2.1/../../../../pic32c/lib\libpic32c.a(read.o)
 .text          0x00000000        0x0 c:/program files (x86)/microchip/xc32/v2.30/bin/bin/../../lib/gcc/pic32c/6.2.1/../../../../pic32c/lib\libpic32c.a(write.o)
 .data          0x00000000        0x0 c:/program files (x86)/microchip/xc32/v2.30/bin/bin/../../lib/gcc/pic32c/6.2.1/../../../../pic32c/lib\libpic32c.a(write.o)
 .bss           0x00000000        0x0 c:/program files (x86)/microchip/xc32/v2.30/bin/bin/../../lib/gcc/pic32c/6.2.1/../../../../pic32c/lib\libpic32c.a(write.o)
 .data          0x00000000        0x0 c:/program files (x86)/microchip/xc32/v2.30/bin/bin/../../lib/gcc/pic32c/6.2.1\libgcc.a(unorddf2.o)
 .bss           0x00000000        0x0 c:/program files (x86)/microchip/xc32/v2.30/bin/bin/../../lib/gcc/pic32c/6.2.1\libgcc.a(unorddf2.o)
 .text          0x00000000        0x0 c:/program files (x86)/microchip/xc32/v2.30/bin/bin/../../lib/gcc/pic32c/6.2.1/crtend.o
 .data          0x00000000        0x0 c:/program files (x86)/microchip/xc32/v2.30/bin/bin/../../lib/gcc/pic32c/6.2.1/crtend.o
 .bss           0x00000000        0x0 c:/program files (x86)/microchip/xc32/v2.30/bin/bin/../../lib/gcc/pic32c/6.2.1/crtend.o
 .eh_frame      0x00000000        0x4 c:/program files (x86)/microchip/xc32/v2.30/bin/bin/../../lib/gcc/pic32c/6.2.1/crtend.o
 .comment       0x00000000       0x3d c:/program files (x86)/microchip/xc32/v2.30/bin/bin/../../lib/gcc/pic32c/6.2.1/crtend.o
 .ARM.attributes
                0x00000000       0x2c c:/program files (x86)/microchip/xc32/v2.30/bin/bin/../../lib/gcc/pic32c/6.2.1/crtend.o
 .text          0x00000000        0x0 c:/program files (x86)/microchip/xc32/v2.30/bin/bin/../../lib/gcc/pic32c/6.2.1/crtn.o
 .data          0x00000000        0x0 c:/program files (x86)/microchip/xc32/v2.30/bin/bin/../../lib/gcc/pic32c/6.2.1/crtn.o
 .bss           0x00000000        0x0 c:/program files (x86)/microchip/xc32/v2.30/bin/bin/../../lib/gcc/pic32c/6.2.1/crtn.o

Memory Configuration

Name             Origin             Length             Attributes
rom              0x00000000         0x00040000         xrl
ram              0x20000000         0x00008000         xw !r
config_00804000  0x00804000         0x00000004
config_00804004  0x00804004         0x00000004
*default*        0x00000000         0xffffffff

Linker script and memory map

LOAD c:/program files (x86)/microchip/xc32/v2.30/bin/bin/../../lib/gcc/pic32c/6.2.1/crti.o
LOAD c:/program files (x86)/microchip/xc32/v2.30/bin/bin/../../lib/gcc/pic32c/6.2.1/crtbegin.o
LOAD build/default/production/_ext/869808652/drv_usart.o
LOAD build/default/production/_ext/60165182/plib_can0.o
LOAD build/default/production/_ext/1984496892/plib_clock.o
LOAD build/default/production/_ext/60167341/plib_eic.o
LOAD build/default/production/_ext/1986646378/plib_evsys.o
LOAD build/default/production/_ext/1865468468/plib_nvic.o
LOAD build/default/production/_ext/1593096446/plib_nvmctrl.o
LOAD build/default/production/_ext/1865521619/plib_port.o
LOAD build/default/production/_ext/60180175/plib_rtc_clock.o
LOAD build/default/production/_ext/17022449/plib_sercom0_spi_master.o
LOAD build/default/production/_ext/504274921/plib_sercom3_usart.o
LOAD build/default/production/_ext/504274921/plib_sercom4_usart.o
LOAD build/default/production/_ext/504274921/plib_sercom2_usart.o
LOAD build/default/production/_ext/1827571544/plib_systick.o
LOAD build/default/production/_ext/829342655/plib_tc4.o
LOAD build/default/production/_ext/829342655/plib_tc0.o
LOAD build/default/production/_ext/829342655/plib_tc3.o
LOAD build/default/production/_ext/60184501/plib_wdt.o
LOAD build/default/production/_ext/163028504/xc32_monitor.o
LOAD build/default/production/_ext/14461671/sys_dma.o
LOAD build/default/production/_ext/1881668453/sys_int.o
LOAD build/default/production/_ext/1171490990/initialization.o
LOAD build/default/production/_ext/1171490990/interrupts.o
LOAD build/default/production/_ext/1171490990/exceptions.o
LOAD build/default/production/_ext/1171490990/startup_xc32.o
LOAD build/default/production/_ext/1171490990/libc_syscalls.o
LOAD build/default/production/_ext/1171490990/tasks.o
LOAD build/default/production/_ext/1360937237/main.o
LOAD build/default/production/_ext/1360937237/myapp.o
LOAD build/default/production/_ext/1360937237/app.o
LOAD build/default/production/_ext/1360937237/at_engine.o
LOAD build/default/production/_ext/1360937237/at_parser.o
LOAD build/default/production/_ext/1360937237/dev_adapter.o
LOAD build/default/production/_ext/1360937237/dev_hal.o
LOAD build/default/production/_ext/1360937237/dev_timer.o
LOAD build/default/production/_ext/1360937237/gsm_gps.o
LOAD build/default/production/_ext/1360937237/app2.o
LOAD build/default/production/_ext/1360937237/app3.o
LOAD build/default/production/_ext/1360937237/ext_flash.o
LOAD build/default/production/_ext/1360937237/app4.o
                0x00000001                __MPLAB_BUILD = 0x1
                0x00040000                __rom_end = (ORIGIN (rom) + LENGTH (rom))
                0x20008000                __ram_end = (ORIGIN (ram) + LENGTH (ram))

.config_00804000
                0x00804000        0x4
 *(.config_00804000)
 .config_00804000
                0x00804000        0x4 build/default/production/_ext/1171490990/initialization.o

.config_00804004
                0x00804004        0x4
 *(.config_00804004)
 .config_00804004
                0x00804004        0x4 build/default/production/_ext/1171490990/initialization.o

.vectors        0x00000000       0xbc
                0x00000000                . = ALIGN (0x4)
                0x00000000                _sfixed = .
 *(.vectors .vectors.* .vectors_default .vectors_default.*)
 .vectors       0x00000000       0xbc build/default/production/_ext/1171490990/interrupts.o
                0x00000000                exception_table
 *(.isr_vector)
 *(.reset*)
 *(.after_vectors)

.text           0x000000bc       0x20
                0x000000bc                . = ALIGN (0x4)
 *(.glue_7t)
 .glue_7t       0x000000bc        0x0 linker stubs
 *(.glue_7)
 .glue_7        0x000000bc        0x0 linker stubs
 *(.gnu.linkonce.r.*)
 *(.ARM.extab* .gnu.linkonce.armextab.*)
                0x000000bc                . = ALIGN (0x4)
 *(.init)
 .init          0x000000bc        0x4 c:/program files (x86)/microchip/xc32/v2.30/bin/bin/../../lib/gcc/pic32c/6.2.1/crti.o
                0x000000bc                _init
 .init          0x000000c0        0x8 c:/program files (x86)/microchip/xc32/v2.30/bin/bin/../../lib/gcc/pic32c/6.2.1/crtn.o
                0x000000c8                . = ALIGN (0x4)
                0x000000c8                __preinit_array_start = .
 *(.preinit_array)
                0x000000c8                __preinit_array_end = .
                0x000000c8                . = ALIGN (0x4)
                0x000000c8                __init_array_start = .
 *(SORT(.init_array.*))
 *(.init_array)
 .init_array    0x000000c8        0x4 c:/program files (x86)/microchip/xc32/v2.30/bin/bin/../../lib/gcc/pic32c/6.2.1/crtbegin.o
                0x000000cc                __init_array_end = .
                0x000000cc                . = ALIGN (0x4)
 *crtbegin.o(.ctors)
 *(EXCLUDE_FILE(*crtend.o) .ctors)
 *(SORT(.ctors.*))
 *crtend.o(.ctors)
                0x000000cc                . = ALIGN (0x4)
 *(.fini)
 .fini          0x000000cc        0x4 c:/program files (x86)/microchip/xc32/v2.30/bin/bin/../../lib/gcc/pic32c/6.2.1/crti.o
                0x000000cc                _fini
 .fini          0x000000d0        0x8 c:/program files (x86)/microchip/xc32/v2.30/bin/bin/../../lib/gcc/pic32c/6.2.1/crtn.o
                0x000000d8                . = ALIGN (0x4)
                0x000000d8                __fini_array_start = .
 *(.fini_array)
 .fini_array    0x000000d8        0x4 c:/program files (x86)/microchip/xc32/v2.30/bin/bin/../../lib/gcc/pic32c/6.2.1/crtbegin.o
 *(SORT(.fini_array.*))
                0x000000dc                __fini_array_end = .
 *crtbegin.o(.dtors)
 *(EXCLUDE_FILE(*crtend.o) .dtors)
 *(SORT(.dtors.*))
 *crtend.o(.dtors)
                0x000000dc                . = ALIGN (0x4)
                0x000000dc                _efixed = .
                [!provide]                PROVIDE (__exidx_start, .)

.ARM.exidx      0x000000dc        0x8
 *(.ARM.exidx* .gnu.linkonce.armexidx.*)
 .ARM.exidx     0x000000dc        0x8 c:/program files (x86)/microchip/xc32/v2.30/bin/bin/../../lib/gcc/pic32c/6.2.1\libgcc.a(_udivmoddi4.o)
                [!provide]                PROVIDE (__exidx_end, .)
                0x000000e4                . = ALIGN (0x4)
                0x000000e4                _etext = .

.bss            0x20000000     0x1d3c
                0x20000000                . = ALIGN (0x4)
                0x20000000                __bss_start__ = .
                0x20000000                _sbss = .
                0x20000000                _szero = .
 *(COMMON)
 COMMON         0x20000000      0x2e8 build/default/production/_ext/163028504/xc32_monitor.o
                0x20000000                gps_CourseOverGround
                0x20000014                vcl_p6
                0x20000028                gps_UTCTime
                0x2000003c                vcl_p7
                0x20000050                freshdatamemloc2
                0x20000058                logrdata
                0x200000b0                smrvalue
                0x200000b8                wnewmemloc
                0x200000c0                logwdata
                0x20000118                gps_Status
                0x2000012c                vcl_p4
                0x20000140                rnewmemloc
                0x20000148                flagbit
                0x20000150                rmaxmemloc
                0x20000158                wmaxmemloc
                0x20000160                gps_SpeedOverGround
                0x20000174                freshdatamemloc1
                0x2000017c                vcl_p1
                0x20000190                gps_Latitude
                0x200001a4                pt1
                0x200001a8                gps_EWIndicator
                0x200001bc                rrecomemloc
                0x200001c4                gps_Latitude_dec
                0x200001d8                flashtxData
                0x20000204                vcl_p3
                0x20000218                gps_NSIndicator
                0x2000022c                vcl_p5
                0x20000240                ch_gps_Status
                0x20000254                flashrxData
                0x20000280                wrecomemloc
                0x20000288                gps_Longitude_dec
                0x2000029c                wyet2sendmemloc
                0x200002a4                vcl_p2
                0x200002b8                ryet2sendmemloc
                0x200002c0                gps_Date
                0x200002d4                gps_Longitude
 COMMON         0x200002e8        0x8 build/default/production/_ext/1171490990/initialization.o
                0x200002e8                sysObj
 COMMON         0x200002f0      0x48d build/default/production/_ext/1360937237/app.o
                0x200002f0                alarm_triggered
                0x200002f4                sys_time
                0x20000318                gps_tempUTCTime
                0x2000032c                alarm_time
                0x20000350                gps_tempUTCdate
                0x20000364                gps_pasttempUTCTime
                0x20000378                appData
                0x2000077c                rxChar
 *fill*         0x2000077d        0x3 
 COMMON         0x20000780     0x102a build/default/production/_ext/1360937237/at_engine.o
                0x20000780                ipaddrbuf
                0x20000794                temp_ptr1
                0x20000798                paratypebuf
                0x200007a4                slnobuf
                0x200007b8                rx_buffer
                0x20000fa0                tx_buffer
                0x20001788                passwordbuf
                0x20001792                response_f
                0x20001793                timeout_f
                0x20001794                apnbuf
                0x200017a8                exception_f
                0x200017a9                cue_f
 COMMON         0x200017aa        0x1 build/default/production/_ext/1360937237/gsm_gps.o
                0x200017aa                u8_atcmd_status
 *fill*         0x200017ab        0x1 
 COMMON         0x200017ac      0x40c build/default/production/_ext/1360937237/app2.o
                0x200017ac                gpsrxChar
                0x200017ad                guchr_validedata
                0x200017ae                guchr_temp1
                0x200017b0                app2Data
 COMMON         0x20001bb8       0x4f build/default/production/_ext/1360937237/app3.o
                0x20001bb8                app3Data
                0x20001bbc                block_protection_18
                0x20001c04                tempcheck
                0x20001c05                check
                0x20001c06                status
 *fill*         0x20001c07       0x19 
 COMMON         0x20001c20      0x115 build/default/production/_ext/1360937237/app4.o
                0x20001c20                u32_loopcnt
                0x20001c24                rx_FEEE
                0x20001c2c                flt_CANHydoiltemp
                0x20001c30                u16_CANHydoilfilterclogged
                0x20001c34                flt_CANEngineLuboilpressure_bar
                0x20001c38                rx_message
                0x20001c40                flt_CANEnginetotalhourofoperation
                0x20001c60                Can0MessageRAM
                0x20001cc0                u16_CANHydoillevel
                0x20001cc4                flt_CANEngineRPM
                0x20001cc8                flt_CANBatteryVoltage
                0x20001ccc                length
                0x20001cce                u16_CANAirfilterclogged
                0x20001cd0                rx_F004
                0x20001cd8                flt_CANLuboiltemp
                0x20001cdc                message
                0x20001ce4                flt_CANEngineLuboilpressure
                0x20001ce8                flt_CANfuallevel
                0x20001cec                rx_FEF7
                0x20001cf4                flt_CANEngineLuboilpressure_kgpcmsq
                0x20001cf8                u16_tempint
                0x20001cfa                u16_CANSeatBelt
                0x20001cfc                rx_E000
                0x20001d04                rx_FE68
                0x20001d0c                flt_CANEngineCoolantTemperature
                0x20001d10                rx_FEE5
                0x20001d18                rx_FEEF
                0x20001d20                rx_FEFC
                0x20001d28                rx_FD07
                0x20001d30                u16_tempflt
                0x20001d34                app4Data
 *fill*         0x20001d35        0x3 
 COMMON         0x20001d38        0x4 c:/program files (x86)/microchip/xc32/v2.30/bin/bin/../../lib/gcc/pic32c/6.2.1/../../../../pic32c/lib\libc.a(lib_a-reent.o)
                0x20001d38                errno
                0x20001d3c                . = ALIGN (0x4)
                0x20001d3c                __bss_end__ = .
                0x20001d3c                _ebss = .
                0x20001d3c                _ezero = .
                0x20001d3c                . = ALIGN (0x4)
                0x20001d3c                _end = .
                0x20007fff                _ram_end_ = ((ORIGIN (ram) + LENGTH (ram)) - 0x1)
                0x00000200                _min_heap_size = 0x200
START GROUP
LOAD c:/program files (x86)/microchip/xc32/v2.30/bin/bin/../../lib/gcc/pic32c/6.2.1/../../../../pic32c/lib\libpic32c.a
LOAD c:/program files (x86)/microchip/xc32/v2.30/bin/bin/../../lib/gcc/pic32c/6.2.1\libgcc.a
LOAD c:/program files (x86)/microchip/xc32/v2.30/bin/bin/../../lib/gcc/pic32c/6.2.1/../../../../pic32c/lib\libc.a
LOAD c:/program files (x86)/microchip/xc32/v2.30/bin/bin/../../lib/gcc/pic32c/6.2.1/../../../../pic32c/lib\libm.a
END GROUP
LOAD c:/program files (x86)/microchip/xc32/v2.30/bin/bin/../../lib/gcc/pic32c/6.2.1/crtend.o
LOAD c:/program files (x86)/microchip/xc32/v2.30/bin/bin/../../lib/gcc/pic32c/6.2.1/crtn.o
OUTPUT(dist/default/production/SMARTFARMING.X.production.elf elf32-littlearm)
LOAD stack
LOAD data_init

.ARM.attributes
                0x00000000       0x28
 .ARM.attributes
                0x00000000       0x1e c:/program files (x86)/microchip/xc32/v2.30/bin/bin/../../lib/gcc/pic32c/6.2.1/crti.o
 .ARM.attributes
                0x0000001e       0x2c c:/program files (x86)/microchip/xc32/v2.30/bin/bin/../../lib/gcc/pic32c/6.2.1/crtbegin.o
 .ARM.attributes
                0x0000004a       0x32 build/default/production/_ext/869808652/drv_usart.o
 .ARM.attributes
                0x0000007c       0x32 build/default/production/_ext/60165182/plib_can0.o
 .ARM.attributes
                0x000000ae       0x32 build/default/production/_ext/1984496892/plib_clock.o
 .ARM.attributes
                0x000000e0       0x32 build/default/production/_ext/60167341/plib_eic.o
 .ARM.attributes
                0x00000112       0x32 build/default/production/_ext/1986646378/plib_evsys.o
 .ARM.attributes
                0x00000144       0x32 build/default/production/_ext/1865468468/plib_nvic.o
 .ARM.attributes
                0x00000176       0x32 build/default/production/_ext/1593096446/plib_nvmctrl.o
 .ARM.attributes
                0x000001a8       0x32 build/default/production/_ext/1865521619/plib_port.o
 .ARM.attributes
                0x000001da       0x32 build/default/production/_ext/60180175/plib_rtc_clock.o
 .ARM.attributes
                0x0000020c       0x32 build/default/production/_ext/17022449/plib_sercom0_spi_master.o
 .ARM.attributes
                0x0000023e       0x32 build/default/production/_ext/504274921/plib_sercom3_usart.o
 .ARM.attributes
                0x00000270       0x32 build/default/production/_ext/504274921/plib_sercom4_usart.o
 .ARM.attributes
                0x000002a2       0x32 build/default/production/_ext/504274921/plib_sercom2_usart.o
 .ARM.attributes
                0x000002d4       0x32 build/default/production/_ext/1827571544/plib_systick.o
 .ARM.attributes
                0x00000306       0x32 build/default/production/_ext/829342655/plib_tc4.o
 .ARM.attributes
                0x00000338       0x32 build/default/production/_ext/829342655/plib_tc0.o
 .ARM.attributes
                0x0000036a       0x32 build/default/production/_ext/829342655/plib_tc3.o
 .ARM.attributes
                0x0000039c       0x32 build/default/production/_ext/60184501/plib_wdt.o
 .ARM.attributes
                0x000003ce       0x32 build/default/production/_ext/163028504/xc32_monitor.o
 .ARM.attributes
                0x00000400       0x32 build/default/production/_ext/1881668453/sys_int.o
 .ARM.attributes
                0x00000432       0x32 build/default/production/_ext/1171490990/initialization.o
 .ARM.attributes
                0x00000464       0x32 build/default/production/_ext/1171490990/interrupts.o
 .ARM.attributes
                0x00000496       0x32 build/default/production/_ext/1171490990/exceptions.o
 .ARM.attributes
                0x000004c8       0x32 build/default/production/_ext/1171490990/startup_xc32.o
 .ARM.attributes
                0x000004fa       0x32 build/default/production/_ext/1171490990/tasks.o
 .ARM.attributes
                0x0000052c       0x32 build/default/production/_ext/1360937237/main.o
 .ARM.attributes
                0x0000055e       0x32 build/default/production/_ext/1360937237/myapp.o
 .ARM.attributes
                0x00000590       0x32 build/default/production/_ext/1360937237/app.o
 .ARM.attributes
                0x000005c2       0x32 build/default/production/_ext/1360937237/at_engine.o
 .ARM.attributes
                0x000005f4       0x32 build/default/production/_ext/1360937237/at_parser.o
 .ARM.attributes
                0x00000626       0x32 build/default/production/_ext/1360937237/dev_adapter.o
 .ARM.attributes
                0x00000658       0x32 build/default/production/_ext/1360937237/dev_hal.o
 .ARM.attributes
                0x0000068a       0x32 build/default/production/_ext/1360937237/dev_timer.o
 .ARM.attributes
                0x000006bc       0x32 build/default/production/_ext/1360937237/gsm_gps.o
 .ARM.attributes
                0x000006ee       0x32 build/default/production/_ext/1360937237/app2.o
 .ARM.attributes
                0x00000720       0x32 build/default/production/_ext/1360937237/app3.o
 .ARM.attributes
                0x00000752       0x32 build/default/production/_ext/1360937237/ext_flash.o
 .ARM.attributes
                0x00000784       0x32 build/default/production/_ext/1360937237/app4.o
 .ARM.attributes
                0x000007b6       0x2c c:/program files (x86)/microchip/xc32/v2.30/bin/bin/../../lib/gcc/pic32c/6.2.1/../../../../pic32c/lib\libpic32c.a(data_init.o)
 .ARM.attributes
                0x000007e2       0x1e c:/program files (x86)/microchip/xc32/v2.30/bin/bin/../../lib/gcc/pic32c/6.2.1\libgcc.a(_udivsi3.o)
 .ARM.attributes
                0x00000800       0x1e c:/program files (x86)/microchip/xc32/v2.30/bin/bin/../../lib/gcc/pic32c/6.2.1\libgcc.a(_divsi3.o)
 .ARM.attributes
                0x0000081e       0x1e c:/program files (x86)/microchip/xc32/v2.30/bin/bin/../../lib/gcc/pic32c/6.2.1\libgcc.a(_dvmd_tls.o)
 .ARM.attributes
                0x0000083c       0x1e c:/program files (x86)/microchip/xc32/v2.30/bin/bin/../../lib/gcc/pic32c/6.2.1\libgcc.a(_arm_cmpdf2.o)
 .ARM.attributes
                0x0000085a       0x1e c:/program files (x86)/microchip/xc32/v2.30/bin/bin/../../lib/gcc/pic32c/6.2.1\libgcc.a(_arm_cmpsf2.o)
 .ARM.attributes
                0x00000878       0x1e c:/program files (x86)/microchip/xc32/v2.30/bin/bin/../../lib/gcc/pic32c/6.2.1\libgcc.a(_aeabi_uldivmod.o)
 .ARM.attributes
                0x00000896       0x2c c:/program files (x86)/microchip/xc32/v2.30/bin/bin/../../lib/gcc/pic32c/6.2.1\libgcc.a(_muldi3.o)
 .ARM.attributes
                0x000008c2       0x2c c:/program files (x86)/microchip/xc32/v2.30/bin/bin/../../lib/gcc/pic32c/6.2.1\libgcc.a(_fixunssfsi.o)
 .ARM.attributes
                0x000008ee       0x2c c:/program files (x86)/microchip/xc32/v2.30/bin/bin/../../lib/gcc/pic32c/6.2.1\libgcc.a(_fixunsdfsi.o)
 .ARM.attributes
                0x0000091a       0x2c c:/program files (x86)/microchip/xc32/v2.30/bin/bin/../../lib/gcc/pic32c/6.2.1\libgcc.a(_udivmoddi4.o)
 .ARM.attributes
                0x00000946       0x2c c:/program files (x86)/microchip/xc32/v2.30/bin/bin/../../lib/gcc/pic32c/6.2.1\libgcc.a(addsf3.o)
 .ARM.attributes
                0x00000972       0x2c c:/program files (x86)/microchip/xc32/v2.30/bin/bin/../../lib/gcc/pic32c/6.2.1\libgcc.a(divsf3.o)
 .ARM.attributes
                0x0000099e       0x2c c:/program files (x86)/microchip/xc32/v2.30/bin/bin/../../lib/gcc/pic32c/6.2.1\libgcc.a(eqsf2.o)
 .ARM.attributes
                0x000009ca       0x2c c:/program files (x86)/microchip/xc32/v2.30/bin/bin/../../lib/gcc/pic32c/6.2.1\libgcc.a(gesf2.o)
 .ARM.attributes
                0x000009f6       0x2c c:/program files (x86)/microchip/xc32/v2.30/bin/bin/../../lib/gcc/pic32c/6.2.1\libgcc.a(lesf2.o)
 .ARM.attributes
                0x00000a22       0x2c c:/program files (x86)/microchip/xc32/v2.30/bin/bin/../../lib/gcc/pic32c/6.2.1\libgcc.a(subsf3.o)
 .ARM.attributes
                0x00000a4e       0x2c c:/program files (x86)/microchip/xc32/v2.30/bin/bin/../../lib/gcc/pic32c/6.2.1\libgcc.a(fixsfsi.o)
 .ARM.attributes
                0x00000a7a       0x2c c:/program files (x86)/microchip/xc32/v2.30/bin/bin/../../lib/gcc/pic32c/6.2.1\libgcc.a(floatsisf.o)
 .ARM.attributes
                0x00000aa6       0x2c c:/program files (x86)/microchip/xc32/v2.30/bin/bin/../../lib/gcc/pic32c/6.2.1\libgcc.a(floatunsisf.o)
 .ARM.attributes
                0x00000ad2       0x2c c:/program files (x86)/microchip/xc32/v2.30/bin/bin/../../lib/gcc/pic32c/6.2.1\libgcc.a(adddf3.o)
 .ARM.attributes
                0x00000afe       0x2c c:/program files (x86)/microchip/xc32/v2.30/bin/bin/../../lib/gcc/pic32c/6.2.1\libgcc.a(divdf3.o)
 .ARM.attributes
                0x00000b2a       0x2c c:/program files (x86)/microchip/xc32/v2.30/bin/bin/../../lib/gcc/pic32c/6.2.1\libgcc.a(eqdf2.o)
 .ARM.attributes
                0x00000b56       0x2c c:/program files (x86)/microchip/xc32/v2.30/bin/bin/../../lib/gcc/pic32c/6.2.1\libgcc.a(gedf2.o)
 .ARM.attributes
                0x00000b82       0x2c c:/program files (x86)/microchip/xc32/v2.30/bin/bin/../../lib/gcc/pic32c/6.2.1\libgcc.a(ledf2.o)
 .ARM.attributes
                0x00000bae       0x2c c:/program files (x86)/microchip/xc32/v2.30/bin/bin/../../lib/gcc/pic32c/6.2.1\libgcc.a(muldf3.o)
 .ARM.attributes
                0x00000bda       0x2c c:/program files (x86)/microchip/xc32/v2.30/bin/bin/../../lib/gcc/pic32c/6.2.1\libgcc.a(subdf3.o)
 .ARM.attributes
                0x00000c06       0x2c c:/program files (x86)/microchip/xc32/v2.30/bin/bin/../../lib/gcc/pic32c/6.2.1\libgcc.a(fixdfsi.o)
 .ARM.attributes
                0x00000c32       0x2c c:/program files (x86)/microchip/xc32/v2.30/bin/bin/../../lib/gcc/pic32c/6.2.1\libgcc.a(floatsidf.o)
 .ARM.attributes
                0x00000c5e       0x2c c:/program files (x86)/microchip/xc32/v2.30/bin/bin/../../lib/gcc/pic32c/6.2.1\libgcc.a(floatunsidf.o)
 .ARM.attributes
                0x00000c8a       0x2c c:/program files (x86)/microchip/xc32/v2.30/bin/bin/../../lib/gcc/pic32c/6.2.1\libgcc.a(extendsfdf2.o)
 .ARM.attributes
                0x00000cb6       0x2c c:/program files (x86)/microchip/xc32/v2.30/bin/bin/../../lib/gcc/pic32c/6.2.1\libgcc.a(truncdfsf2.o)
 .ARM.attributes
                0x00000ce2       0x1e c:/program files (x86)/microchip/xc32/v2.30/bin/bin/../../lib/gcc/pic32c/6.2.1\libgcc.a(_thumb1_case_uqi.o)
 .ARM.attributes
                0x00000d00       0x1e c:/program files (x86)/microchip/xc32/v2.30/bin/bin/../../lib/gcc/pic32c/6.2.1\libgcc.a(_thumb1_case_uhi.o)
 .ARM.attributes
                0x00000d1e       0x1e c:/program files (x86)/microchip/xc32/v2.30/bin/bin/../../lib/gcc/pic32c/6.2.1\libgcc.a(_lshrdi3.o)
 .ARM.attributes
                0x00000d3c       0x1e c:/program files (x86)/microchip/xc32/v2.30/bin/bin/../../lib/gcc/pic32c/6.2.1\libgcc.a(_ashldi3.o)
 .ARM.attributes
                0x00000d5a       0x1e c:/program files (x86)/microchip/xc32/v2.30/bin/bin/../../lib/gcc/pic32c/6.2.1\libgcc.a(_clzsi2.o)
 .ARM.attributes
                0x00000d78       0x1e c:/program files (x86)/microchip/xc32/v2.30/bin/bin/../../lib/gcc/pic32c/6.2.1\libgcc.a(_clzdi2.o)
 .ARM.attributes
                0x00000d96       0x2c c:/program files (x86)/microchip/xc32/v2.30/bin/bin/../../lib/gcc/pic32c/6.2.1/../../../../pic32c/lib\libc.a(lib_a-atof.o)
 .ARM.attributes
                0x00000dc2       0x2c c:/program files (x86)/microchip/xc32/v2.30/bin/bin/../../lib/gcc/pic32c/6.2.1/../../../../pic32c/lib\libc.a(lib_a-atol.o)
 .ARM.attributes
                0x00000dee       0x2c c:/program files (x86)/microchip/xc32/v2.30/bin/bin/../../lib/gcc/pic32c/6.2.1/../../../../pic32c/lib\libc.a(lib_a-impure.o)
 .ARM.attributes
                0x00000e1a       0x2c c:/program files (x86)/microchip/xc32/v2.30/bin/bin/../../lib/gcc/pic32c/6.2.1/../../../../pic32c/lib\libc.a(lib_a-init.o)
 .ARM.attributes
                0x00000e46       0x2c c:/program files (x86)/microchip/xc32/v2.30/bin/bin/../../lib/gcc/pic32c/6.2.1/../../../../pic32c/lib\libc.a(lib_a-memcpy-stub.o)
 .ARM.attributes
                0x00000e72       0x2c c:/program files (x86)/microchip/xc32/v2.30/bin/bin/../../lib/gcc/pic32c/6.2.1/../../../../pic32c/lib\libc.a(lib_a-memset.o)
 .ARM.attributes
                0x00000e9e       0x2c c:/program files (x86)/microchip/xc32/v2.30/bin/bin/../../lib/gcc/pic32c/6.2.1/../../../../pic32c/lib\libc.a(lib_a-printf.o)
 .ARM.attributes
                0x00000eca       0x2c c:/program files (x86)/microchip/xc32/v2.30/bin/bin/../../lib/gcc/pic32c/6.2.1/../../../../pic32c/lib\libc.a(lib_a-puts.o)
 .ARM.attributes
                0x00000ef6       0x2c c:/program files (x86)/microchip/xc32/v2.30/bin/bin/../../lib/gcc/pic32c/6.2.1/../../../../pic32c/lib\libc.a(lib_a-setbuf.o)
 .ARM.attributes
                0x00000f22       0x2c c:/program files (x86)/microchip/xc32/v2.30/bin/bin/../../lib/gcc/pic32c/6.2.1/../../../../pic32c/lib\libc.a(lib_a-setvbuf.o)
 .ARM.attributes
                0x00000f4e       0x2c c:/program files (x86)/microchip/xc32/v2.30/bin/bin/../../lib/gcc/pic32c/6.2.1/../../../../pic32c/lib\libc.a(lib_a-sprintf.o)
 .ARM.attributes
                0x00000f7a       0x2c c:/program files (x86)/microchip/xc32/v2.30/bin/bin/../../lib/gcc/pic32c/6.2.1/../../../../pic32c/lib\libc.a(lib_a-strcat.o)
 .ARM.attributes
                0x00000fa6       0x2c c:/program files (x86)/microchip/xc32/v2.30/bin/bin/../../lib/gcc/pic32c/6.2.1/../../../../pic32c/lib\libc.a(lib_a-strchr.o)
 .ARM.attributes
                0x00000fd2       0x1c c:/program files (x86)/microchip/xc32/v2.30/bin/bin/../../lib/gcc/pic32c/6.2.1/../../../../pic32c/lib\libc.a(lib_a-strcmp.o)
 .ARM.attributes
                0x00000fee       0x2c c:/program files (x86)/microchip/xc32/v2.30/bin/bin/../../lib/gcc/pic32c/6.2.1/../../../../pic32c/lib\libc.a(lib_a-strcpy.o)
 .ARM.attributes
                0x0000101a       0x1c c:/program files (x86)/microchip/xc32/v2.30/bin/bin/../../lib/gcc/pic32c/6.2.1/../../../../pic32c/lib\libc.a(lib_a-strlen.o)
 .ARM.attributes
                0x00001036       0x2c c:/program files (x86)/microchip/xc32/v2.30/bin/bin/../../lib/gcc/pic32c/6.2.1/../../../../pic32c/lib\libc.a(lib_a-strncpy.o)
 .ARM.attributes
                0x00001062       0x2c c:/program files (x86)/microchip/xc32/v2.30/bin/bin/../../lib/gcc/pic32c/6.2.1/../../../../pic32c/lib\libc.a(lib_a-strstr.o)
 .ARM.attributes
                0x0000108e       0x2c c:/program files (x86)/microchip/xc32/v2.30/bin/bin/../../lib/gcc/pic32c/6.2.1/../../../../pic32c/lib\libc.a(lib_a-strtod.o)
 .ARM.attributes
                0x000010ba       0x2c c:/program files (x86)/microchip/xc32/v2.30/bin/bin/../../lib/gcc/pic32c/6.2.1/../../../../pic32c/lib\libc.a(lib_a-strtok.o)
 .ARM.attributes
                0x000010e6       0x2c c:/program files (x86)/microchip/xc32/v2.30/bin/bin/../../lib/gcc/pic32c/6.2.1/../../../../pic32c/lib\libc.a(lib_a-strtok_r.o)
 .ARM.attributes
                0x00001112       0x2c c:/program files (x86)/microchip/xc32/v2.30/bin/bin/../../lib/gcc/pic32c/6.2.1/../../../../pic32c/lib\libc.a(lib_a-strtol.o)
 .ARM.attributes
                0x0000113e       0x2c c:/program files (x86)/microchip/xc32/v2.30/bin/bin/../../lib/gcc/pic32c/6.2.1/../../../../pic32c/lib\libc.a(lib_a-svfprintf.o)
 .ARM.attributes
                0x0000116a       0x2c c:/program files (x86)/microchip/xc32/v2.30/bin/bin/../../lib/gcc/pic32c/6.2.1/../../../../pic32c/lib\libc.a(lib_a-vfprintf.o)
 .ARM.attributes
                0x00001196       0x2c c:/program files (x86)/microchip/xc32/v2.30/bin/bin/../../lib/gcc/pic32c/6.2.1/../../../../pic32c/lib\libc.a(lib_a-wsetup.o)
 .ARM.attributes
                0x000011c2       0x2c c:/program files (x86)/microchip/xc32/v2.30/bin/bin/../../lib/gcc/pic32c/6.2.1/../../../../pic32c/lib\libc.a(lib_a-dtoa.o)
 .ARM.attributes
                0x000011ee       0x2c c:/program files (x86)/microchip/xc32/v2.30/bin/bin/../../lib/gcc/pic32c/6.2.1/../../../../pic32c/lib\libc.a(lib_a-fflush.o)
 .ARM.attributes
                0x0000121a       0x2c c:/program files (x86)/microchip/xc32/v2.30/bin/bin/../../lib/gcc/pic32c/6.2.1/../../../../pic32c/lib\libc.a(lib_a-findfp.o)
 .ARM.attributes
                0x00001246       0x2c c:/program files (x86)/microchip/xc32/v2.30/bin/bin/../../lib/gcc/pic32c/6.2.1/../../../../pic32c/lib\libc.a(lib_a-freer.o)
 .ARM.attributes
                0x00001272       0x2c c:/program files (x86)/microchip/xc32/v2.30/bin/bin/../../lib/gcc/pic32c/6.2.1/../../../../pic32c/lib\libc.a(lib_a-fvwrite.o)
 .ARM.attributes
                0x0000129e       0x2c c:/program files (x86)/microchip/xc32/v2.30/bin/bin/../../lib/gcc/pic32c/6.2.1/../../../../pic32c/lib\libc.a(lib_a-fwalk.o)
 .ARM.attributes
                0x000012ca       0x2c c:/program files (x86)/microchip/xc32/v2.30/bin/bin/../../lib/gcc/pic32c/6.2.1/../../../../pic32c/lib\libc.a(lib_a-gdtoa-gethex.o)
 .ARM.attributes
                0x000012f6       0x2c c:/program files (x86)/microchip/xc32/v2.30/bin/bin/../../lib/gcc/pic32c/6.2.1/../../../../pic32c/lib\libc.a(lib_a-gdtoa-hexnan.o)
 .ARM.attributes
                0x00001322       0x2c c:/program files (x86)/microchip/xc32/v2.30/bin/bin/../../lib/gcc/pic32c/6.2.1/../../../../pic32c/lib\libc.a(lib_a-localeconv.o)
 .ARM.attributes
                0x0000134e       0x2c c:/program files (x86)/microchip/xc32/v2.30/bin/bin/../../lib/gcc/pic32c/6.2.1/../../../../pic32c/lib\libc.a(lib_a-locale.o)
 .ARM.attributes
                0x0000137a       0x2c c:/program files (x86)/microchip/xc32/v2.30/bin/bin/../../lib/gcc/pic32c/6.2.1/../../../../pic32c/lib\libc.a(lib_a-makebuf.o)
 .ARM.attributes
                0x000013a6       0x2c c:/program files (x86)/microchip/xc32/v2.30/bin/bin/../../lib/gcc/pic32c/6.2.1/../../../../pic32c/lib\libc.a(lib_a-malloc.o)
 .ARM.attributes
                0x000013d2       0x2c c:/program files (x86)/microchip/xc32/v2.30/bin/bin/../../lib/gcc/pic32c/6.2.1/../../../../pic32c/lib\libc.a(lib_a-mallocr.o)
 .ARM.attributes
                0x000013fe       0x2c c:/program files (x86)/microchip/xc32/v2.30/bin/bin/../../lib/gcc/pic32c/6.2.1/../../../../pic32c/lib\libc.a(lib_a-mbtowc_r.o)
 .ARM.attributes
                0x0000142a       0x2c c:/program files (x86)/microchip/xc32/v2.30/bin/bin/../../lib/gcc/pic32c/6.2.1/../../../../pic32c/lib\libc.a(lib_a-memchr-stub.o)
 .ARM.attributes
                0x00001456       0x2c c:/program files (x86)/microchip/xc32/v2.30/bin/bin/../../lib/gcc/pic32c/6.2.1/../../../../pic32c/lib\libc.a(lib_a-memmove.o)
 .ARM.attributes
                0x00001482       0x2c c:/program files (x86)/microchip/xc32/v2.30/bin/bin/../../lib/gcc/pic32c/6.2.1/../../../../pic32c/lib\libc.a(lib_a-mlock.o)
 .ARM.attributes
                0x000014ae       0x2c c:/program files (x86)/microchip/xc32/v2.30/bin/bin/../../lib/gcc/pic32c/6.2.1/../../../../pic32c/lib\libc.a(lib_a-mprec.o)
 .ARM.attributes
                0x000014da       0x2c c:/program files (x86)/microchip/xc32/v2.30/bin/bin/../../lib/gcc/pic32c/6.2.1/../../../../pic32c/lib\libc.a(lib_a-reallocr.o)
 .ARM.attributes
                0x00001506       0x2c c:/program files (x86)/microchip/xc32/v2.30/bin/bin/../../lib/gcc/pic32c/6.2.1/../../../../pic32c/lib\libc.a(lib_a-sbrkr.o)
 .ARM.attributes
                0x00001532       0x2c c:/program files (x86)/microchip/xc32/v2.30/bin/bin/../../lib/gcc/pic32c/6.2.1/../../../../pic32c/lib\libc.a(lib_a-s_frexp.o)
 .ARM.attributes
                0x0000155e       0x2c c:/program files (x86)/microchip/xc32/v2.30/bin/bin/../../lib/gcc/pic32c/6.2.1/../../../../pic32c/lib\libc.a(lib_a-stdio.o)
 .ARM.attributes
                0x0000158a       0x2c c:/program files (x86)/microchip/xc32/v2.30/bin/bin/../../lib/gcc/pic32c/6.2.1/../../../../pic32c/lib\libc.a(lib_a-strncmp.o)
 .ARM.attributes
                0x000015b6       0x2c c:/program files (x86)/microchip/xc32/v2.30/bin/bin/../../lib/gcc/pic32c/6.2.1/../../../../pic32c/lib\libc.a(lib_a-svfiprintf.o)
 .ARM.attributes
                0x000015e2       0x2c c:/program files (x86)/microchip/xc32/v2.30/bin/bin/../../lib/gcc/pic32c/6.2.1/../../../../pic32c/lib\libc.a(lib_a-vfiprintf.o)
 .ARM.attributes
                0x0000160e       0x2c c:/program files (x86)/microchip/xc32/v2.30/bin/bin/../../lib/gcc/pic32c/6.2.1/../../../../pic32c/lib\libc.a(lib_a-wctomb_r.o)
 .ARM.attributes
                0x0000163a       0x2c c:/program files (x86)/microchip/xc32/v2.30/bin/bin/../../lib/gcc/pic32c/6.2.1/../../../../pic32c/lib\libc.a(lib_a-writer.o)
 .ARM.attributes
                0x00001666       0x2c c:/program files (x86)/microchip/xc32/v2.30/bin/bin/../../lib/gcc/pic32c/6.2.1/../../../../pic32c/lib\libc.a(lib_a-callocr.o)
 .ARM.attributes
                0x00001692       0x2c c:/program files (x86)/microchip/xc32/v2.30/bin/bin/../../lib/gcc/pic32c/6.2.1/../../../../pic32c/lib\libc.a(lib_a-closer.o)
 .ARM.attributes
                0x000016be       0x2c c:/program files (x86)/microchip/xc32/v2.30/bin/bin/../../lib/gcc/pic32c/6.2.1/../../../../pic32c/lib\libc.a(lib_a-ctype_.o)
 .ARM.attributes
                0x000016ea       0x2c c:/program files (x86)/microchip/xc32/v2.30/bin/bin/../../lib/gcc/pic32c/6.2.1/../../../../pic32c/lib\libc.a(lib_a-fclose.o)
 .ARM.attributes
                0x00001716       0x2c c:/program files (x86)/microchip/xc32/v2.30/bin/bin/../../lib/gcc/pic32c/6.2.1/../../../../pic32c/lib\libc.a(lib_a-fputwc.o)
 .ARM.attributes
                0x00001742       0x2c c:/program files (x86)/microchip/xc32/v2.30/bin/bin/../../lib/gcc/pic32c/6.2.1/../../../../pic32c/lib\libc.a(lib_a-fstatr.o)
 .ARM.attributes
                0x0000176e       0x2c c:/program files (x86)/microchip/xc32/v2.30/bin/bin/../../lib/gcc/pic32c/6.2.1/../../../../pic32c/lib\libc.a(lib_a-isattyr.o)
 .ARM.attributes
                0x0000179a       0x2c c:/program files (x86)/microchip/xc32/v2.30/bin/bin/../../lib/gcc/pic32c/6.2.1/../../../../pic32c/lib\libc.a(lib_a-lseekr.o)
 .ARM.attributes
                0x000017c6       0x2c c:/program files (x86)/microchip/xc32/v2.30/bin/bin/../../lib/gcc/pic32c/6.2.1/../../../../pic32c/lib\libc.a(lib_a-readr.o)
 .ARM.attributes
                0x000017f2       0x2c c:/program files (x86)/microchip/xc32/v2.30/bin/bin/../../lib/gcc/pic32c/6.2.1/../../../../pic32c/lib\libc.a(lib_a-reent.o)
 .ARM.attributes
                0x0000181e       0x2c c:/program files (x86)/microchip/xc32/v2.30/bin/bin/../../lib/gcc/pic32c/6.2.1/../../../../pic32c/lib\libc.a(lib_a-wbuf.o)
 .ARM.attributes
                0x0000184a       0x2c c:/program files (x86)/microchip/xc32/v2.30/bin/bin/../../lib/gcc/pic32c/6.2.1/../../../../pic32c/lib\libc.a(lib_a-wcrtomb.o)
 .ARM.attributes
                0x00001876       0x2c c:/program files (x86)/microchip/xc32/v2.30/bin/bin/../../lib/gcc/pic32c/6.2.1/../../../../pic32c/lib\libpic32c.a(_close.o)
 .ARM.attributes
                0x000018a2       0x2c c:/program files (x86)/microchip/xc32/v2.30/bin/bin/../../lib/gcc/pic32c/6.2.1/../../../../pic32c/lib\libpic32c.a(_fstat.o)
 .ARM.attributes
                0x000018ce       0x2c c:/program files (x86)/microchip/xc32/v2.30/bin/bin/../../lib/gcc/pic32c/6.2.1/../../../../pic32c/lib\libpic32c.a(_isatty.o)
 .ARM.attributes
                0x000018fa       0x2c c:/program files (x86)/microchip/xc32/v2.30/bin/bin/../../lib/gcc/pic32c/6.2.1/../../../../pic32c/lib\libpic32c.a(_lseek.o)
 .ARM.attributes
                0x00001926       0x2c c:/program files (x86)/microchip/xc32/v2.30/bin/bin/../../lib/gcc/pic32c/6.2.1/../../../../pic32c/lib\libpic32c.a(_read.o)
 .ARM.attributes
                0x00001952       0x2c c:/program files (x86)/microchip/xc32/v2.30/bin/bin/../../lib/gcc/pic32c/6.2.1/../../../../pic32c/lib\libpic32c.a(sbrk.o)
 .ARM.attributes
                0x0000197e       0x2c c:/program files (x86)/microchip/xc32/v2.30/bin/bin/../../lib/gcc/pic32c/6.2.1/../../../../pic32c/lib\libpic32c.a(_write.o)
 .ARM.attributes
                0x000019aa       0x2c c:/program files (x86)/microchip/xc32/v2.30/bin/bin/../../lib/gcc/pic32c/6.2.1/../../../../pic32c/lib\libpic32c.a(close.o)
 .ARM.attributes
                0x000019d6       0x2c c:/program files (x86)/microchip/xc32/v2.30/bin/bin/../../lib/gcc/pic32c/6.2.1/../../../../pic32c/lib\libpic32c.a(fstat.o)
 .ARM.attributes
                0x00001a02       0x2c c:/program files (x86)/microchip/xc32/v2.30/bin/bin/../../lib/gcc/pic32c/6.2.1/../../../../pic32c/lib\libpic32c.a(isatty.o)
 .ARM.attributes
                0x00001a2e       0x2c c:/program files (x86)/microchip/xc32/v2.30/bin/bin/../../lib/gcc/pic32c/6.2.1/../../../../pic32c/lib\libpic32c.a(lseek.o)
 .ARM.attributes
                0x00001a5a       0x2c c:/program files (x86)/microchip/xc32/v2.30/bin/bin/../../lib/gcc/pic32c/6.2.1/../../../../pic32c/lib\libpic32c.a(read.o)
 .ARM.attributes
                0x00001a86       0x2c c:/program files (x86)/microchip/xc32/v2.30/bin/bin/../../lib/gcc/pic32c/6.2.1/../../../../pic32c/lib\libpic32c.a(write.o)
 .ARM.attributes
                0x00001ab2       0x2c c:/program files (x86)/microchip/xc32/v2.30/bin/bin/../../lib/gcc/pic32c/6.2.1\libgcc.a(unorddf2.o)
 .ARM.attributes
                0x00001ade       0x1e c:/program files (x86)/microchip/xc32/v2.30/bin/bin/../../lib/gcc/pic32c/6.2.1/crtn.o

.comment        0x00000000       0x3c
 .comment       0x00000000       0x3c c:/program files (x86)/microchip/xc32/v2.30/bin/bin/../../lib/gcc/pic32c/6.2.1/crtbegin.o
                                 0x3d (size before relaxing)
 .comment       0x0000003c       0x3d build/default/production/_ext/869808652/drv_usart.o
 .comment       0x0000003c       0x3d build/default/production/_ext/60165182/plib_can0.o
 .comment       0x0000003c       0x3d build/default/production/_ext/1984496892/plib_clock.o
 .comment       0x0000003c       0x3d build/default/production/_ext/60167341/plib_eic.o
 .comment       0x0000003c       0x3d build/default/production/_ext/1986646378/plib_evsys.o
 .comment       0x0000003c       0x3d build/default/production/_ext/1865468468/plib_nvic.o
 .comment       0x0000003c       0x3d build/default/production/_ext/1593096446/plib_nvmctrl.o
 .comment       0x0000003c       0x3d build/default/production/_ext/1865521619/plib_port.o
 .comment       0x0000003c       0x3d build/default/production/_ext/60180175/plib_rtc_clock.o
 .comment       0x0000003c       0x3d build/default/production/_ext/17022449/plib_sercom0_spi_master.o
 .comment       0x0000003c       0x3d build/default/production/_ext/504274921/plib_sercom3_usart.o
 .comment       0x0000003c       0x3d build/default/production/_ext/504274921/plib_sercom4_usart.o
 .comment       0x0000003c       0x3d build/default/production/_ext/504274921/plib_sercom2_usart.o
 .comment       0x0000003c       0x3d build/default/production/_ext/1827571544/plib_systick.o
 .comment       0x0000003c       0x3d build/default/production/_ext/829342655/plib_tc4.o
 .comment       0x0000003c       0x3d build/default/production/_ext/829342655/plib_tc0.o
 .comment       0x0000003c       0x3d build/default/production/_ext/829342655/plib_tc3.o
 .comment       0x0000003c       0x3d build/default/production/_ext/60184501/plib_wdt.o
 .comment       0x0000003c       0x3d build/default/production/_ext/163028504/xc32_monitor.o
 .comment       0x0000003c       0x3d build/default/production/_ext/1881668453/sys_int.o
 .comment       0x0000003c       0x3d build/default/production/_ext/1171490990/initialization.o
 .comment       0x0000003c       0x3d build/default/production/_ext/1171490990/interrupts.o
 .comment       0x0000003c       0x3d build/default/production/_ext/1171490990/exceptions.o
 .comment       0x0000003c       0x3d build/default/production/_ext/1171490990/startup_xc32.o
 .comment       0x0000003c       0x3d build/default/production/_ext/1171490990/tasks.o
 .comment       0x0000003c       0x3d build/default/production/_ext/1360937237/main.o
 .comment       0x0000003c       0x3d build/default/production/_ext/1360937237/myapp.o
 .comment       0x0000003c       0x3d build/default/production/_ext/1360937237/app.o
 .comment       0x0000003c       0x3d build/default/production/_ext/1360937237/at_engine.o
 .comment       0x0000003c       0x3d build/default/production/_ext/1360937237/at_parser.o
 .comment       0x0000003c       0x3d build/default/production/_ext/1360937237/dev_adapter.o
 .comment       0x0000003c       0x3d build/default/production/_ext/1360937237/dev_hal.o
 .comment       0x0000003c       0x3d build/default/production/_ext/1360937237/dev_timer.o
 .comment       0x0000003c       0x3d build/default/production/_ext/1360937237/gsm_gps.o
 .comment       0x0000003c       0x3d build/default/production/_ext/1360937237/app2.o
 .comment       0x0000003c       0x3d build/default/production/_ext/1360937237/app3.o
 .comment       0x0000003c       0x3d build/default/production/_ext/1360937237/ext_flash.o
 .comment       0x0000003c       0x3d build/default/production/_ext/1360937237/app4.o
 .comment       0x0000003c       0x3d c:/program files (x86)/microchip/xc32/v2.30/bin/bin/../../lib/gcc/pic32c/6.2.1/../../../../pic32c/lib\libpic32c.a(data_init.o)
 .comment       0x0000003c       0x3d c:/program files (x86)/microchip/xc32/v2.30/bin/bin/../../lib/gcc/pic32c/6.2.1\libgcc.a(_muldi3.o)
 .comment       0x0000003c       0x3d c:/program files (x86)/microchip/xc32/v2.30/bin/bin/../../lib/gcc/pic32c/6.2.1\libgcc.a(_fixunssfsi.o)
 .comment       0x0000003c       0x3d c:/program files (x86)/microchip/xc32/v2.30/bin/bin/../../lib/gcc/pic32c/6.2.1\libgcc.a(_fixunsdfsi.o)
 .comment       0x0000003c       0x3d c:/program files (x86)/microchip/xc32/v2.30/bin/bin/../../lib/gcc/pic32c/6.2.1\libgcc.a(_udivmoddi4.o)
 .comment       0x0000003c       0x3d c:/program files (x86)/microchip/xc32/v2.30/bin/bin/../../lib/gcc/pic32c/6.2.1\libgcc.a(addsf3.o)
 .comment       0x0000003c       0x3d c:/program files (x86)/microchip/xc32/v2.30/bin/bin/../../lib/gcc/pic32c/6.2.1\libgcc.a(divsf3.o)
 .comment       0x0000003c       0x3d c:/program files (x86)/microchip/xc32/v2.30/bin/bin/../../lib/gcc/pic32c/6.2.1\libgcc.a(eqsf2.o)
 .comment       0x0000003c       0x3d c:/program files (x86)/microchip/xc32/v2.30/bin/bin/../../lib/gcc/pic32c/6.2.1\libgcc.a(gesf2.o)
 .comment       0x0000003c       0x3d c:/program files (x86)/microchip/xc32/v2.30/bin/bin/../../lib/gcc/pic32c/6.2.1\libgcc.a(lesf2.o)
 .comment       0x0000003c       0x3d c:/program files (x86)/microchip/xc32/v2.30/bin/bin/../../lib/gcc/pic32c/6.2.1\libgcc.a(subsf3.o)
 .comment       0x0000003c       0x3d c:/program files (x86)/microchip/xc32/v2.30/bin/bin/../../lib/gcc/pic32c/6.2.1\libgcc.a(fixsfsi.o)
 .comment       0x0000003c       0x3d c:/program files (x86)/microchip/xc32/v2.30/bin/bin/../../lib/gcc/pic32c/6.2.1\libgcc.a(floatsisf.o)
 .comment       0x0000003c       0x3d c:/program files (x86)/microchip/xc32/v2.30/bin/bin/../../lib/gcc/pic32c/6.2.1\libgcc.a(floatunsisf.o)
 .comment       0x0000003c       0x3d c:/program files (x86)/microchip/xc32/v2.30/bin/bin/../../lib/gcc/pic32c/6.2.1\libgcc.a(adddf3.o)
 .comment       0x0000003c       0x3d c:/program files (x86)/microchip/xc32/v2.30/bin/bin/../../lib/gcc/pic32c/6.2.1\libgcc.a(divdf3.o)
 .comment       0x0000003c       0x3d c:/program files (x86)/microchip/xc32/v2.30/bin/bin/../../lib/gcc/pic32c/6.2.1\libgcc.a(eqdf2.o)
 .comment       0x0000003c       0x3d c:/program files (x86)/microchip/xc32/v2.30/bin/bin/../../lib/gcc/pic32c/6.2.1\libgcc.a(gedf2.o)
 .comment       0x0000003c       0x3d c:/program files (x86)/microchip/xc32/v2.30/bin/bin/../../lib/gcc/pic32c/6.2.1\libgcc.a(ledf2.o)
 .comment       0x0000003c       0x3d c:/program files (x86)/microchip/xc32/v2.30/bin/bin/../../lib/gcc/pic32c/6.2.1\libgcc.a(muldf3.o)
 .comment       0x0000003c       0x3d c:/program files (x86)/microchip/xc32/v2.30/bin/bin/../../lib/gcc/pic32c/6.2.1\libgcc.a(subdf3.o)
 .comment       0x0000003c       0x3d c:/program files (x86)/microchip/xc32/v2.30/bin/bin/../../lib/gcc/pic32c/6.2.1\libgcc.a(fixdfsi.o)
 .comment       0x0000003c       0x3d c:/program files (x86)/microchip/xc32/v2.30/bin/bin/../../lib/gcc/pic32c/6.2.1\libgcc.a(floatsidf.o)
 .comment       0x0000003c       0x3d c:/program files (x86)/microchip/xc32/v2.30/bin/bin/../../lib/gcc/pic32c/6.2.1\libgcc.a(floatunsidf.o)
 .comment       0x0000003c       0x3d c:/program files (x86)/microchip/xc32/v2.30/bin/bin/../../lib/gcc/pic32c/6.2.1\libgcc.a(extendsfdf2.o)
 .comment       0x0000003c       0x3d c:/program files (x86)/microchip/xc32/v2.30/bin/bin/../../lib/gcc/pic32c/6.2.1\libgcc.a(truncdfsf2.o)
 .comment       0x0000003c       0x3d c:/program files (x86)/microchip/xc32/v2.30/bin/bin/../../lib/gcc/pic32c/6.2.1/../../../../pic32c/lib\libc.a(lib_a-atof.o)
 .comment       0x0000003c       0x3d c:/program files (x86)/microchip/xc32/v2.30/bin/bin/../../lib/gcc/pic32c/6.2.1/../../../../pic32c/lib\libc.a(lib_a-atol.o)
 .comment       0x0000003c       0x3d c:/program files (x86)/microchip/xc32/v2.30/bin/bin/../../lib/gcc/pic32c/6.2.1/../../../../pic32c/lib\libc.a(lib_a-impure.o)
 .comment       0x0000003c       0x3d c:/program files (x86)/microchip/xc32/v2.30/bin/bin/../../lib/gcc/pic32c/6.2.1/../../../../pic32c/lib\libc.a(lib_a-init.o)
 .comment       0x0000003c       0x3d c:/program files (x86)/microchip/xc32/v2.30/bin/bin/../../lib/gcc/pic32c/6.2.1/../../../../pic32c/lib\libc.a(lib_a-memcpy-stub.o)
 .comment       0x0000003c       0x3d c:/program files (x86)/microchip/xc32/v2.30/bin/bin/../../lib/gcc/pic32c/6.2.1/../../../../pic32c/lib\libc.a(lib_a-memset.o)
 .comment       0x0000003c       0x3d c:/program files (x86)/microchip/xc32/v2.30/bin/bin/../../lib/gcc/pic32c/6.2.1/../../../../pic32c/lib\libc.a(lib_a-printf.o)
 .comment       0x0000003c       0x3d c:/program files (x86)/microchip/xc32/v2.30/bin/bin/../../lib/gcc/pic32c/6.2.1/../../../../pic32c/lib\libc.a(lib_a-puts.o)
 .comment       0x0000003c       0x3d c:/program files (x86)/microchip/xc32/v2.30/bin/bin/../../lib/gcc/pic32c/6.2.1/../../../../pic32c/lib\libc.a(lib_a-setbuf.o)
 .comment       0x0000003c       0x3d c:/program files (x86)/microchip/xc32/v2.30/bin/bin/../../lib/gcc/pic32c/6.2.1/../../../../pic32c/lib\libc.a(lib_a-setvbuf.o)
 .comment       0x0000003c       0x3d c:/program files (x86)/microchip/xc32/v2.30/bin/bin/../../lib/gcc/pic32c/6.2.1/../../../../pic32c/lib\libc.a(lib_a-sprintf.o)
 .comment       0x0000003c       0x3d c:/program files (x86)/microchip/xc32/v2.30/bin/bin/../../lib/gcc/pic32c/6.2.1/../../../../pic32c/lib\libc.a(lib_a-strcat.o)
 .comment       0x0000003c       0x3d c:/program files (x86)/microchip/xc32/v2.30/bin/bin/../../lib/gcc/pic32c/6.2.1/../../../../pic32c/lib\libc.a(lib_a-strchr.o)
 .comment       0x0000003c       0x3d c:/program files (x86)/microchip/xc32/v2.30/bin/bin/../../lib/gcc/pic32c/6.2.1/../../../../pic32c/lib\libc.a(lib_a-strcpy.o)
 .comment       0x0000003c       0x3d c:/program files (x86)/microchip/xc32/v2.30/bin/bin/../../lib/gcc/pic32c/6.2.1/../../../../pic32c/lib\libc.a(lib_a-strncpy.o)
 .comment       0x0000003c       0x3d c:/program files (x86)/microchip/xc32/v2.30/bin/bin/../../lib/gcc/pic32c/6.2.1/../../../../pic32c/lib\libc.a(lib_a-strstr.o)
 .comment       0x0000003c       0x3d c:/program files (x86)/microchip/xc32/v2.30/bin/bin/../../lib/gcc/pic32c/6.2.1/../../../../pic32c/lib\libc.a(lib_a-strtod.o)
 .comment       0x0000003c       0x3d c:/program files (x86)/microchip/xc32/v2.30/bin/bin/../../lib/gcc/pic32c/6.2.1/../../../../pic32c/lib\libc.a(lib_a-strtok.o)
 .comment       0x0000003c       0x3d c:/program files (x86)/microchip/xc32/v2.30/bin/bin/../../lib/gcc/pic32c/6.2.1/../../../../pic32c/lib\libc.a(lib_a-strtok_r.o)
 .comment       0x0000003c       0x3d c:/program files (x86)/microchip/xc32/v2.30/bin/bin/../../lib/gcc/pic32c/6.2.1/../../../../pic32c/lib\libc.a(lib_a-strtol.o)
 .comment       0x0000003c       0x3d c:/program files (x86)/microchip/xc32/v2.30/bin/bin/../../lib/gcc/pic32c/6.2.1/../../../../pic32c/lib\libc.a(lib_a-svfprintf.o)
 .comment       0x0000003c       0x3d c:/program files (x86)/microchip/xc32/v2.30/bin/bin/../../lib/gcc/pic32c/6.2.1/../../../../pic32c/lib\libc.a(lib_a-vfprintf.o)
 .comment       0x0000003c       0x3d c:/program files (x86)/microchip/xc32/v2.30/bin/bin/../../lib/gcc/pic32c/6.2.1/../../../../pic32c/lib\libc.a(lib_a-wsetup.o)
 .comment       0x0000003c       0x3d c:/program files (x86)/microchip/xc32/v2.30/bin/bin/../../lib/gcc/pic32c/6.2.1/../../../../pic32c/lib\libc.a(lib_a-dtoa.o)
 .comment       0x0000003c       0x3d c:/program files (x86)/microchip/xc32/v2.30/bin/bin/../../lib/gcc/pic32c/6.2.1/../../../../pic32c/lib\libc.a(lib_a-fflush.o)
 .comment       0x0000003c       0x3d c:/program files (x86)/microchip/xc32/v2.30/bin/bin/../../lib/gcc/pic32c/6.2.1/../../../../pic32c/lib\libc.a(lib_a-findfp.o)
 .comment       0x0000003c       0x3d c:/program files (x86)/microchip/xc32/v2.30/bin/bin/../../lib/gcc/pic32c/6.2.1/../../../../pic32c/lib\libc.a(lib_a-freer.o)
 .comment       0x0000003c       0x3d c:/program files (x86)/microchip/xc32/v2.30/bin/bin/../../lib/gcc/pic32c/6.2.1/../../../../pic32c/lib\libc.a(lib_a-fvwrite.o)
 .comment       0x0000003c       0x3d c:/program files (x86)/microchip/xc32/v2.30/bin/bin/../../lib/gcc/pic32c/6.2.1/../../../../pic32c/lib\libc.a(lib_a-fwalk.o)
 .comment       0x0000003c       0x3d c:/program files (x86)/microchip/xc32/v2.30/bin/bin/../../lib/gcc/pic32c/6.2.1/../../../../pic32c/lib\libc.a(lib_a-gdtoa-gethex.o)
 .comment       0x0000003c       0x3d c:/program files (x86)/microchip/xc32/v2.30/bin/bin/../../lib/gcc/pic32c/6.2.1/../../../../pic32c/lib\libc.a(lib_a-gdtoa-hexnan.o)
 .comment       0x0000003c       0x3d c:/program files (x86)/microchip/xc32/v2.30/bin/bin/../../lib/gcc/pic32c/6.2.1/../../../../pic32c/lib\libc.a(lib_a-localeconv.o)
 .comment       0x0000003c       0x3d c:/program files (x86)/microchip/xc32/v2.30/bin/bin/../../lib/gcc/pic32c/6.2.1/../../../../pic32c/lib\libc.a(lib_a-locale.o)
 .comment       0x0000003c       0x3d c:/program files (x86)/microchip/xc32/v2.30/bin/bin/../../lib/gcc/pic32c/6.2.1/../../../../pic32c/lib\libc.a(lib_a-makebuf.o)
 .comment       0x0000003c       0x3d c:/program files (x86)/microchip/xc32/v2.30/bin/bin/../../lib/gcc/pic32c/6.2.1/../../../../pic32c/lib\libc.a(lib_a-malloc.o)
 .comment       0x0000003c       0x3d c:/program files (x86)/microchip/xc32/v2.30/bin/bin/../../lib/gcc/pic32c/6.2.1/../../../../pic32c/lib\libc.a(lib_a-mallocr.o)
 .comment       0x0000003c       0x3d c:/program files (x86)/microchip/xc32/v2.30/bin/bin/../../lib/gcc/pic32c/6.2.1/../../../../pic32c/lib\libc.a(lib_a-mbtowc_r.o)
 .comment       0x0000003c       0x3d c:/program files (x86)/microchip/xc32/v2.30/bin/bin/../../lib/gcc/pic32c/6.2.1/../../../../pic32c/lib\libc.a(lib_a-memchr-stub.o)
 .comment       0x0000003c       0x3d c:/program files (x86)/microchip/xc32/v2.30/bin/bin/../../lib/gcc/pic32c/6.2.1/../../../../pic32c/lib\libc.a(lib_a-memmove.o)
 .comment       0x0000003c       0x3d c:/program files (x86)/microchip/xc32/v2.30/bin/bin/../../lib/gcc/pic32c/6.2.1/../../../../pic32c/lib\libc.a(lib_a-mlock.o)
 .comment       0x0000003c       0x3d c:/program files (x86)/microchip/xc32/v2.30/bin/bin/../../lib/gcc/pic32c/6.2.1/../../../../pic32c/lib\libc.a(lib_a-mprec.o)
 .comment       0x0000003c       0x3d c:/program files (x86)/microchip/xc32/v2.30/bin/bin/../../lib/gcc/pic32c/6.2.1/../../../../pic32c/lib\libc.a(lib_a-reallocr.o)
 .comment       0x0000003c       0x3d c:/program files (x86)/microchip/xc32/v2.30/bin/bin/../../lib/gcc/pic32c/6.2.1/../../../../pic32c/lib\libc.a(lib_a-sbrkr.o)
 .comment       0x0000003c       0x3d c:/program files (x86)/microchip/xc32/v2.30/bin/bin/../../lib/gcc/pic32c/6.2.1/../../../../pic32c/lib\libc.a(lib_a-s_frexp.o)
 .comment       0x0000003c       0x3d c:/program files (x86)/microchip/xc32/v2.30/bin/bin/../../lib/gcc/pic32c/6.2.1/../../../../pic32c/lib\libc.a(lib_a-stdio.o)
 .comment       0x0000003c       0x3d c:/program files (x86)/microchip/xc32/v2.30/bin/bin/../../lib/gcc/pic32c/6.2.1/../../../../pic32c/lib\libc.a(lib_a-strncmp.o)
 .comment       0x0000003c       0x3d c:/program files (x86)/microchip/xc32/v2.30/bin/bin/../../lib/gcc/pic32c/6.2.1/../../../../pic32c/lib\libc.a(lib_a-svfiprintf.o)
 .comment       0x0000003c       0x3d c:/program files (x86)/microchip/xc32/v2.30/bin/bin/../../lib/gcc/pic32c/6.2.1/../../../../pic32c/lib\libc.a(lib_a-vfiprintf.o)
 .comment       0x0000003c       0x3d c:/program files (x86)/microchip/xc32/v2.30/bin/bin/../../lib/gcc/pic32c/6.2.1/../../../../pic32c/lib\libc.a(lib_a-wctomb_r.o)
 .comment       0x0000003c       0x3d c:/program files (x86)/microchip/xc32/v2.30/bin/bin/../../lib/gcc/pic32c/6.2.1/../../../../pic32c/lib\libc.a(lib_a-writer.o)
 .comment       0x0000003c       0x3d c:/program files (x86)/microchip/xc32/v2.30/bin/bin/../../lib/gcc/pic32c/6.2.1/../../../../pic32c/lib\libc.a(lib_a-callocr.o)
 .comment       0x0000003c       0x3d c:/program files (x86)/microchip/xc32/v2.30/bin/bin/../../lib/gcc/pic32c/6.2.1/../../../../pic32c/lib\libc.a(lib_a-closer.o)
 .comment       0x0000003c       0x3d c:/program files (x86)/microchip/xc32/v2.30/bin/bin/../../lib/gcc/pic32c/6.2.1/../../../../pic32c/lib\libc.a(lib_a-ctype_.o)
 .comment       0x0000003c       0x3d c:/program files (x86)/microchip/xc32/v2.30/bin/bin/../../lib/gcc/pic32c/6.2.1/../../../../pic32c/lib\libc.a(lib_a-fclose.o)
 .comment       0x0000003c       0x3d c:/program files (x86)/microchip/xc32/v2.30/bin/bin/../../lib/gcc/pic32c/6.2.1/../../../../pic32c/lib\libc.a(lib_a-fputwc.o)
 .comment       0x0000003c       0x3d c:/program files (x86)/microchip/xc32/v2.30/bin/bin/../../lib/gcc/pic32c/6.2.1/../../../../pic32c/lib\libc.a(lib_a-fstatr.o)
 .comment       0x0000003c       0x3d c:/program files (x86)/microchip/xc32/v2.30/bin/bin/../../lib/gcc/pic32c/6.2.1/../../../../pic32c/lib\libc.a(lib_a-isattyr.o)
 .comment       0x0000003c       0x3d c:/program files (x86)/microchip/xc32/v2.30/bin/bin/../../lib/gcc/pic32c/6.2.1/../../../../pic32c/lib\libc.a(lib_a-lseekr.o)
 .comment       0x0000003c       0x3d c:/program files (x86)/microchip/xc32/v2.30/bin/bin/../../lib/gcc/pic32c/6.2.1/../../../../pic32c/lib\libc.a(lib_a-readr.o)
 .comment       0x0000003c       0x3d c:/program files (x86)/microchip/xc32/v2.30/bin/bin/../../lib/gcc/pic32c/6.2.1/../../../../pic32c/lib\libc.a(lib_a-reent.o)
 .comment       0x0000003c       0x3d c:/program files (x86)/microchip/xc32/v2.30/bin/bin/../../lib/gcc/pic32c/6.2.1/../../../../pic32c/lib\libc.a(lib_a-wbuf.o)
 .comment       0x0000003c       0x3d c:/program files (x86)/microchip/xc32/v2.30/bin/bin/../../lib/gcc/pic32c/6.2.1/../../../../pic32c/lib\libc.a(lib_a-wcrtomb.o)
 .comment       0x0000003c       0x3d c:/program files (x86)/microchip/xc32/v2.30/bin/bin/../../lib/gcc/pic32c/6.2.1/../../../../pic32c/lib\libpic32c.a(_close.o)
 .comment       0x0000003c       0x3d c:/program files (x86)/microchip/xc32/v2.30/bin/bin/../../lib/gcc/pic32c/6.2.1/../../../../pic32c/lib\libpic32c.a(_fstat.o)
 .comment       0x0000003c       0x3d c:/program files (x86)/microchip/xc32/v2.30/bin/bin/../../lib/gcc/pic32c/6.2.1/../../../../pic32c/lib\libpic32c.a(_isatty.o)
 .comment       0x0000003c       0x3d c:/program files (x86)/microchip/xc32/v2.30/bin/bin/../../lib/gcc/pic32c/6.2.1/../../../../pic32c/lib\libpic32c.a(_lseek.o)
 .comment       0x0000003c       0x3d c:/program files (x86)/microchip/xc32/v2.30/bin/bin/../../lib/gcc/pic32c/6.2.1/../../../../pic32c/lib\libpic32c.a(_read.o)
 .comment       0x0000003c       0x3d c:/program files (x86)/microchip/xc32/v2.30/bin/bin/../../lib/gcc/pic32c/6.2.1/../../../../pic32c/lib\libpic32c.a(sbrk.o)
 .comment       0x0000003c       0x3d c:/program files (x86)/microchip/xc32/v2.30/bin/bin/../../lib/gcc/pic32c/6.2.1/../../../../pic32c/lib\libpic32c.a(_write.o)
 .comment       0x0000003c       0x3d c:/program files (x86)/microchip/xc32/v2.30/bin/bin/../../lib/gcc/pic32c/6.2.1/../../../../pic32c/lib\libpic32c.a(close.o)
 .comment       0x0000003c       0x3d c:/program files (x86)/microchip/xc32/v2.30/bin/bin/../../lib/gcc/pic32c/6.2.1/../../../../pic32c/lib\libpic32c.a(fstat.o)
 .comment       0x0000003c       0x3d c:/program files (x86)/microchip/xc32/v2.30/bin/bin/../../lib/gcc/pic32c/6.2.1/../../../../pic32c/lib\libpic32c.a(isatty.o)
 .comment       0x0000003c       0x3d c:/program files (x86)/microchip/xc32/v2.30/bin/bin/../../lib/gcc/pic32c/6.2.1/../../../../pic32c/lib\libpic32c.a(lseek.o)
 .comment       0x0000003c       0x3d c:/program files (x86)/microchip/xc32/v2.30/bin/bin/../../lib/gcc/pic32c/6.2.1/../../../../pic32c/lib\libpic32c.a(read.o)
 .comment       0x0000003c       0x3d c:/program files (x86)/microchip/xc32/v2.30/bin/bin/../../lib/gcc/pic32c/6.2.1/../../../../pic32c/lib\libpic32c.a(write.o)
 .comment       0x0000003c       0x3d c:/program files (x86)/microchip/xc32/v2.30/bin/bin/../../lib/gcc/pic32c/6.2.1\libgcc.a(unorddf2.o)

.debug_info     0x00000000    0x9534b
 .debug_info    0x00000000     0x3c71 build/default/production/_ext/869808652/drv_usart.o
 .debug_info    0x00003c71     0x2356 build/default/production/_ext/60165182/plib_can0.o
 .debug_info    0x00005fc7      0xacc build/default/production/_ext/1984496892/plib_clock.o
 .debug_info    0x00006a93      0x6ba build/default/production/_ext/60167341/plib_eic.o
 .debug_info    0x0000714d      0x2ff build/default/production/_ext/1986646378/plib_evsys.o
 .debug_info    0x0000744c      0xb73 build/default/production/_ext/1865468468/plib_nvic.o
 .debug_info    0x00007fbf     0x1524 build/default/production/_ext/1593096446/plib_nvmctrl.o
 .debug_info    0x000094e3      0xd08 build/default/production/_ext/1865521619/plib_port.o
 .debug_info    0x0000a1eb     0x161a build/default/production/_ext/60180175/plib_rtc_clock.o
 .debug_info    0x0000b805     0x1113 build/default/production/_ext/17022449/plib_sercom0_spi_master.o
 .debug_info    0x0000c918     0x1717 build/default/production/_ext/504274921/plib_sercom3_usart.o
 .debug_info    0x0000e02f     0x13a9 build/default/production/_ext/504274921/plib_sercom4_usart.o
 .debug_info    0x0000f3d8     0x1717 build/default/production/_ext/504274921/plib_sercom2_usart.o
 .debug_info    0x00010aef      0x72d build/default/production/_ext/1827571544/plib_systick.o
 .debug_info    0x0001121c      0xc00 build/default/production/_ext/829342655/plib_tc4.o
 .debug_info    0x00011e1c      0xc00 build/default/production/_ext/829342655/plib_tc0.o
 .debug_info    0x00012a1c      0xc00 build/default/production/_ext/829342655/plib_tc3.o
 .debug_info    0x0001361c      0x4fe build/default/production/_ext/60184501/plib_wdt.o
 .debug_info    0x00013b1a     0x16b5 build/default/production/_ext/163028504/xc32_monitor.o
 .debug_info    0x000151cf      0x99b build/default/production/_ext/1881668453/sys_int.o
 .debug_info    0x00015b6a     0x2dc3 build/default/production/_ext/1171490990/initialization.o
 .debug_info    0x0001892d     0x1b5a build/default/production/_ext/1171490990/interrupts.o
 .debug_info    0x0001a487     0x161d build/default/production/_ext/1171490990/exceptions.o
 .debug_info    0x0001baa4      0x491 build/default/production/_ext/1171490990/startup_xc32.o
 .debug_info    0x0001bf35     0x1644 build/default/production/_ext/1171490990/tasks.o
 .debug_info    0x0001d579     0x1a3b build/default/production/_ext/1360937237/main.o
 .debug_info    0x0001efb4     0x113f build/default/production/_ext/1360937237/myapp.o
 .debug_info    0x000200f3     0x2b1c build/default/production/_ext/1360937237/app.o
 .debug_info    0x00022c0f     0x379f build/default/production/_ext/1360937237/at_engine.o
 .debug_info    0x000263ae     0x14e4 build/default/production/_ext/1360937237/at_parser.o
 .debug_info    0x00027892     0x1169 build/default/production/_ext/1360937237/dev_adapter.o
 .debug_info    0x000289fb     0x1f49 build/default/production/_ext/1360937237/dev_hal.o
 .debug_info    0x0002a944      0xf35 build/default/production/_ext/1360937237/dev_timer.o
 .debug_info    0x0002b879     0x3a46 build/default/production/_ext/1360937237/gsm_gps.o
 .debug_info    0x0002f2bf     0x2667 build/default/production/_ext/1360937237/app2.o
 .debug_info    0x00031926     0x564b build/default/production/_ext/1360937237/app3.o
 .debug_info    0x00036f71     0x2c81 build/default/production/_ext/1360937237/ext_flash.o
 .debug_info    0x00039bf2     0x2b5e build/default/production/_ext/1360937237/app4.o
 .debug_info    0x0003c750      0x1f0 c:/program files (x86)/microchip/xc32/v2.30/bin/bin/../../lib/gcc/pic32c/6.2.1/../../../../pic32c/lib\libpic32c.a(data_init.o)
 .debug_info    0x0003c940       0xee c:/program files (x86)/microchip/xc32/v2.30/bin/bin/../../lib/gcc/pic32c/6.2.1\libgcc.a(_udivsi3.o)
 .debug_info    0x0003ca2e       0xee c:/program files (x86)/microchip/xc32/v2.30/bin/bin/../../lib/gcc/pic32c/6.2.1\libgcc.a(_divsi3.o)
 .debug_info    0x0003cb1c       0xee c:/program files (x86)/microchip/xc32/v2.30/bin/bin/../../lib/gcc/pic32c/6.2.1\libgcc.a(_dvmd_tls.o)
 .debug_info    0x0003cc0a       0xee c:/program files (x86)/microchip/xc32/v2.30/bin/bin/../../lib/gcc/pic32c/6.2.1\libgcc.a(_arm_cmpdf2.o)
 .debug_info    0x0003ccf8       0xee c:/program files (x86)/microchip/xc32/v2.30/bin/bin/../../lib/gcc/pic32c/6.2.1\libgcc.a(_arm_cmpsf2.o)
 .debug_info    0x0003cde6       0xee c:/program files (x86)/microchip/xc32/v2.30/bin/bin/../../lib/gcc/pic32c/6.2.1\libgcc.a(_aeabi_uldivmod.o)
 .debug_info    0x0003ced4     0x13d1 c:/program files (x86)/microchip/xc32/v2.30/bin/bin/../../lib/gcc/pic32c/6.2.1\libgcc.a(_muldi3.o)
 .debug_info    0x0003e2a5     0x12a0 c:/program files (x86)/microchip/xc32/v2.30/bin/bin/../../lib/gcc/pic32c/6.2.1\libgcc.a(_fixunssfsi.o)
 .debug_info    0x0003f545     0x12a0 c:/program files (x86)/microchip/xc32/v2.30/bin/bin/../../lib/gcc/pic32c/6.2.1\libgcc.a(_fixunsdfsi.o)
 .debug_info    0x000407e5     0x132c c:/program files (x86)/microchip/xc32/v2.30/bin/bin/../../lib/gcc/pic32c/6.2.1\libgcc.a(_udivmoddi4.o)
 .debug_info    0x00041b11      0x556 c:/program files (x86)/microchip/xc32/v2.30/bin/bin/../../lib/gcc/pic32c/6.2.1\libgcc.a(addsf3.o)
 .debug_info    0x00042067      0x58b c:/program files (x86)/microchip/xc32/v2.30/bin/bin/../../lib/gcc/pic32c/6.2.1\libgcc.a(divsf3.o)
 .debug_info    0x000425f2      0x3e0 c:/program files (x86)/microchip/xc32/v2.30/bin/bin/../../lib/gcc/pic32c/6.2.1\libgcc.a(eqsf2.o)
 .debug_info    0x000429d2      0x404 c:/program files (x86)/microchip/xc32/v2.30/bin/bin/../../lib/gcc/pic32c/6.2.1\libgcc.a(gesf2.o)
 .debug_info    0x00042dd6      0x408 c:/program files (x86)/microchip/xc32/v2.30/bin/bin/../../lib/gcc/pic32c/6.2.1\libgcc.a(lesf2.o)
 .debug_info    0x000431de      0x556 c:/program files (x86)/microchip/xc32/v2.30/bin/bin/../../lib/gcc/pic32c/6.2.1\libgcc.a(subsf3.o)
 .debug_info    0x00043734      0x39d c:/program files (x86)/microchip/xc32/v2.30/bin/bin/../../lib/gcc/pic32c/6.2.1\libgcc.a(fixsfsi.o)
 .debug_info    0x00043ad1      0x477 c:/program files (x86)/microchip/xc32/v2.30/bin/bin/../../lib/gcc/pic32c/6.2.1\libgcc.a(floatsisf.o)
 .debug_info    0x00043f48      0x465 c:/program files (x86)/microchip/xc32/v2.30/bin/bin/../../lib/gcc/pic32c/6.2.1\libgcc.a(floatunsisf.o)
 .debug_info    0x000443ad      0x7b0 c:/program files (x86)/microchip/xc32/v2.30/bin/bin/../../lib/gcc/pic32c/6.2.1\libgcc.a(adddf3.o)
 .debug_info    0x00044b5d      0x9c6 c:/program files (x86)/microchip/xc32/v2.30/bin/bin/../../lib/gcc/pic32c/6.2.1\libgcc.a(divdf3.o)
 .debug_info    0x00045523      0x413 c:/program files (x86)/microchip/xc32/v2.30/bin/bin/../../lib/gcc/pic32c/6.2.1\libgcc.a(eqdf2.o)
 .debug_info    0x00045936      0x43f c:/program files (x86)/microchip/xc32/v2.30/bin/bin/../../lib/gcc/pic32c/6.2.1\libgcc.a(gedf2.o)
 .debug_info    0x00045d75      0x437 c:/program files (x86)/microchip/xc32/v2.30/bin/bin/../../lib/gcc/pic32c/6.2.1\libgcc.a(ledf2.o)
 .debug_info    0x000461ac      0xa41 c:/program files (x86)/microchip/xc32/v2.30/bin/bin/../../lib/gcc/pic32c/6.2.1\libgcc.a(muldf3.o)
 .debug_info    0x00046bed      0x7b0 c:/program files (x86)/microchip/xc32/v2.30/bin/bin/../../lib/gcc/pic32c/6.2.1\libgcc.a(subdf3.o)
 .debug_info    0x0004739d      0x3bc c:/program files (x86)/microchip/xc32/v2.30/bin/bin/../../lib/gcc/pic32c/6.2.1\libgcc.a(fixdfsi.o)
 .debug_info    0x00047759      0x4fc c:/program files (x86)/microchip/xc32/v2.30/bin/bin/../../lib/gcc/pic32c/6.2.1\libgcc.a(floatsidf.o)
 .debug_info    0x00047c55      0x4f4 c:/program files (x86)/microchip/xc32/v2.30/bin/bin/../../lib/gcc/pic32c/6.2.1\libgcc.a(floatunsidf.o)
 .debug_info    0x00048149      0x47d c:/program files (x86)/microchip/xc32/v2.30/bin/bin/../../lib/gcc/pic32c/6.2.1\libgcc.a(extendsfdf2.o)
 .debug_info    0x000485c6      0x4ee c:/program files (x86)/microchip/xc32/v2.30/bin/bin/../../lib/gcc/pic32c/6.2.1\libgcc.a(truncdfsf2.o)
 .debug_info    0x00048ab4       0xee c:/program files (x86)/microchip/xc32/v2.30/bin/bin/../../lib/gcc/pic32c/6.2.1\libgcc.a(_thumb1_case_uqi.o)
 .debug_info    0x00048ba2       0xee c:/program files (x86)/microchip/xc32/v2.30/bin/bin/../../lib/gcc/pic32c/6.2.1\libgcc.a(_thumb1_case_uhi.o)
 .debug_info    0x00048c90       0xee c:/program files (x86)/microchip/xc32/v2.30/bin/bin/../../lib/gcc/pic32c/6.2.1\libgcc.a(_lshrdi3.o)
 .debug_info    0x00048d7e       0xee c:/program files (x86)/microchip/xc32/v2.30/bin/bin/../../lib/gcc/pic32c/6.2.1\libgcc.a(_ashldi3.o)
 .debug_info    0x00048e6c       0xee c:/program files (x86)/microchip/xc32/v2.30/bin/bin/../../lib/gcc/pic32c/6.2.1\libgcc.a(_clzsi2.o)
 .debug_info    0x00048f5a       0xee c:/program files (x86)/microchip/xc32/v2.30/bin/bin/../../lib/gcc/pic32c/6.2.1\libgcc.a(_clzdi2.o)
 .debug_info    0x00049048      0xd51 c:/program files (x86)/microchip/xc32/v2.30/bin/bin/../../lib/gcc/pic32c/6.2.1/../../../../pic32c/lib\libc.a(lib_a-atof.o)
 .debug_info    0x00049d99      0xdba c:/program files (x86)/microchip/xc32/v2.30/bin/bin/../../lib/gcc/pic32c/6.2.1/../../../../pic32c/lib\libc.a(lib_a-atol.o)
 .debug_info    0x0004ab53      0xd02 c:/program files (x86)/microchip/xc32/v2.30/bin/bin/../../lib/gcc/pic32c/6.2.1/../../../../pic32c/lib\libc.a(lib_a-impure.o)
 .debug_info    0x0004b855      0x354 c:/program files (x86)/microchip/xc32/v2.30/bin/bin/../../lib/gcc/pic32c/6.2.1/../../../../pic32c/lib\libc.a(lib_a-init.o)
 .debug_info    0x0004bba9      0xd79 c:/program files (x86)/microchip/xc32/v2.30/bin/bin/../../lib/gcc/pic32c/6.2.1/../../../../pic32c/lib\libc.a(lib_a-memcpy-stub.o)
 .debug_info    0x0004c922     0x14a9 c:/program files (x86)/microchip/xc32/v2.30/bin/bin/../../lib/gcc/pic32c/6.2.1/../../../../pic32c/lib\libc.a(lib_a-memset.o)
 .debug_info    0x0004ddcb     0x1105 c:/program files (x86)/microchip/xc32/v2.30/bin/bin/../../lib/gcc/pic32c/6.2.1/../../../../pic32c/lib\libc.a(lib_a-printf.o)
 .debug_info    0x0004eed0     0x11dc c:/program files (x86)/microchip/xc32/v2.30/bin/bin/../../lib/gcc/pic32c/6.2.1/../../../../pic32c/lib\libc.a(lib_a-puts.o)
 .debug_info    0x000500ac     0x1050 c:/program files (x86)/microchip/xc32/v2.30/bin/bin/../../lib/gcc/pic32c/6.2.1/../../../../pic32c/lib\libc.a(lib_a-setbuf.o)
 .debug_info    0x000510fc     0x11c6 c:/program files (x86)/microchip/xc32/v2.30/bin/bin/../../lib/gcc/pic32c/6.2.1/../../../../pic32c/lib\libc.a(lib_a-setvbuf.o)
 .debug_info    0x000522c2     0x1156 c:/program files (x86)/microchip/xc32/v2.30/bin/bin/../../lib/gcc/pic32c/6.2.1/../../../../pic32c/lib\libc.a(lib_a-sprintf.o)
 .debug_info    0x00053418      0xd25 c:/program files (x86)/microchip/xc32/v2.30/bin/bin/../../lib/gcc/pic32c/6.2.1/../../../../pic32c/lib\libc.a(lib_a-strcat.o)
 .debug_info    0x0005413d      0xd41 c:/program files (x86)/microchip/xc32/v2.30/bin/bin/../../lib/gcc/pic32c/6.2.1/../../../../pic32c/lib\libc.a(lib_a-strchr.o)
 .debug_info    0x00054e7e      0x10f c:/program files (x86)/microchip/xc32/v2.30/bin/bin/../../lib/gcc/pic32c/6.2.1/../../../../pic32c/lib\libc.a(lib_a-strcmp.o)
 .debug_info    0x00054f8d      0xd1e c:/program files (x86)/microchip/xc32/v2.30/bin/bin/../../lib/gcc/pic32c/6.2.1/../../../../pic32c/lib\libc.a(lib_a-strcpy.o)
 .debug_info    0x00055cab      0x112 c:/program files (x86)/microchip/xc32/v2.30/bin/bin/../../lib/gcc/pic32c/6.2.1/../../../../pic32c/lib\libc.a(lib_a-strlen.o)
 .debug_info    0x00055dbd      0xd5f c:/program files (x86)/microchip/xc32/v2.30/bin/bin/../../lib/gcc/pic32c/6.2.1/../../../../pic32c/lib\libc.a(lib_a-strncpy.o)
 .debug_info    0x00056b1c      0xd46 c:/program files (x86)/microchip/xc32/v2.30/bin/bin/../../lib/gcc/pic32c/6.2.1/../../../../pic32c/lib\libc.a(lib_a-strstr.o)
 .debug_info    0x00057862     0x255a c:/program files (x86)/microchip/xc32/v2.30/bin/bin/../../lib/gcc/pic32c/6.2.1/../../../../pic32c/lib\libc.a(lib_a-strtod.o)
 .debug_info    0x00059dbc      0xd5b c:/program files (x86)/microchip/xc32/v2.30/bin/bin/../../lib/gcc/pic32c/6.2.1/../../../../pic32c/lib\libc.a(lib_a-strtok.o)
 .debug_info    0x0005ab17      0xe0b c:/program files (x86)/microchip/xc32/v2.30/bin/bin/../../lib/gcc/pic32c/6.2.1/../../../../pic32c/lib\libc.a(lib_a-strtok_r.o)
 .debug_info    0x0005b922     0x180c c:/program files (x86)/microchip/xc32/v2.30/bin/bin/../../lib/gcc/pic32c/6.2.1/../../../../pic32c/lib\libc.a(lib_a-strtol.o)
 .debug_info    0x0005d12e     0x2761 c:/program files (x86)/microchip/xc32/v2.30/bin/bin/../../lib/gcc/pic32c/6.2.1/../../../../pic32c/lib\libc.a(lib_a-svfprintf.o)
 .debug_info    0x0005f88f     0x294e c:/program files (x86)/microchip/xc32/v2.30/bin/bin/../../lib/gcc/pic32c/6.2.1/../../../../pic32c/lib\libc.a(lib_a-vfprintf.o)
 .debug_info    0x000621dd     0x10e8 c:/program files (x86)/microchip/xc32/v2.30/bin/bin/../../lib/gcc/pic32c/6.2.1/../../../../pic32c/lib\libc.a(lib_a-wsetup.o)
 .debug_info    0x000632c5     0x2013 c:/program files (x86)/microchip/xc32/v2.30/bin/bin/../../lib/gcc/pic32c/6.2.1/../../../../pic32c/lib\libc.a(lib_a-dtoa.o)
 .debug_info    0x000652d8     0x1259 c:/program files (x86)/microchip/xc32/v2.30/bin/bin/../../lib/gcc/pic32c/6.2.1/../../../../pic32c/lib\libc.a(lib_a-fflush.o)
 .debug_info    0x00066531     0x13cf c:/program files (x86)/microchip/xc32/v2.30/bin/bin/../../lib/gcc/pic32c/6.2.1/../../../../pic32c/lib\libc.a(lib_a-findfp.o)
 .debug_info    0x00067900     0x12b8 c:/program files (x86)/microchip/xc32/v2.30/bin/bin/../../lib/gcc/pic32c/6.2.1/../../../../pic32c/lib\libc.a(lib_a-freer.o)
 .debug_info    0x00068bb8     0x13f5 c:/program files (x86)/microchip/xc32/v2.30/bin/bin/../../lib/gcc/pic32c/6.2.1/../../../../pic32c/lib\libc.a(lib_a-fvwrite.o)
 .debug_info    0x00069fad     0x116a c:/program files (x86)/microchip/xc32/v2.30/bin/bin/../../lib/gcc/pic32c/6.2.1/../../../../pic32c/lib\libc.a(lib_a-fwalk.o)
 .debug_info    0x0006b117     0x1e0d c:/program files (x86)/microchip/xc32/v2.30/bin/bin/../../lib/gcc/pic32c/6.2.1/../../../../pic32c/lib\libc.a(lib_a-gdtoa-gethex.o)
 .debug_info    0x0006cf24     0x1900 c:/program files (x86)/microchip/xc32/v2.30/bin/bin/../../lib/gcc/pic32c/6.2.1/../../../../pic32c/lib\libc.a(lib_a-gdtoa-hexnan.o)
 .debug_info    0x0006e824     0x15f6 c:/program files (x86)/microchip/xc32/v2.30/bin/bin/../../lib/gcc/pic32c/6.2.1/../../../../pic32c/lib\libc.a(lib_a-localeconv.o)
 .debug_info    0x0006fe1a     0x1790 c:/program files (x86)/microchip/xc32/v2.30/bin/bin/../../lib/gcc/pic32c/6.2.1/../../../../pic32c/lib\libc.a(lib_a-locale.o)
 .debug_info    0x000715aa     0x14a7 c:/program files (x86)/microchip/xc32/v2.30/bin/bin/../../lib/gcc/pic32c/6.2.1/../../../../pic32c/lib\libc.a(lib_a-makebuf.o)
 .debug_info    0x00072a51      0xda5 c:/program files (x86)/microchip/xc32/v2.30/bin/bin/../../lib/gcc/pic32c/6.2.1/../../../../pic32c/lib\libc.a(lib_a-malloc.o)
 .debug_info    0x000737f6     0x13f6 c:/program files (x86)/microchip/xc32/v2.30/bin/bin/../../lib/gcc/pic32c/6.2.1/../../../../pic32c/lib\libc.a(lib_a-mallocr.o)
 .debug_info    0x00074bec     0x1669 c:/program files (x86)/microchip/xc32/v2.30/bin/bin/../../lib/gcc/pic32c/6.2.1/../../../../pic32c/lib\libc.a(lib_a-mbtowc_r.o)
 .debug_info    0x00076255      0xd78 c:/program files (x86)/microchip/xc32/v2.30/bin/bin/../../lib/gcc/pic32c/6.2.1/../../../../pic32c/lib\libc.a(lib_a-memchr-stub.o)
 .debug_info    0x00076fcd     0x14d7 c:/program files (x86)/microchip/xc32/v2.30/bin/bin/../../lib/gcc/pic32c/6.2.1/../../../../pic32c/lib\libc.a(lib_a-memmove.o)
 .debug_info    0x000784a4      0xd3f c:/program files (x86)/microchip/xc32/v2.30/bin/bin/../../lib/gcc/pic32c/6.2.1/../../../../pic32c/lib\libc.a(lib_a-mlock.o)
 .debug_info    0x000791e3     0x2396 c:/program files (x86)/microchip/xc32/v2.30/bin/bin/../../lib/gcc/pic32c/6.2.1/../../../../pic32c/lib\libc.a(lib_a-mprec.o)
 .debug_info    0x0007b579     0x13ff c:/program files (x86)/microchip/xc32/v2.30/bin/bin/../../lib/gcc/pic32c/6.2.1/../../../../pic32c/lib\libc.a(lib_a-reallocr.o)
 .debug_info    0x0007c978      0xdf2 c:/program files (x86)/microchip/xc32/v2.30/bin/bin/../../lib/gcc/pic32c/6.2.1/../../../../pic32c/lib\libc.a(lib_a-sbrkr.o)
 .debug_info    0x0007d76a      0xed4 c:/program files (x86)/microchip/xc32/v2.30/bin/bin/../../lib/gcc/pic32c/6.2.1/../../../../pic32c/lib\libc.a(lib_a-s_frexp.o)
 .debug_info    0x0007e63e     0x131b c:/program files (x86)/microchip/xc32/v2.30/bin/bin/../../lib/gcc/pic32c/6.2.1/../../../../pic32c/lib\libc.a(lib_a-stdio.o)
 .debug_info    0x0007f959      0xd37 c:/program files (x86)/microchip/xc32/v2.30/bin/bin/../../lib/gcc/pic32c/6.2.1/../../../../pic32c/lib\libc.a(lib_a-strncmp.o)
 .debug_info    0x00080690     0x2109 c:/program files (x86)/microchip/xc32/v2.30/bin/bin/../../lib/gcc/pic32c/6.2.1/../../../../pic32c/lib\libc.a(lib_a-svfiprintf.o)
 .debug_info    0x00082799     0x22b2 c:/program files (x86)/microchip/xc32/v2.30/bin/bin/../../lib/gcc/pic32c/6.2.1/../../../../pic32c/lib\libc.a(lib_a-vfiprintf.o)
 .debug_info    0x00084a4b     0x162d c:/program files (x86)/microchip/xc32/v2.30/bin/bin/../../lib/gcc/pic32c/6.2.1/../../../../pic32c/lib\libc.a(lib_a-wctomb_r.o)
 .debug_info    0x00086078      0xe11 c:/program files (x86)/microchip/xc32/v2.30/bin/bin/../../lib/gcc/pic32c/6.2.1/../../../../pic32c/lib\libc.a(lib_a-writer.o)
 .debug_info    0x00086e89     0x1159 c:/program files (x86)/microchip/xc32/v2.30/bin/bin/../../lib/gcc/pic32c/6.2.1/../../../../pic32c/lib\libc.a(lib_a-callocr.o)
 .debug_info    0x00087fe2      0xdc0 c:/program files (x86)/microchip/xc32/v2.30/bin/bin/../../lib/gcc/pic32c/6.2.1/../../../../pic32c/lib\libc.a(lib_a-closer.o)
 .debug_info    0x00088da2     0x147a c:/program files (x86)/microchip/xc32/v2.30/bin/bin/../../lib/gcc/pic32c/6.2.1/../../../../pic32c/lib\libc.a(lib_a-ctype_.o)
 .debug_info    0x0008a21c     0x1187 c:/program files (x86)/microchip/xc32/v2.30/bin/bin/../../lib/gcc/pic32c/6.2.1/../../../../pic32c/lib\libc.a(lib_a-fclose.o)
 .debug_info    0x0008b3a3     0x12af c:/program files (x86)/microchip/xc32/v2.30/bin/bin/../../lib/gcc/pic32c/6.2.1/../../../../pic32c/lib\libc.a(lib_a-fputwc.o)
 .debug_info    0x0008c652     0x10bb c:/program files (x86)/microchip/xc32/v2.30/bin/bin/../../lib/gcc/pic32c/6.2.1/../../../../pic32c/lib\libc.a(lib_a-fstatr.o)
 .debug_info    0x0008d70d      0xdcd c:/program files (x86)/microchip/xc32/v2.30/bin/bin/../../lib/gcc/pic32c/6.2.1/../../../../pic32c/lib\libc.a(lib_a-isattyr.o)
 .debug_info    0x0008e4da      0xdf8 c:/program files (x86)/microchip/xc32/v2.30/bin/bin/../../lib/gcc/pic32c/6.2.1/../../../../pic32c/lib\libc.a(lib_a-lseekr.o)
 .debug_info    0x0008f2d2      0xe0f c:/program files (x86)/microchip/xc32/v2.30/bin/bin/../../lib/gcc/pic32c/6.2.1/../../../../pic32c/lib\libc.a(lib_a-readr.o)
 .debug_info    0x000900e1      0xea1 c:/program files (x86)/microchip/xc32/v2.30/bin/bin/../../lib/gcc/pic32c/6.2.1/../../../../pic32c/lib\libc.a(lib_a-reent.o)
 .debug_info    0x00090f82     0x1178 c:/program files (x86)/microchip/xc32/v2.30/bin/bin/../../lib/gcc/pic32c/6.2.1/../../../../pic32c/lib\libc.a(lib_a-wbuf.o)
 .debug_info    0x000920fa     0x1665 c:/program files (x86)/microchip/xc32/v2.30/bin/bin/../../lib/gcc/pic32c/6.2.1/../../../../pic32c/lib\libc.a(lib_a-wcrtomb.o)
 .debug_info    0x0009375f      0x1d7 c:/program files (x86)/microchip/xc32/v2.30/bin/bin/../../lib/gcc/pic32c/6.2.1/../../../../pic32c/lib\libpic32c.a(_close.o)
 .debug_info    0x00093936      0x1d7 c:/program files (x86)/microchip/xc32/v2.30/bin/bin/../../lib/gcc/pic32c/6.2.1/../../../../pic32c/lib\libpic32c.a(_fstat.o)
 .debug_info    0x00093b0d      0x1d9 c:/program files (x86)/microchip/xc32/v2.30/bin/bin/../../lib/gcc/pic32c/6.2.1/../../../../pic32c/lib\libpic32c.a(_isatty.o)
 .debug_info    0x00093ce6      0x1d7 c:/program files (x86)/microchip/xc32/v2.30/bin/bin/../../lib/gcc/pic32c/6.2.1/../../../../pic32c/lib\libpic32c.a(_lseek.o)
 .debug_info    0x00093ebd      0x1d5 c:/program files (x86)/microchip/xc32/v2.30/bin/bin/../../lib/gcc/pic32c/6.2.1/../../../../pic32c/lib\libpic32c.a(_read.o)
 .debug_info    0x00094092      0x1d3 c:/program files (x86)/microchip/xc32/v2.30/bin/bin/../../lib/gcc/pic32c/6.2.1/../../../../pic32c/lib\libpic32c.a(sbrk.o)
 .debug_info    0x00094265      0x1d7 c:/program files (x86)/microchip/xc32/v2.30/bin/bin/../../lib/gcc/pic32c/6.2.1/../../../../pic32c/lib\libpic32c.a(_write.o)
 .debug_info    0x0009443c      0x1d4 c:/program files (x86)/microchip/xc32/v2.30/bin/bin/../../lib/gcc/pic32c/6.2.1/../../../../pic32c/lib\libpic32c.a(close.o)
 .debug_info    0x00094610      0x1d4 c:/program files (x86)/microchip/xc32/v2.30/bin/bin/../../lib/gcc/pic32c/6.2.1/../../../../pic32c/lib\libpic32c.a(fstat.o)
 .debug_info    0x000947e4      0x1d6 c:/program files (x86)/microchip/xc32/v2.30/bin/bin/../../lib/gcc/pic32c/6.2.1/../../../../pic32c/lib\libpic32c.a(isatty.o)
 .debug_info    0x000949ba      0x1d4 c:/program files (x86)/microchip/xc32/v2.30/bin/bin/../../lib/gcc/pic32c/6.2.1/../../../../pic32c/lib\libpic32c.a(lseek.o)
 .debug_info    0x00094b8e      0x1d3 c:/program files (x86)/microchip/xc32/v2.30/bin/bin/../../lib/gcc/pic32c/6.2.1/../../../../pic32c/lib\libpic32c.a(read.o)
 .debug_info    0x00094d61      0x1d5 c:/program files (x86)/microchip/xc32/v2.30/bin/bin/../../lib/gcc/pic32c/6.2.1/../../../../pic32c/lib\libpic32c.a(write.o)
 .debug_info    0x00094f36      0x415 c:/program files (x86)/microchip/xc32/v2.30/bin/bin/../../lib/gcc/pic32c/6.2.1\libgcc.a(unorddf2.o)

.debug_abbrev   0x00000000    0x10563
 .debug_abbrev  0x00000000      0x563 build/default/production/_ext/869808652/drv_usart.o
 .debug_abbrev  0x00000563      0x399 build/default/production/_ext/60165182/plib_can0.o
 .debug_abbrev  0x000008fc      0x137 build/default/production/_ext/1984496892/plib_clock.o
 .debug_abbrev  0x00000a33      0x184 build/default/production/_ext/60167341/plib_eic.o
 .debug_abbrev  0x00000bb7       0x39 build/default/production/_ext/1986646378/plib_evsys.o
 .debug_abbrev  0x00000bf0      0x1b9 build/default/production/_ext/1865468468/plib_nvic.o
 .debug_abbrev  0x00000da9      0x261 build/default/production/_ext/1593096446/plib_nvmctrl.o
 .debug_abbrev  0x0000100a      0x1ae build/default/production/_ext/1865521619/plib_port.o
 .debug_abbrev  0x000011b8      0x23a build/default/production/_ext/60180175/plib_rtc_clock.o
 .debug_abbrev  0x000013f2      0x1f3 build/default/production/_ext/17022449/plib_sercom0_spi_master.o
 .debug_abbrev  0x000015e5      0x329 build/default/production/_ext/504274921/plib_sercom3_usart.o
 .debug_abbrev  0x0000190e      0x26a build/default/production/_ext/504274921/plib_sercom4_usart.o
 .debug_abbrev  0x00001b78      0x329 build/default/production/_ext/504274921/plib_sercom2_usart.o
 .debug_abbrev  0x00001ea1      0x183 build/default/production/_ext/1827571544/plib_systick.o
 .debug_abbrev  0x00002024      0x1b6 build/default/production/_ext/829342655/plib_tc4.o
 .debug_abbrev  0x000021da      0x1b6 build/default/production/_ext/829342655/plib_tc0.o
 .debug_abbrev  0x00002390      0x1b6 build/default/production/_ext/829342655/plib_tc3.o
 .debug_abbrev  0x00002546       0xab build/default/production/_ext/60184501/plib_wdt.o
 .debug_abbrev  0x000025f1      0x239 build/default/production/_ext/163028504/xc32_monitor.o
 .debug_abbrev  0x0000282a      0x1f7 build/default/production/_ext/1881668453/sys_int.o
 .debug_abbrev  0x00002a21      0x2ea build/default/production/_ext/1171490990/initialization.o
 .debug_abbrev  0x00002d0b      0x1d3 build/default/production/_ext/1171490990/interrupts.o
 .debug_abbrev  0x00002ede      0x1c8 build/default/production/_ext/1171490990/exceptions.o
 .debug_abbrev  0x000030a6      0x10b build/default/production/_ext/1171490990/startup_xc32.o
 .debug_abbrev  0x000031b1      0x1e4 build/default/production/_ext/1171490990/tasks.o
 .debug_abbrev  0x00003395      0x254 build/default/production/_ext/1360937237/main.o
 .debug_abbrev  0x000035e9      0x296 build/default/production/_ext/1360937237/myapp.o
 .debug_abbrev  0x0000387f      0x3cd build/default/production/_ext/1360937237/app.o
 .debug_abbrev  0x00003c4c      0x426 build/default/production/_ext/1360937237/at_engine.o
 .debug_abbrev  0x00004072      0x349 build/default/production/_ext/1360937237/at_parser.o
 .debug_abbrev  0x000043bb      0x253 build/default/production/_ext/1360937237/dev_adapter.o
 .debug_abbrev  0x0000460e      0x2ec build/default/production/_ext/1360937237/dev_hal.o
 .debug_abbrev  0x000048fa      0x1ce build/default/production/_ext/1360937237/dev_timer.o
 .debug_abbrev  0x00004ac8      0x367 build/default/production/_ext/1360937237/gsm_gps.o
 .debug_abbrev  0x00004e2f      0x329 build/default/production/_ext/1360937237/app2.o
 .debug_abbrev  0x00005158      0x3cd build/default/production/_ext/1360937237/app3.o
 .debug_abbrev  0x00005525      0x405 build/default/production/_ext/1360937237/ext_flash.o
 .debug_abbrev  0x0000592a      0x3dd build/default/production/_ext/1360937237/app4.o
 .debug_abbrev  0x00005d07       0x2a c:/program files (x86)/microchip/xc32/v2.30/bin/bin/../../lib/gcc/pic32c/6.2.1/../../../../pic32c/lib\libpic32c.a(data_init.o)
 .debug_abbrev  0x00005d31       0x14 c:/program files (x86)/microchip/xc32/v2.30/bin/bin/../../lib/gcc/pic32c/6.2.1\libgcc.a(_udivsi3.o)
 .debug_abbrev  0x00005d45       0x14 c:/program files (x86)/microchip/xc32/v2.30/bin/bin/../../lib/gcc/pic32c/6.2.1\libgcc.a(_divsi3.o)
 .debug_abbrev  0x00005d59       0x14 c:/program files (x86)/microchip/xc32/v2.30/bin/bin/../../lib/gcc/pic32c/6.2.1\libgcc.a(_dvmd_tls.o)
 .debug_abbrev  0x00005d6d       0x14 c:/program files (x86)/microchip/xc32/v2.30/bin/bin/../../lib/gcc/pic32c/6.2.1\libgcc.a(_arm_cmpdf2.o)
 .debug_abbrev  0x00005d81       0x14 c:/program files (x86)/microchip/xc32/v2.30/bin/bin/../../lib/gcc/pic32c/6.2.1\libgcc.a(_arm_cmpsf2.o)
 .debug_abbrev  0x00005d95       0x14 c:/program files (x86)/microchip/xc32/v2.30/bin/bin/../../lib/gcc/pic32c/6.2.1\libgcc.a(_aeabi_uldivmod.o)
 .debug_abbrev  0x00005da9      0x176 c:/program files (x86)/microchip/xc32/v2.30/bin/bin/../../lib/gcc/pic32c/6.2.1\libgcc.a(_muldi3.o)
 .debug_abbrev  0x00005f1f      0x11b c:/program files (x86)/microchip/xc32/v2.30/bin/bin/../../lib/gcc/pic32c/6.2.1\libgcc.a(_fixunssfsi.o)
 .debug_abbrev  0x0000603a      0x11b c:/program files (x86)/microchip/xc32/v2.30/bin/bin/../../lib/gcc/pic32c/6.2.1\libgcc.a(_fixunsdfsi.o)
 .debug_abbrev  0x00006155      0x13b c:/program files (x86)/microchip/xc32/v2.30/bin/bin/../../lib/gcc/pic32c/6.2.1\libgcc.a(_udivmoddi4.o)
 .debug_abbrev  0x00006290      0x149 c:/program files (x86)/microchip/xc32/v2.30/bin/bin/../../lib/gcc/pic32c/6.2.1\libgcc.a(addsf3.o)
 .debug_abbrev  0x000063d9      0x135 c:/program files (x86)/microchip/xc32/v2.30/bin/bin/../../lib/gcc/pic32c/6.2.1\libgcc.a(divsf3.o)
 .debug_abbrev  0x0000650e      0x128 c:/program files (x86)/microchip/xc32/v2.30/bin/bin/../../lib/gcc/pic32c/6.2.1\libgcc.a(eqsf2.o)
 .debug_abbrev  0x00006636      0x12a c:/program files (x86)/microchip/xc32/v2.30/bin/bin/../../lib/gcc/pic32c/6.2.1\libgcc.a(gesf2.o)
 .debug_abbrev  0x00006760      0x135 c:/program files (x86)/microchip/xc32/v2.30/bin/bin/../../lib/gcc/pic32c/6.2.1\libgcc.a(lesf2.o)
 .debug_abbrev  0x00006895      0x149 c:/program files (x86)/microchip/xc32/v2.30/bin/bin/../../lib/gcc/pic32c/6.2.1\libgcc.a(subsf3.o)
 .debug_abbrev  0x000069de      0x12e c:/program files (x86)/microchip/xc32/v2.30/bin/bin/../../lib/gcc/pic32c/6.2.1\libgcc.a(fixsfsi.o)
 .debug_abbrev  0x00006b0c      0x12d c:/program files (x86)/microchip/xc32/v2.30/bin/bin/../../lib/gcc/pic32c/6.2.1\libgcc.a(floatsisf.o)
 .debug_abbrev  0x00006c39      0x12d c:/program files (x86)/microchip/xc32/v2.30/bin/bin/../../lib/gcc/pic32c/6.2.1\libgcc.a(floatunsisf.o)
 .debug_abbrev  0x00006d66      0x150 c:/program files (x86)/microchip/xc32/v2.30/bin/bin/../../lib/gcc/pic32c/6.2.1\libgcc.a(adddf3.o)
 .debug_abbrev  0x00006eb6      0x143 c:/program files (x86)/microchip/xc32/v2.30/bin/bin/../../lib/gcc/pic32c/6.2.1\libgcc.a(divdf3.o)
 .debug_abbrev  0x00006ff9      0x128 c:/program files (x86)/microchip/xc32/v2.30/bin/bin/../../lib/gcc/pic32c/6.2.1\libgcc.a(eqdf2.o)
 .debug_abbrev  0x00007121      0x135 c:/program files (x86)/microchip/xc32/v2.30/bin/bin/../../lib/gcc/pic32c/6.2.1\libgcc.a(gedf2.o)
 .debug_abbrev  0x00007256      0x12a c:/program files (x86)/microchip/xc32/v2.30/bin/bin/../../lib/gcc/pic32c/6.2.1\libgcc.a(ledf2.o)
 .debug_abbrev  0x00007380      0x14a c:/program files (x86)/microchip/xc32/v2.30/bin/bin/../../lib/gcc/pic32c/6.2.1\libgcc.a(muldf3.o)
 .debug_abbrev  0x000074ca      0x150 c:/program files (x86)/microchip/xc32/v2.30/bin/bin/../../lib/gcc/pic32c/6.2.1\libgcc.a(subdf3.o)
 .debug_abbrev  0x0000761a      0x12c c:/program files (x86)/microchip/xc32/v2.30/bin/bin/../../lib/gcc/pic32c/6.2.1\libgcc.a(fixdfsi.o)
 .debug_abbrev  0x00007746      0x118 c:/program files (x86)/microchip/xc32/v2.30/bin/bin/../../lib/gcc/pic32c/6.2.1\libgcc.a(floatsidf.o)
 .debug_abbrev  0x0000785e      0x118 c:/program files (x86)/microchip/xc32/v2.30/bin/bin/../../lib/gcc/pic32c/6.2.1\libgcc.a(floatunsidf.o)
 .debug_abbrev  0x00007976      0x114 c:/program files (x86)/microchip/xc32/v2.30/bin/bin/../../lib/gcc/pic32c/6.2.1\libgcc.a(extendsfdf2.o)
 .debug_abbrev  0x00007a8a      0x10e c:/program files (x86)/microchip/xc32/v2.30/bin/bin/../../lib/gcc/pic32c/6.2.1\libgcc.a(truncdfsf2.o)
 .debug_abbrev  0x00007b98       0x14 c:/program files (x86)/microchip/xc32/v2.30/bin/bin/../../lib/gcc/pic32c/6.2.1\libgcc.a(_thumb1_case_uqi.o)
 .debug_abbrev  0x00007bac       0x14 c:/program files (x86)/microchip/xc32/v2.30/bin/bin/../../lib/gcc/pic32c/6.2.1\libgcc.a(_thumb1_case_uhi.o)
 .debug_abbrev  0x00007bc0       0x14 c:/program files (x86)/microchip/xc32/v2.30/bin/bin/../../lib/gcc/pic32c/6.2.1\libgcc.a(_lshrdi3.o)
 .debug_abbrev  0x00007bd4       0x14 c:/program files (x86)/microchip/xc32/v2.30/bin/bin/../../lib/gcc/pic32c/6.2.1\libgcc.a(_ashldi3.o)
 .debug_abbrev  0x00007be8       0x14 c:/program files (x86)/microchip/xc32/v2.30/bin/bin/../../lib/gcc/pic32c/6.2.1\libgcc.a(_clzsi2.o)
 .debug_abbrev  0x00007bfc       0x14 c:/program files (x86)/microchip/xc32/v2.30/bin/bin/../../lib/gcc/pic32c/6.2.1\libgcc.a(_clzdi2.o)
 .debug_abbrev  0x00007c10      0x1c9 c:/program files (x86)/microchip/xc32/v2.30/bin/bin/../../lib/gcc/pic32c/6.2.1/../../../../pic32c/lib\libc.a(lib_a-atof.o)
 .debug_abbrev  0x00007dd9      0x1db c:/program files (x86)/microchip/xc32/v2.30/bin/bin/../../lib/gcc/pic32c/6.2.1/../../../../pic32c/lib\libc.a(lib_a-atol.o)
 .debug_abbrev  0x00007fb4      0x176 c:/program files (x86)/microchip/xc32/v2.30/bin/bin/../../lib/gcc/pic32c/6.2.1/../../../../pic32c/lib\libc.a(lib_a-impure.o)
 .debug_abbrev  0x0000812a       0xa3 c:/program files (x86)/microchip/xc32/v2.30/bin/bin/../../lib/gcc/pic32c/6.2.1/../../../../pic32c/lib\libc.a(lib_a-init.o)
 .debug_abbrev  0x000081cd      0x1c1 c:/program files (x86)/microchip/xc32/v2.30/bin/bin/../../lib/gcc/pic32c/6.2.1/../../../../pic32c/lib\libc.a(lib_a-memcpy-stub.o)
 .debug_abbrev  0x0000838e      0x1b5 c:/program files (x86)/microchip/xc32/v2.30/bin/bin/../../lib/gcc/pic32c/6.2.1/../../../../pic32c/lib\libc.a(lib_a-memset.o)
 .debug_abbrev  0x00008543      0x23e c:/program files (x86)/microchip/xc32/v2.30/bin/bin/../../lib/gcc/pic32c/6.2.1/../../../../pic32c/lib\libc.a(lib_a-printf.o)
 .debug_abbrev  0x00008781      0x257 c:/program files (x86)/microchip/xc32/v2.30/bin/bin/../../lib/gcc/pic32c/6.2.1/../../../../pic32c/lib\libc.a(lib_a-puts.o)
 .debug_abbrev  0x000089d8      0x1e1 c:/program files (x86)/microchip/xc32/v2.30/bin/bin/../../lib/gcc/pic32c/6.2.1/../../../../pic32c/lib\libc.a(lib_a-setbuf.o)
 .debug_abbrev  0x00008bb9      0x25c c:/program files (x86)/microchip/xc32/v2.30/bin/bin/../../lib/gcc/pic32c/6.2.1/../../../../pic32c/lib\libc.a(lib_a-setvbuf.o)
 .debug_abbrev  0x00008e15      0x22f c:/program files (x86)/microchip/xc32/v2.30/bin/bin/../../lib/gcc/pic32c/6.2.1/../../../../pic32c/lib\libc.a(lib_a-sprintf.o)
 .debug_abbrev  0x00009044      0x19c c:/program files (x86)/microchip/xc32/v2.30/bin/bin/../../lib/gcc/pic32c/6.2.1/../../../../pic32c/lib\libc.a(lib_a-strcat.o)
 .debug_abbrev  0x000091e0      0x19e c:/program files (x86)/microchip/xc32/v2.30/bin/bin/../../lib/gcc/pic32c/6.2.1/../../../../pic32c/lib\libc.a(lib_a-strchr.o)
 .debug_abbrev  0x0000937e       0x14 c:/program files (x86)/microchip/xc32/v2.30/bin/bin/../../lib/gcc/pic32c/6.2.1/../../../../pic32c/lib\libc.a(lib_a-strcmp.o)
 .debug_abbrev  0x00009392      0x19c c:/program files (x86)/microchip/xc32/v2.30/bin/bin/../../lib/gcc/pic32c/6.2.1/../../../../pic32c/lib\libc.a(lib_a-strcpy.o)
 .debug_abbrev  0x0000952e       0x14 c:/program files (x86)/microchip/xc32/v2.30/bin/bin/../../lib/gcc/pic32c/6.2.1/../../../../pic32c/lib\libc.a(lib_a-strlen.o)
 .debug_abbrev  0x00009542      0x1ab c:/program files (x86)/microchip/xc32/v2.30/bin/bin/../../lib/gcc/pic32c/6.2.1/../../../../pic32c/lib\libc.a(lib_a-strncpy.o)
 .debug_abbrev  0x000096ed      0x1a3 c:/program files (x86)/microchip/xc32/v2.30/bin/bin/../../lib/gcc/pic32c/6.2.1/../../../../pic32c/lib\libc.a(lib_a-strstr.o)
 .debug_abbrev  0x00009890      0x363 c:/program files (x86)/microchip/xc32/v2.30/bin/bin/../../lib/gcc/pic32c/6.2.1/../../../../pic32c/lib\libc.a(lib_a-strtod.o)
 .debug_abbrev  0x00009bf3      0x1c7 c:/program files (x86)/microchip/xc32/v2.30/bin/bin/../../lib/gcc/pic32c/6.2.1/../../../../pic32c/lib\libc.a(lib_a-strtok.o)
 .debug_abbrev  0x00009dba      0x1f6 c:/program files (x86)/microchip/xc32/v2.30/bin/bin/../../lib/gcc/pic32c/6.2.1/../../../../pic32c/lib\libc.a(lib_a-strtok_r.o)
 .debug_abbrev  0x00009fb0      0x265 c:/program files (x86)/microchip/xc32/v2.30/bin/bin/../../lib/gcc/pic32c/6.2.1/../../../../pic32c/lib\libc.a(lib_a-strtol.o)
 .debug_abbrev  0x0000a215      0x31d c:/program files (x86)/microchip/xc32/v2.30/bin/bin/../../lib/gcc/pic32c/6.2.1/../../../../pic32c/lib\libc.a(lib_a-svfprintf.o)
 .debug_abbrev  0x0000a532      0x35c c:/program files (x86)/microchip/xc32/v2.30/bin/bin/../../lib/gcc/pic32c/6.2.1/../../../../pic32c/lib\libc.a(lib_a-vfprintf.o)
 .debug_abbrev  0x0000a88e      0x23c c:/program files (x86)/microchip/xc32/v2.30/bin/bin/../../lib/gcc/pic32c/6.2.1/../../../../pic32c/lib\libc.a(lib_a-wsetup.o)
 .debug_abbrev  0x0000aaca      0x296 c:/program files (x86)/microchip/xc32/v2.30/bin/bin/../../lib/gcc/pic32c/6.2.1/../../../../pic32c/lib\libc.a(lib_a-dtoa.o)
 .debug_abbrev  0x0000ad60      0x2c0 c:/program files (x86)/microchip/xc32/v2.30/bin/bin/../../lib/gcc/pic32c/6.2.1/../../../../pic32c/lib\libc.a(lib_a-fflush.o)
 .debug_abbrev  0x0000b020      0x2d1 c:/program files (x86)/microchip/xc32/v2.30/bin/bin/../../lib/gcc/pic32c/6.2.1/../../../../pic32c/lib\libc.a(lib_a-findfp.o)
 .debug_abbrev  0x0000b2f1      0x23f c:/program files (x86)/microchip/xc32/v2.30/bin/bin/../../lib/gcc/pic32c/6.2.1/../../../../pic32c/lib\libc.a(lib_a-freer.o)
 .debug_abbrev  0x0000b530      0x263 c:/program files (x86)/microchip/xc32/v2.30/bin/bin/../../lib/gcc/pic32c/6.2.1/../../../../pic32c/lib\libc.a(lib_a-fvwrite.o)
 .debug_abbrev  0x0000b793      0x1f5 c:/program files (x86)/microchip/xc32/v2.30/bin/bin/../../lib/gcc/pic32c/6.2.1/../../../../pic32c/lib\libc.a(lib_a-fwalk.o)
 .debug_abbrev  0x0000b988      0x324 c:/program files (x86)/microchip/xc32/v2.30/bin/bin/../../lib/gcc/pic32c/6.2.1/../../../../pic32c/lib\libc.a(lib_a-gdtoa-gethex.o)
 .debug_abbrev  0x0000bcac      0x24b c:/program files (x86)/microchip/xc32/v2.30/bin/bin/../../lib/gcc/pic32c/6.2.1/../../../../pic32c/lib\libc.a(lib_a-gdtoa-hexnan.o)
 .debug_abbrev  0x0000bef7      0x241 c:/program files (x86)/microchip/xc32/v2.30/bin/bin/../../lib/gcc/pic32c/6.2.1/../../../../pic32c/lib\libc.a(lib_a-localeconv.o)
 .debug_abbrev  0x0000c138      0x2a9 c:/program files (x86)/microchip/xc32/v2.30/bin/bin/../../lib/gcc/pic32c/6.2.1/../../../../pic32c/lib\libc.a(lib_a-locale.o)
 .debug_abbrev  0x0000c3e1      0x2ad c:/program files (x86)/microchip/xc32/v2.30/bin/bin/../../lib/gcc/pic32c/6.2.1/../../../../pic32c/lib\libc.a(lib_a-makebuf.o)
 .debug_abbrev  0x0000c68e      0x1f5 c:/program files (x86)/microchip/xc32/v2.30/bin/bin/../../lib/gcc/pic32c/6.2.1/../../../../pic32c/lib\libc.a(lib_a-malloc.o)
 .debug_abbrev  0x0000c883      0x29b c:/program files (x86)/microchip/xc32/v2.30/bin/bin/../../lib/gcc/pic32c/6.2.1/../../../../pic32c/lib\libc.a(lib_a-mallocr.o)
 .debug_abbrev  0x0000cb1e      0x212 c:/program files (x86)/microchip/xc32/v2.30/bin/bin/../../lib/gcc/pic32c/6.2.1/../../../../pic32c/lib\libc.a(lib_a-mbtowc_r.o)
 .debug_abbrev  0x0000cd30      0x1b2 c:/program files (x86)/microchip/xc32/v2.30/bin/bin/../../lib/gcc/pic32c/6.2.1/../../../../pic32c/lib\libc.a(lib_a-memchr-stub.o)
 .debug_abbrev  0x0000cee2      0x1ba c:/program files (x86)/microchip/xc32/v2.30/bin/bin/../../lib/gcc/pic32c/6.2.1/../../../../pic32c/lib\libc.a(lib_a-memmove.o)
 .debug_abbrev  0x0000d09c      0x1aa c:/program files (x86)/microchip/xc32/v2.30/bin/bin/../../lib/gcc/pic32c/6.2.1/../../../../pic32c/lib\libc.a(lib_a-mlock.o)
 .debug_abbrev  0x0000d246      0x348 c:/program files (x86)/microchip/xc32/v2.30/bin/bin/../../lib/gcc/pic32c/6.2.1/../../../../pic32c/lib\libc.a(lib_a-mprec.o)
 .debug_abbrev  0x0000d58e      0x252 c:/program files (x86)/microchip/xc32/v2.30/bin/bin/../../lib/gcc/pic32c/6.2.1/../../../../pic32c/lib\libc.a(lib_a-reallocr.o)
 .debug_abbrev  0x0000d7e0      0x1ed c:/program files (x86)/microchip/xc32/v2.30/bin/bin/../../lib/gcc/pic32c/6.2.1/../../../../pic32c/lib\libc.a(lib_a-sbrkr.o)
 .debug_abbrev  0x0000d9cd      0x1f1 c:/program files (x86)/microchip/xc32/v2.30/bin/bin/../../lib/gcc/pic32c/6.2.1/../../../../pic32c/lib\libc.a(lib_a-s_frexp.o)
 .debug_abbrev  0x0000dbbe      0x269 c:/program files (x86)/microchip/xc32/v2.30/bin/bin/../../lib/gcc/pic32c/6.2.1/../../../../pic32c/lib\libc.a(lib_a-stdio.o)
 .debug_abbrev  0x0000de27      0x18d c:/program files (x86)/microchip/xc32/v2.30/bin/bin/../../lib/gcc/pic32c/6.2.1/../../../../pic32c/lib\libc.a(lib_a-strncmp.o)
 .debug_abbrev  0x0000dfb4      0x2c7 c:/program files (x86)/microchip/xc32/v2.30/bin/bin/../../lib/gcc/pic32c/6.2.1/../../../../pic32c/lib\libc.a(lib_a-svfiprintf.o)
 .debug_abbrev  0x0000e27b      0x35d c:/program files (x86)/microchip/xc32/v2.30/bin/bin/../../lib/gcc/pic32c/6.2.1/../../../../pic32c/lib\libc.a(lib_a-vfiprintf.o)
 .debug_abbrev  0x0000e5d8      0x213 c:/program files (x86)/microchip/xc32/v2.30/bin/bin/../../lib/gcc/pic32c/6.2.1/../../../../pic32c/lib\libc.a(lib_a-wctomb_r.o)
 .debug_abbrev  0x0000e7eb      0x1dd c:/program files (x86)/microchip/xc32/v2.30/bin/bin/../../lib/gcc/pic32c/6.2.1/../../../../pic32c/lib\libc.a(lib_a-writer.o)
 .debug_abbrev  0x0000e9c8      0x203 c:/program files (x86)/microchip/xc32/v2.30/bin/bin/../../lib/gcc/pic32c/6.2.1/../../../../pic32c/lib\libc.a(lib_a-callocr.o)
 .debug_abbrev  0x0000ebcb      0x1d8 c:/program files (x86)/microchip/xc32/v2.30/bin/bin/../../lib/gcc/pic32c/6.2.1/../../../../pic32c/lib\libc.a(lib_a-closer.o)
 .debug_abbrev  0x0000eda3      0x176 c:/program files (x86)/microchip/xc32/v2.30/bin/bin/../../lib/gcc/pic32c/6.2.1/../../../../pic32c/lib\libc.a(lib_a-ctype_.o)
 .debug_abbrev  0x0000ef19      0x292 c:/program files (x86)/microchip/xc32/v2.30/bin/bin/../../lib/gcc/pic32c/6.2.1/../../../../pic32c/lib\libc.a(lib_a-fclose.o)
 .debug_abbrev  0x0000f1ab      0x27a c:/program files (x86)/microchip/xc32/v2.30/bin/bin/../../lib/gcc/pic32c/6.2.1/../../../../pic32c/lib\libc.a(lib_a-fputwc.o)
 .debug_abbrev  0x0000f425      0x1d8 c:/program files (x86)/microchip/xc32/v2.30/bin/bin/../../lib/gcc/pic32c/6.2.1/../../../../pic32c/lib\libc.a(lib_a-fstatr.o)
 .debug_abbrev  0x0000f5fd      0x1d8 c:/program files (x86)/microchip/xc32/v2.30/bin/bin/../../lib/gcc/pic32c/6.2.1/../../../../pic32c/lib\libc.a(lib_a-isattyr.o)
 .debug_abbrev  0x0000f7d5      0x1d8 c:/program files (x86)/microchip/xc32/v2.30/bin/bin/../../lib/gcc/pic32c/6.2.1/../../../../pic32c/lib\libc.a(lib_a-lseekr.o)
 .debug_abbrev  0x0000f9ad      0x1d8 c:/program files (x86)/microchip/xc32/v2.30/bin/bin/../../lib/gcc/pic32c/6.2.1/../../../../pic32c/lib\libc.a(lib_a-readr.o)
 .debug_abbrev  0x0000fb85      0x23a c:/program files (x86)/microchip/xc32/v2.30/bin/bin/../../lib/gcc/pic32c/6.2.1/../../../../pic32c/lib\libc.a(lib_a-reent.o)
 .debug_abbrev  0x0000fdbf      0x24f c:/program files (x86)/microchip/xc32/v2.30/bin/bin/../../lib/gcc/pic32c/6.2.1/../../../../pic32c/lib\libc.a(lib_a-wbuf.o)
 .debug_abbrev  0x0001000e      0x21a c:/program files (x86)/microchip/xc32/v2.30/bin/bin/../../lib/gcc/pic32c/6.2.1/../../../../pic32c/lib\libc.a(lib_a-wcrtomb.o)
 .debug_abbrev  0x00010228       0x2a c:/program files (x86)/microchip/xc32/v2.30/bin/bin/../../lib/gcc/pic32c/6.2.1/../../../../pic32c/lib\libpic32c.a(_close.o)
 .debug_abbrev  0x00010252       0x2a c:/program files (x86)/microchip/xc32/v2.30/bin/bin/../../lib/gcc/pic32c/6.2.1/../../../../pic32c/lib\libpic32c.a(_fstat.o)
 .debug_abbrev  0x0001027c       0x2a c:/program files (x86)/microchip/xc32/v2.30/bin/bin/../../lib/gcc/pic32c/6.2.1/../../../../pic32c/lib\libpic32c.a(_isatty.o)
 .debug_abbrev  0x000102a6       0x2a c:/program files (x86)/microchip/xc32/v2.30/bin/bin/../../lib/gcc/pic32c/6.2.1/../../../../pic32c/lib\libpic32c.a(_lseek.o)
 .debug_abbrev  0x000102d0       0x2a c:/program files (x86)/microchip/xc32/v2.30/bin/bin/../../lib/gcc/pic32c/6.2.1/../../../../pic32c/lib\libpic32c.a(_read.o)
 .debug_abbrev  0x000102fa       0x2a c:/program files (x86)/microchip/xc32/v2.30/bin/bin/../../lib/gcc/pic32c/6.2.1/../../../../pic32c/lib\libpic32c.a(sbrk.o)
 .debug_abbrev  0x00010324       0x2a c:/program files (x86)/microchip/xc32/v2.30/bin/bin/../../lib/gcc/pic32c/6.2.1/../../../../pic32c/lib\libpic32c.a(_write.o)
 .debug_abbrev  0x0001034e       0x2a c:/program files (x86)/microchip/xc32/v2.30/bin/bin/../../lib/gcc/pic32c/6.2.1/../../../../pic32c/lib\libpic32c.a(close.o)
 .debug_abbrev  0x00010378       0x2a c:/program files (x86)/microchip/xc32/v2.30/bin/bin/../../lib/gcc/pic32c/6.2.1/../../../../pic32c/lib\libpic32c.a(fstat.o)
 .debug_abbrev  0x000103a2       0x2a c:/program files (x86)/microchip/xc32/v2.30/bin/bin/../../lib/gcc/pic32c/6.2.1/../../../../pic32c/lib\libpic32c.a(isatty.o)
 .debug_abbrev  0x000103cc       0x2a c:/program files (x86)/microchip/xc32/v2.30/bin/bin/../../lib/gcc/pic32c/6.2.1/../../../../pic32c/lib\libpic32c.a(lseek.o)
 .debug_abbrev  0x000103f6       0x2a c:/program files (x86)/microchip/xc32/v2.30/bin/bin/../../lib/gcc/pic32c/6.2.1/../../../../pic32c/lib\libpic32c.a(read.o)
 .debug_abbrev  0x00010420       0x2a c:/program files (x86)/microchip/xc32/v2.30/bin/bin/../../lib/gcc/pic32c/6.2.1/../../../../pic32c/lib\libpic32c.a(write.o)
 .debug_abbrev  0x0001044a      0x119 c:/program files (x86)/microchip/xc32/v2.30/bin/bin/../../lib/gcc/pic32c/6.2.1\libgcc.a(unorddf2.o)

.debug_loc      0x00000000    0x2702d
 .debug_loc     0x00000000     0x1f62 build/default/production/_ext/869808652/drv_usart.o
 .debug_loc     0x00001f62      0x7bc build/default/production/_ext/60165182/plib_can0.o
 .debug_loc     0x0000271e       0x98 build/default/production/_ext/1984496892/plib_clock.o
 .debug_loc     0x000027b6       0xe1 build/default/production/_ext/60167341/plib_eic.o
 .debug_loc     0x00002897      0x1c8 build/default/production/_ext/1865468468/plib_nvic.o
 .debug_loc     0x00002a5f      0x423 build/default/production/_ext/1593096446/plib_nvmctrl.o
 .debug_loc     0x00002e82      0x1ee build/default/production/_ext/1865521619/plib_port.o
 .debug_loc     0x00003070      0x1a2 build/default/production/_ext/60180175/plib_rtc_clock.o
 .debug_loc     0x00003212      0x529 build/default/production/_ext/17022449/plib_sercom0_spi_master.o
 .debug_loc     0x0000373b      0x5af build/default/production/_ext/504274921/plib_sercom3_usart.o
 .debug_loc     0x00003cea      0x595 build/default/production/_ext/504274921/plib_sercom4_usart.o
 .debug_loc     0x0000427f      0x5af build/default/production/_ext/504274921/plib_sercom2_usart.o
 .debug_loc     0x0000482e      0x2a7 build/default/production/_ext/1827571544/plib_systick.o
 .debug_loc     0x00004ad5       0x54 build/default/production/_ext/829342655/plib_tc4.o
 .debug_loc     0x00004b29       0x54 build/default/production/_ext/829342655/plib_tc0.o
 .debug_loc     0x00004b7d       0x54 build/default/production/_ext/829342655/plib_tc3.o
 .debug_loc     0x00004bd1       0x21 build/default/production/_ext/60184501/plib_wdt.o
 .debug_loc     0x00004bf2       0xb2 build/default/production/_ext/163028504/xc32_monitor.o
 .debug_loc     0x00004ca4      0x15b build/default/production/_ext/1881668453/sys_int.o
 .debug_loc     0x00004dff       0x41 build/default/production/_ext/1171490990/initialization.o
 .debug_loc     0x00004e40       0x20 build/default/production/_ext/1171490990/startup_xc32.o
 .debug_loc     0x00004e60       0x20 build/default/production/_ext/1171490990/tasks.o
 .debug_loc     0x00004e80       0x20 build/default/production/_ext/1360937237/main.o
 .debug_loc     0x00004ea0      0x269 build/default/production/_ext/1360937237/myapp.o
 .debug_loc     0x00005109      0x282 build/default/production/_ext/1360937237/app.o
 .debug_loc     0x0000538b      0xcbb build/default/production/_ext/1360937237/at_engine.o
 .debug_loc     0x00006046      0x9dd build/default/production/_ext/1360937237/at_parser.o
 .debug_loc     0x00006a23      0x1b2 build/default/production/_ext/1360937237/dev_adapter.o
 .debug_loc     0x00006bd5       0x9c build/default/production/_ext/1360937237/dev_hal.o
 .debug_loc     0x00006c71      0x66a build/default/production/_ext/1360937237/gsm_gps.o
 .debug_loc     0x000072db      0x3b7 build/default/production/_ext/1360937237/app2.o
 .debug_loc     0x00007692     0x1e37 build/default/production/_ext/1360937237/app3.o
 .debug_loc     0x000094c9      0xfc6 build/default/production/_ext/1360937237/ext_flash.o
 .debug_loc     0x0000a48f      0x41c build/default/production/_ext/1360937237/app4.o
 .debug_loc     0x0000a8ab       0x14 c:/program files (x86)/microchip/xc32/v2.30/bin/bin/../../lib/gcc/pic32c/6.2.1/../../../../pic32c/lib\libpic32c.a(data_init.o)
 .debug_loc     0x0000a8bf      0x164 c:/program files (x86)/microchip/xc32/v2.30/bin/bin/../../lib/gcc/pic32c/6.2.1\libgcc.a(_muldi3.o)
 .debug_loc     0x0000aa23       0x5a c:/program files (x86)/microchip/xc32/v2.30/bin/bin/../../lib/gcc/pic32c/6.2.1\libgcc.a(_fixunssfsi.o)
 .debug_loc     0x0000aa7d       0x49 c:/program files (x86)/microchip/xc32/v2.30/bin/bin/../../lib/gcc/pic32c/6.2.1\libgcc.a(_fixunsdfsi.o)
 .debug_loc     0x0000aac6      0x29d c:/program files (x86)/microchip/xc32/v2.30/bin/bin/../../lib/gcc/pic32c/6.2.1\libgcc.a(_udivmoddi4.o)
 .debug_loc     0x0000ad63      0xb1f c:/program files (x86)/microchip/xc32/v2.30/bin/bin/../../lib/gcc/pic32c/6.2.1\libgcc.a(addsf3.o)
 .debug_loc     0x0000b882      0x6a6 c:/program files (x86)/microchip/xc32/v2.30/bin/bin/../../lib/gcc/pic32c/6.2.1\libgcc.a(divsf3.o)
 .debug_loc     0x0000bf28       0xb8 c:/program files (x86)/microchip/xc32/v2.30/bin/bin/../../lib/gcc/pic32c/6.2.1\libgcc.a(eqsf2.o)
 .debug_loc     0x0000bfe0      0x1ca c:/program files (x86)/microchip/xc32/v2.30/bin/bin/../../lib/gcc/pic32c/6.2.1\libgcc.a(gesf2.o)
 .debug_loc     0x0000c1aa      0x163 c:/program files (x86)/microchip/xc32/v2.30/bin/bin/../../lib/gcc/pic32c/6.2.1\libgcc.a(lesf2.o)
 .debug_loc     0x0000c30d      0xb1b c:/program files (x86)/microchip/xc32/v2.30/bin/bin/../../lib/gcc/pic32c/6.2.1\libgcc.a(subsf3.o)
 .debug_loc     0x0000ce28       0xe7 c:/program files (x86)/microchip/xc32/v2.30/bin/bin/../../lib/gcc/pic32c/6.2.1\libgcc.a(fixsfsi.o)
 .debug_loc     0x0000cf0f      0x180 c:/program files (x86)/microchip/xc32/v2.30/bin/bin/../../lib/gcc/pic32c/6.2.1\libgcc.a(floatsisf.o)
 .debug_loc     0x0000d08f      0x150 c:/program files (x86)/microchip/xc32/v2.30/bin/bin/../../lib/gcc/pic32c/6.2.1\libgcc.a(floatunsisf.o)
 .debug_loc     0x0000d1df     0x147e c:/program files (x86)/microchip/xc32/v2.30/bin/bin/../../lib/gcc/pic32c/6.2.1\libgcc.a(adddf3.o)
 .debug_loc     0x0000e65d     0x1513 c:/program files (x86)/microchip/xc32/v2.30/bin/bin/../../lib/gcc/pic32c/6.2.1\libgcc.a(divdf3.o)
 .debug_loc     0x0000fb70      0x120 c:/program files (x86)/microchip/xc32/v2.30/bin/bin/../../lib/gcc/pic32c/6.2.1\libgcc.a(eqdf2.o)
 .debug_loc     0x0000fc90      0x26c c:/program files (x86)/microchip/xc32/v2.30/bin/bin/../../lib/gcc/pic32c/6.2.1\libgcc.a(gedf2.o)
 .debug_loc     0x0000fefc      0x1d5 c:/program files (x86)/microchip/xc32/v2.30/bin/bin/../../lib/gcc/pic32c/6.2.1\libgcc.a(ledf2.o)
 .debug_loc     0x000100d1      0xfde c:/program files (x86)/microchip/xc32/v2.30/bin/bin/../../lib/gcc/pic32c/6.2.1\libgcc.a(muldf3.o)
 .debug_loc     0x000110af     0x1362 c:/program files (x86)/microchip/xc32/v2.30/bin/bin/../../lib/gcc/pic32c/6.2.1\libgcc.a(subdf3.o)
 .debug_loc     0x00012411      0x131 c:/program files (x86)/microchip/xc32/v2.30/bin/bin/../../lib/gcc/pic32c/6.2.1\libgcc.a(fixdfsi.o)
 .debug_loc     0x00012542      0x1c1 c:/program files (x86)/microchip/xc32/v2.30/bin/bin/../../lib/gcc/pic32c/6.2.1\libgcc.a(floatsidf.o)
 .debug_loc     0x00012703      0x1df c:/program files (x86)/microchip/xc32/v2.30/bin/bin/../../lib/gcc/pic32c/6.2.1\libgcc.a(floatunsidf.o)
 .debug_loc     0x000128e2      0x260 c:/program files (x86)/microchip/xc32/v2.30/bin/bin/../../lib/gcc/pic32c/6.2.1\libgcc.a(extendsfdf2.o)
 .debug_loc     0x00012b42      0x2e6 c:/program files (x86)/microchip/xc32/v2.30/bin/bin/../../lib/gcc/pic32c/6.2.1\libgcc.a(truncdfsf2.o)
 .debug_loc     0x00012e28       0x41 c:/program files (x86)/microchip/xc32/v2.30/bin/bin/../../lib/gcc/pic32c/6.2.1/../../../../pic32c/lib\libc.a(lib_a-atof.o)
 .debug_loc     0x00012e69       0xa3 c:/program files (x86)/microchip/xc32/v2.30/bin/bin/../../lib/gcc/pic32c/6.2.1/../../../../pic32c/lib\libc.a(lib_a-atol.o)
 .debug_loc     0x00012f0c       0x72 c:/program files (x86)/microchip/xc32/v2.30/bin/bin/../../lib/gcc/pic32c/6.2.1/../../../../pic32c/lib\libc.a(lib_a-init.o)
 .debug_loc     0x00012f7e       0xde c:/program files (x86)/microchip/xc32/v2.30/bin/bin/../../lib/gcc/pic32c/6.2.1/../../../../pic32c/lib\libc.a(lib_a-memcpy-stub.o)
 .debug_loc     0x0001305c       0x72 c:/program files (x86)/microchip/xc32/v2.30/bin/bin/../../lib/gcc/pic32c/6.2.1/../../../../pic32c/lib\libc.a(lib_a-memset.o)
 .debug_loc     0x000130ce       0x8c c:/program files (x86)/microchip/xc32/v2.30/bin/bin/../../lib/gcc/pic32c/6.2.1/../../../../pic32c/lib\libc.a(lib_a-printf.o)
 .debug_loc     0x0001315a      0x130 c:/program files (x86)/microchip/xc32/v2.30/bin/bin/../../lib/gcc/pic32c/6.2.1/../../../../pic32c/lib\libc.a(lib_a-puts.o)
 .debug_loc     0x0001328a       0x62 c:/program files (x86)/microchip/xc32/v2.30/bin/bin/../../lib/gcc/pic32c/6.2.1/../../../../pic32c/lib\libc.a(lib_a-setbuf.o)
 .debug_loc     0x000132ec      0x1d8 c:/program files (x86)/microchip/xc32/v2.30/bin/bin/../../lib/gcc/pic32c/6.2.1/../../../../pic32c/lib\libc.a(lib_a-setvbuf.o)
 .debug_loc     0x000134c4       0xfa c:/program files (x86)/microchip/xc32/v2.30/bin/bin/../../lib/gcc/pic32c/6.2.1/../../../../pic32c/lib\libc.a(lib_a-sprintf.o)
 .debug_loc     0x000135be       0xab c:/program files (x86)/microchip/xc32/v2.30/bin/bin/../../lib/gcc/pic32c/6.2.1/../../../../pic32c/lib\libc.a(lib_a-strcat.o)
 .debug_loc     0x00013669       0x9a c:/program files (x86)/microchip/xc32/v2.30/bin/bin/../../lib/gcc/pic32c/6.2.1/../../../../pic32c/lib\libc.a(lib_a-strchr.o)
 .debug_loc     0x00013703       0x21 c:/program files (x86)/microchip/xc32/v2.30/bin/bin/../../lib/gcc/pic32c/6.2.1/../../../../pic32c/lib\libc.a(lib_a-strcpy.o)
 .debug_loc     0x00013724      0x12f c:/program files (x86)/microchip/xc32/v2.30/bin/bin/../../lib/gcc/pic32c/6.2.1/../../../../pic32c/lib\libc.a(lib_a-strncpy.o)
 .debug_loc     0x00013853       0x96 c:/program files (x86)/microchip/xc32/v2.30/bin/bin/../../lib/gcc/pic32c/6.2.1/../../../../pic32c/lib\libc.a(lib_a-strstr.o)
 .debug_loc     0x000138e9     0x1afc c:/program files (x86)/microchip/xc32/v2.30/bin/bin/../../lib/gcc/pic32c/6.2.1/../../../../pic32c/lib\libc.a(lib_a-strtod.o)
 .debug_loc     0x000153e5       0x81 c:/program files (x86)/microchip/xc32/v2.30/bin/bin/../../lib/gcc/pic32c/6.2.1/../../../../pic32c/lib\libc.a(lib_a-strtok.o)
 .debug_loc     0x00015466      0x22e c:/program files (x86)/microchip/xc32/v2.30/bin/bin/../../lib/gcc/pic32c/6.2.1/../../../../pic32c/lib\libc.a(lib_a-strtok_r.o)
 .debug_loc     0x00015694      0x4d5 c:/program files (x86)/microchip/xc32/v2.30/bin/bin/../../lib/gcc/pic32c/6.2.1/../../../../pic32c/lib\libc.a(lib_a-strtol.o)
 .debug_loc     0x00015b69     0x2a21 c:/program files (x86)/microchip/xc32/v2.30/bin/bin/../../lib/gcc/pic32c/6.2.1/../../../../pic32c/lib\libc.a(lib_a-svfprintf.o)
 .debug_loc     0x0001858a     0x2cc9 c:/program files (x86)/microchip/xc32/v2.30/bin/bin/../../lib/gcc/pic32c/6.2.1/../../../../pic32c/lib\libc.a(lib_a-vfprintf.o)
 .debug_loc     0x0001b253       0xa1 c:/program files (x86)/microchip/xc32/v2.30/bin/bin/../../lib/gcc/pic32c/6.2.1/../../../../pic32c/lib\libc.a(lib_a-wsetup.o)
 .debug_loc     0x0001b2f4     0x1c45 c:/program files (x86)/microchip/xc32/v2.30/bin/bin/../../lib/gcc/pic32c/6.2.1/../../../../pic32c/lib\libc.a(lib_a-dtoa.o)
 .debug_loc     0x0001cf39      0x2b7 c:/program files (x86)/microchip/xc32/v2.30/bin/bin/../../lib/gcc/pic32c/6.2.1/../../../../pic32c/lib\libc.a(lib_a-fflush.o)
 .debug_loc     0x0001d1f0      0x2b8 c:/program files (x86)/microchip/xc32/v2.30/bin/bin/../../lib/gcc/pic32c/6.2.1/../../../../pic32c/lib\libc.a(lib_a-findfp.o)
 .debug_loc     0x0001d4a8      0x423 c:/program files (x86)/microchip/xc32/v2.30/bin/bin/../../lib/gcc/pic32c/6.2.1/../../../../pic32c/lib\libc.a(lib_a-freer.o)
 .debug_loc     0x0001d8cb      0x575 c:/program files (x86)/microchip/xc32/v2.30/bin/bin/../../lib/gcc/pic32c/6.2.1/../../../../pic32c/lib\libc.a(lib_a-fvwrite.o)
 .debug_loc     0x0001de40      0x1c0 c:/program files (x86)/microchip/xc32/v2.30/bin/bin/../../lib/gcc/pic32c/6.2.1/../../../../pic32c/lib\libc.a(lib_a-fwalk.o)
 .debug_loc     0x0001e000      0xdaa c:/program files (x86)/microchip/xc32/v2.30/bin/bin/../../lib/gcc/pic32c/6.2.1/../../../../pic32c/lib\libc.a(lib_a-gdtoa-gethex.o)
 .debug_loc     0x0001edaa      0x4c0 c:/program files (x86)/microchip/xc32/v2.30/bin/bin/../../lib/gcc/pic32c/6.2.1/../../../../pic32c/lib\libc.a(lib_a-gdtoa-hexnan.o)
 .debug_loc     0x0001f26a       0x63 c:/program files (x86)/microchip/xc32/v2.30/bin/bin/../../lib/gcc/pic32c/6.2.1/../../../../pic32c/lib\libc.a(lib_a-localeconv.o)
 .debug_loc     0x0001f2cd      0x174 c:/program files (x86)/microchip/xc32/v2.30/bin/bin/../../lib/gcc/pic32c/6.2.1/../../../../pic32c/lib\libc.a(lib_a-locale.o)
 .debug_loc     0x0001f441      0x260 c:/program files (x86)/microchip/xc32/v2.30/bin/bin/../../lib/gcc/pic32c/6.2.1/../../../../pic32c/lib\libc.a(lib_a-makebuf.o)
 .debug_loc     0x0001f6a1       0x98 c:/program files (x86)/microchip/xc32/v2.30/bin/bin/../../lib/gcc/pic32c/6.2.1/../../../../pic32c/lib\libc.a(lib_a-malloc.o)
 .debug_loc     0x0001f739      0x858 c:/program files (x86)/microchip/xc32/v2.30/bin/bin/../../lib/gcc/pic32c/6.2.1/../../../../pic32c/lib\libc.a(lib_a-mallocr.o)
 .debug_loc     0x0001ff91      0x19a c:/program files (x86)/microchip/xc32/v2.30/bin/bin/../../lib/gcc/pic32c/6.2.1/../../../../pic32c/lib\libc.a(lib_a-mbtowc_r.o)
 .debug_loc     0x0002012b       0xb4 c:/program files (x86)/microchip/xc32/v2.30/bin/bin/../../lib/gcc/pic32c/6.2.1/../../../../pic32c/lib\libc.a(lib_a-memchr-stub.o)
 .debug_loc     0x000201df      0x107 c:/program files (x86)/microchip/xc32/v2.30/bin/bin/../../lib/gcc/pic32c/6.2.1/../../../../pic32c/lib\libc.a(lib_a-memmove.o)
 .debug_loc     0x000202e6     0x1cd8 c:/program files (x86)/microchip/xc32/v2.30/bin/bin/../../lib/gcc/pic32c/6.2.1/../../../../pic32c/lib\libc.a(lib_a-mprec.o)
 .debug_loc     0x00021fbe      0xc04 c:/program files (x86)/microchip/xc32/v2.30/bin/bin/../../lib/gcc/pic32c/6.2.1/../../../../pic32c/lib\libc.a(lib_a-reallocr.o)
 .debug_loc     0x00022bc2       0x6d c:/program files (x86)/microchip/xc32/v2.30/bin/bin/../../lib/gcc/pic32c/6.2.1/../../../../pic32c/lib\libc.a(lib_a-sbrkr.o)
 .debug_loc     0x00022c2f      0x12d c:/program files (x86)/microchip/xc32/v2.30/bin/bin/../../lib/gcc/pic32c/6.2.1/../../../../pic32c/lib\libc.a(lib_a-s_frexp.o)
 .debug_loc     0x00022d5c      0x382 c:/program files (x86)/microchip/xc32/v2.30/bin/bin/../../lib/gcc/pic32c/6.2.1/../../../../pic32c/lib\libc.a(lib_a-stdio.o)
 .debug_loc     0x000230de       0xbf c:/program files (x86)/microchip/xc32/v2.30/bin/bin/../../lib/gcc/pic32c/6.2.1/../../../../pic32c/lib\libc.a(lib_a-strncmp.o)
 .debug_loc     0x0002319d     0x15e8 c:/program files (x86)/microchip/xc32/v2.30/bin/bin/../../lib/gcc/pic32c/6.2.1/../../../../pic32c/lib\libc.a(lib_a-svfiprintf.o)
 .debug_loc     0x00024785     0x17f3 c:/program files (x86)/microchip/xc32/v2.30/bin/bin/../../lib/gcc/pic32c/6.2.1/../../../../pic32c/lib\libc.a(lib_a-vfiprintf.o)
 .debug_loc     0x00025f78       0xf1 c:/program files (x86)/microchip/xc32/v2.30/bin/bin/../../lib/gcc/pic32c/6.2.1/../../../../pic32c/lib\libc.a(lib_a-wctomb_r.o)
 .debug_loc     0x00026069       0xc5 c:/program files (x86)/microchip/xc32/v2.30/bin/bin/../../lib/gcc/pic32c/6.2.1/../../../../pic32c/lib\libc.a(lib_a-writer.o)
 .debug_loc     0x0002612e      0x205 c:/program files (x86)/microchip/xc32/v2.30/bin/bin/../../lib/gcc/pic32c/6.2.1/../../../../pic32c/lib\libc.a(lib_a-callocr.o)
 .debug_loc     0x00026333       0x6d c:/program files (x86)/microchip/xc32/v2.30/bin/bin/../../lib/gcc/pic32c/6.2.1/../../../../pic32c/lib\libc.a(lib_a-closer.o)
 .debug_loc     0x000263a0      0x15d c:/program files (x86)/microchip/xc32/v2.30/bin/bin/../../lib/gcc/pic32c/6.2.1/../../../../pic32c/lib\libc.a(lib_a-fclose.o)
 .debug_loc     0x000264fd      0x299 c:/program files (x86)/microchip/xc32/v2.30/bin/bin/../../lib/gcc/pic32c/6.2.1/../../../../pic32c/lib\libc.a(lib_a-fputwc.o)
 .debug_loc     0x00026796       0x99 c:/program files (x86)/microchip/xc32/v2.30/bin/bin/../../lib/gcc/pic32c/6.2.1/../../../../pic32c/lib\libc.a(lib_a-fstatr.o)
 .debug_loc     0x0002682f       0x6d c:/program files (x86)/microchip/xc32/v2.30/bin/bin/../../lib/gcc/pic32c/6.2.1/../../../../pic32c/lib\libc.a(lib_a-isattyr.o)
 .debug_loc     0x0002689c       0xc5 c:/program files (x86)/microchip/xc32/v2.30/bin/bin/../../lib/gcc/pic32c/6.2.1/../../../../pic32c/lib\libc.a(lib_a-lseekr.o)
 .debug_loc     0x00026961       0xc5 c:/program files (x86)/microchip/xc32/v2.30/bin/bin/../../lib/gcc/pic32c/6.2.1/../../../../pic32c/lib\libc.a(lib_a-readr.o)
 .debug_loc     0x00026a26      0x13c c:/program files (x86)/microchip/xc32/v2.30/bin/bin/../../lib/gcc/pic32c/6.2.1/../../../../pic32c/lib\libc.a(lib_a-reent.o)
 .debug_loc     0x00026b62      0x1a2 c:/program files (x86)/microchip/xc32/v2.30/bin/bin/../../lib/gcc/pic32c/6.2.1/../../../../pic32c/lib\libc.a(lib_a-wbuf.o)
 .debug_loc     0x00026d04      0x1cb c:/program files (x86)/microchip/xc32/v2.30/bin/bin/../../lib/gcc/pic32c/6.2.1/../../../../pic32c/lib\libc.a(lib_a-wcrtomb.o)
 .debug_loc     0x00026ecf       0x14 c:/program files (x86)/microchip/xc32/v2.30/bin/bin/../../lib/gcc/pic32c/6.2.1/../../../../pic32c/lib\libpic32c.a(_close.o)
 .debug_loc     0x00026ee3       0x14 c:/program files (x86)/microchip/xc32/v2.30/bin/bin/../../lib/gcc/pic32c/6.2.1/../../../../pic32c/lib\libpic32c.a(_fstat.o)
 .debug_loc     0x00026ef7       0x14 c:/program files (x86)/microchip/xc32/v2.30/bin/bin/../../lib/gcc/pic32c/6.2.1/../../../../pic32c/lib\libpic32c.a(_isatty.o)
 .debug_loc     0x00026f0b       0x14 c:/program files (x86)/microchip/xc32/v2.30/bin/bin/../../lib/gcc/pic32c/6.2.1/../../../../pic32c/lib\libpic32c.a(_lseek.o)
 .debug_loc     0x00026f1f       0x14 c:/program files (x86)/microchip/xc32/v2.30/bin/bin/../../lib/gcc/pic32c/6.2.1/../../../../pic32c/lib\libpic32c.a(_read.o)
 .debug_loc     0x00026f33       0x14 c:/program files (x86)/microchip/xc32/v2.30/bin/bin/../../lib/gcc/pic32c/6.2.1/../../../../pic32c/lib\libpic32c.a(_write.o)
 .debug_loc     0x00026f47       0x14 c:/program files (x86)/microchip/xc32/v2.30/bin/bin/../../lib/gcc/pic32c/6.2.1/../../../../pic32c/lib\libpic32c.a(read.o)
 .debug_loc     0x00026f5b       0x14 c:/program files (x86)/microchip/xc32/v2.30/bin/bin/../../lib/gcc/pic32c/6.2.1/../../../../pic32c/lib\libpic32c.a(write.o)
 .debug_loc     0x00026f6f       0xbe c:/program files (x86)/microchip/xc32/v2.30/bin/bin/../../lib/gcc/pic32c/6.2.1\libgcc.a(unorddf2.o)

.debug_aranges  0x00000000     0x1fa0
 .debug_aranges
                0x00000000      0x100 build/default/production/_ext/869808652/drv_usart.o
 .debug_aranges
                0x00000100       0xa0 build/default/production/_ext/60165182/plib_can0.o
 .debug_aranges
                0x000001a0       0x20 build/default/production/_ext/1984496892/plib_clock.o
 .debug_aranges
                0x000001c0       0x40 build/default/production/_ext/60167341/plib_eic.o
 .debug_aranges
                0x00000200       0x20 build/default/production/_ext/1986646378/plib_evsys.o
 .debug_aranges
                0x00000220       0x38 build/default/production/_ext/1865468468/plib_nvic.o
 .debug_aranges
                0x00000258       0x88 build/default/production/_ext/1593096446/plib_nvmctrl.o
 .debug_aranges
                0x000002e0       0x70 build/default/production/_ext/1865521619/plib_port.o
 .debug_aranges
                0x00000350       0x40 build/default/production/_ext/60180175/plib_rtc_clock.o
 .debug_aranges
                0x00000390       0x48 build/default/production/_ext/17022449/plib_sercom0_spi_master.o
 .debug_aranges
                0x000003d8       0xb0 build/default/production/_ext/504274921/plib_sercom3_usart.o
 .debug_aranges
                0x00000488       0x98 build/default/production/_ext/504274921/plib_sercom4_usart.o
 .debug_aranges
                0x00000520       0xb0 build/default/production/_ext/504274921/plib_sercom2_usart.o
 .debug_aranges
                0x000005d0       0x78 build/default/production/_ext/1827571544/plib_systick.o
 .debug_aranges
                0x00000648       0x70 build/default/production/_ext/829342655/plib_tc4.o
 .debug_aranges
                0x000006b8       0x70 build/default/production/_ext/829342655/plib_tc0.o
 .debug_aranges
                0x00000728       0x70 build/default/production/_ext/829342655/plib_tc3.o
 .debug_aranges
                0x00000798       0x40 build/default/production/_ext/60184501/plib_wdt.o
 .debug_aranges
                0x000007d8       0x28 build/default/production/_ext/163028504/xc32_monitor.o
 .debug_aranges
                0x00000800       0x40 build/default/production/_ext/1881668453/sys_int.o
 .debug_aranges
                0x00000840       0x20 build/default/production/_ext/1171490990/initialization.o
 .debug_aranges
                0x00000860       0x20 build/default/production/_ext/1171490990/interrupts.o
 .debug_aranges
                0x00000880       0x28 build/default/production/_ext/1171490990/exceptions.o
 .debug_aranges
                0x000008a8       0x28 build/default/production/_ext/1171490990/startup_xc32.o
 .debug_aranges
                0x000008d0       0x20 build/default/production/_ext/1171490990/tasks.o
 .debug_aranges
                0x000008f0       0x20 build/default/production/_ext/1360937237/main.o
 .debug_aranges
                0x00000910       0x40 build/default/production/_ext/1360937237/myapp.o
 .debug_aranges
                0x00000950       0x60 build/default/production/_ext/1360937237/app.o
 .debug_aranges
                0x000009b0       0x60 build/default/production/_ext/1360937237/at_engine.o
 .debug_aranges
                0x00000a10       0x40 build/default/production/_ext/1360937237/at_parser.o
 .debug_aranges
                0x00000a50       0x48 build/default/production/_ext/1360937237/dev_adapter.o
 .debug_aranges
                0x00000a98       0x40 build/default/production/_ext/1360937237/dev_hal.o
 .debug_aranges
                0x00000ad8       0x48 build/default/production/_ext/1360937237/dev_timer.o
 .debug_aranges
                0x00000b20       0x78 build/default/production/_ext/1360937237/gsm_gps.o
 .debug_aranges
                0x00000b98       0x40 build/default/production/_ext/1360937237/app2.o
 .debug_aranges
                0x00000bd8      0x168 build/default/production/_ext/1360937237/app3.o
 .debug_aranges
                0x00000d40      0x150 build/default/production/_ext/1360937237/ext_flash.o
 .debug_aranges
                0x00000e90       0x60 build/default/production/_ext/1360937237/app4.o
 .debug_aranges
                0x00000ef0       0x20 c:/program files (x86)/microchip/xc32/v2.30/bin/bin/../../lib/gcc/pic32c/6.2.1/../../../../pic32c/lib\libpic32c.a(data_init.o)
 .debug_aranges
                0x00000f10       0x20 c:/program files (x86)/microchip/xc32/v2.30/bin/bin/../../lib/gcc/pic32c/6.2.1\libgcc.a(_udivsi3.o)
 .debug_aranges
                0x00000f30       0x20 c:/program files (x86)/microchip/xc32/v2.30/bin/bin/../../lib/gcc/pic32c/6.2.1\libgcc.a(_divsi3.o)
 .debug_aranges
                0x00000f50       0x20 c:/program files (x86)/microchip/xc32/v2.30/bin/bin/../../lib/gcc/pic32c/6.2.1\libgcc.a(_dvmd_tls.o)
 .debug_aranges
                0x00000f70       0x20 c:/program files (x86)/microchip/xc32/v2.30/bin/bin/../../lib/gcc/pic32c/6.2.1\libgcc.a(_arm_cmpdf2.o)
 .debug_aranges
                0x00000f90       0x20 c:/program files (x86)/microchip/xc32/v2.30/bin/bin/../../lib/gcc/pic32c/6.2.1\libgcc.a(_arm_cmpsf2.o)
 .debug_aranges
                0x00000fb0       0x20 c:/program files (x86)/microchip/xc32/v2.30/bin/bin/../../lib/gcc/pic32c/6.2.1\libgcc.a(_aeabi_uldivmod.o)
 .debug_aranges
                0x00000fd0       0x20 c:/program files (x86)/microchip/xc32/v2.30/bin/bin/../../lib/gcc/pic32c/6.2.1\libgcc.a(_muldi3.o)
 .debug_aranges
                0x00000ff0       0x20 c:/program files (x86)/microchip/xc32/v2.30/bin/bin/../../lib/gcc/pic32c/6.2.1\libgcc.a(_fixunssfsi.o)
 .debug_aranges
                0x00001010       0x20 c:/program files (x86)/microchip/xc32/v2.30/bin/bin/../../lib/gcc/pic32c/6.2.1\libgcc.a(_fixunsdfsi.o)
 .debug_aranges
                0x00001030       0x20 c:/program files (x86)/microchip/xc32/v2.30/bin/bin/../../lib/gcc/pic32c/6.2.1\libgcc.a(_udivmoddi4.o)
 .debug_aranges
                0x00001050       0x20 c:/program files (x86)/microchip/xc32/v2.30/bin/bin/../../lib/gcc/pic32c/6.2.1\libgcc.a(addsf3.o)
 .debug_aranges
                0x00001070       0x20 c:/program files (x86)/microchip/xc32/v2.30/bin/bin/../../lib/gcc/pic32c/6.2.1\libgcc.a(divsf3.o)
 .debug_aranges
                0x00001090       0x20 c:/program files (x86)/microchip/xc32/v2.30/bin/bin/../../lib/gcc/pic32c/6.2.1\libgcc.a(eqsf2.o)
 .debug_aranges
                0x000010b0       0x20 c:/program files (x86)/microchip/xc32/v2.30/bin/bin/../../lib/gcc/pic32c/6.2.1\libgcc.a(gesf2.o)
 .debug_aranges
                0x000010d0       0x20 c:/program files (x86)/microchip/xc32/v2.30/bin/bin/../../lib/gcc/pic32c/6.2.1\libgcc.a(lesf2.o)
 .debug_aranges
                0x000010f0       0x20 c:/program files (x86)/microchip/xc32/v2.30/bin/bin/../../lib/gcc/pic32c/6.2.1\libgcc.a(subsf3.o)
 .debug_aranges
                0x00001110       0x20 c:/program files (x86)/microchip/xc32/v2.30/bin/bin/../../lib/gcc/pic32c/6.2.1\libgcc.a(fixsfsi.o)
 .debug_aranges
                0x00001130       0x20 c:/program files (x86)/microchip/xc32/v2.30/bin/bin/../../lib/gcc/pic32c/6.2.1\libgcc.a(floatsisf.o)
 .debug_aranges
                0x00001150       0x20 c:/program files (x86)/microchip/xc32/v2.30/bin/bin/../../lib/gcc/pic32c/6.2.1\libgcc.a(floatunsisf.o)
 .debug_aranges
                0x00001170       0x20 c:/program files (x86)/microchip/xc32/v2.30/bin/bin/../../lib/gcc/pic32c/6.2.1\libgcc.a(adddf3.o)
 .debug_aranges
                0x00001190       0x20 c:/program files (x86)/microchip/xc32/v2.30/bin/bin/../../lib/gcc/pic32c/6.2.1\libgcc.a(divdf3.o)
 .debug_aranges
                0x000011b0       0x20 c:/program files (x86)/microchip/xc32/v2.30/bin/bin/../../lib/gcc/pic32c/6.2.1\libgcc.a(eqdf2.o)
 .debug_aranges
                0x000011d0       0x20 c:/program files (x86)/microchip/xc32/v2.30/bin/bin/../../lib/gcc/pic32c/6.2.1\libgcc.a(gedf2.o)
 .debug_aranges
                0x000011f0       0x20 c:/program files (x86)/microchip/xc32/v2.30/bin/bin/../../lib/gcc/pic32c/6.2.1\libgcc.a(ledf2.o)
 .debug_aranges
                0x00001210       0x20 c:/program files (x86)/microchip/xc32/v2.30/bin/bin/../../lib/gcc/pic32c/6.2.1\libgcc.a(muldf3.o)
 .debug_aranges
                0x00001230       0x20 c:/program files (x86)/microchip/xc32/v2.30/bin/bin/../../lib/gcc/pic32c/6.2.1\libgcc.a(subdf3.o)
 .debug_aranges
                0x00001250       0x20 c:/program files (x86)/microchip/xc32/v2.30/bin/bin/../../lib/gcc/pic32c/6.2.1\libgcc.a(fixdfsi.o)
 .debug_aranges
                0x00001270       0x20 c:/program files (x86)/microchip/xc32/v2.30/bin/bin/../../lib/gcc/pic32c/6.2.1\libgcc.a(floatsidf.o)
 .debug_aranges
                0x00001290       0x20 c:/program files (x86)/microchip/xc32/v2.30/bin/bin/../../lib/gcc/pic32c/6.2.1\libgcc.a(floatunsidf.o)
 .debug_aranges
                0x000012b0       0x20 c:/program files (x86)/microchip/xc32/v2.30/bin/bin/../../lib/gcc/pic32c/6.2.1\libgcc.a(extendsfdf2.o)
 .debug_aranges
                0x000012d0       0x20 c:/program files (x86)/microchip/xc32/v2.30/bin/bin/../../lib/gcc/pic32c/6.2.1\libgcc.a(truncdfsf2.o)
 .debug_aranges
                0x000012f0       0x20 c:/program files (x86)/microchip/xc32/v2.30/bin/bin/../../lib/gcc/pic32c/6.2.1\libgcc.a(_thumb1_case_uqi.o)
 .debug_aranges
                0x00001310       0x20 c:/program files (x86)/microchip/xc32/v2.30/bin/bin/../../lib/gcc/pic32c/6.2.1\libgcc.a(_thumb1_case_uhi.o)
 .debug_aranges
                0x00001330       0x20 c:/program files (x86)/microchip/xc32/v2.30/bin/bin/../../lib/gcc/pic32c/6.2.1\libgcc.a(_lshrdi3.o)
 .debug_aranges
                0x00001350       0x20 c:/program files (x86)/microchip/xc32/v2.30/bin/bin/../../lib/gcc/pic32c/6.2.1\libgcc.a(_ashldi3.o)
 .debug_aranges
                0x00001370       0x20 c:/program files (x86)/microchip/xc32/v2.30/bin/bin/../../lib/gcc/pic32c/6.2.1\libgcc.a(_clzsi2.o)
 .debug_aranges
                0x00001390       0x20 c:/program files (x86)/microchip/xc32/v2.30/bin/bin/../../lib/gcc/pic32c/6.2.1\libgcc.a(_clzdi2.o)
 .debug_aranges
                0x000013b0       0x20 c:/program files (x86)/microchip/xc32/v2.30/bin/bin/../../lib/gcc/pic32c/6.2.1/../../../../pic32c/lib\libc.a(lib_a-atof.o)
 .debug_aranges
                0x000013d0       0x28 c:/program files (x86)/microchip/xc32/v2.30/bin/bin/../../lib/gcc/pic32c/6.2.1/../../../../pic32c/lib\libc.a(lib_a-atol.o)
 .debug_aranges
                0x000013f8       0x18 c:/program files (x86)/microchip/xc32/v2.30/bin/bin/../../lib/gcc/pic32c/6.2.1/../../../../pic32c/lib\libc.a(lib_a-impure.o)
 .debug_aranges
                0x00001410       0x20 c:/program files (x86)/microchip/xc32/v2.30/bin/bin/../../lib/gcc/pic32c/6.2.1/../../../../pic32c/lib\libc.a(lib_a-init.o)
 .debug_aranges
                0x00001430       0x20 c:/program files (x86)/microchip/xc32/v2.30/bin/bin/../../lib/gcc/pic32c/6.2.1/../../../../pic32c/lib\libc.a(lib_a-memcpy-stub.o)
 .debug_aranges
                0x00001450       0x20 c:/program files (x86)/microchip/xc32/v2.30/bin/bin/../../lib/gcc/pic32c/6.2.1/../../../../pic32c/lib\libc.a(lib_a-memset.o)
 .debug_aranges
                0x00001470       0x28 c:/program files (x86)/microchip/xc32/v2.30/bin/bin/../../lib/gcc/pic32c/6.2.1/../../../../pic32c/lib\libc.a(lib_a-printf.o)
 .debug_aranges
                0x00001498       0x28 c:/program files (x86)/microchip/xc32/v2.30/bin/bin/../../lib/gcc/pic32c/6.2.1/../../../../pic32c/lib\libc.a(lib_a-puts.o)
 .debug_aranges
                0x000014c0       0x20 c:/program files (x86)/microchip/xc32/v2.30/bin/bin/../../lib/gcc/pic32c/6.2.1/../../../../pic32c/lib\libc.a(lib_a-setbuf.o)
 .debug_aranges
                0x000014e0       0x20 c:/program files (x86)/microchip/xc32/v2.30/bin/bin/../../lib/gcc/pic32c/6.2.1/../../../../pic32c/lib\libc.a(lib_a-setvbuf.o)
 .debug_aranges
                0x00001500       0x28 c:/program files (x86)/microchip/xc32/v2.30/bin/bin/../../lib/gcc/pic32c/6.2.1/../../../../pic32c/lib\libc.a(lib_a-sprintf.o)
 .debug_aranges
                0x00001528       0x20 c:/program files (x86)/microchip/xc32/v2.30/bin/bin/../../lib/gcc/pic32c/6.2.1/../../../../pic32c/lib\libc.a(lib_a-strcat.o)
 .debug_aranges
                0x00001548       0x20 c:/program files (x86)/microchip/xc32/v2.30/bin/bin/../../lib/gcc/pic32c/6.2.1/../../../../pic32c/lib\libc.a(lib_a-strchr.o)
 .debug_aranges
                0x00001568       0x20 c:/program files (x86)/microchip/xc32/v2.30/bin/bin/../../lib/gcc/pic32c/6.2.1/../../../../pic32c/lib\libc.a(lib_a-strcmp.o)
 .debug_aranges
                0x00001588       0x20 c:/program files (x86)/microchip/xc32/v2.30/bin/bin/../../lib/gcc/pic32c/6.2.1/../../../../pic32c/lib\libc.a(lib_a-strcpy.o)
 .debug_aranges
                0x000015a8       0x20 c:/program files (x86)/microchip/xc32/v2.30/bin/bin/../../lib/gcc/pic32c/6.2.1/../../../../pic32c/lib\libc.a(lib_a-strlen.o)
 .debug_aranges
                0x000015c8       0x20 c:/program files (x86)/microchip/xc32/v2.30/bin/bin/../../lib/gcc/pic32c/6.2.1/../../../../pic32c/lib\libc.a(lib_a-strncpy.o)
 .debug_aranges
                0x000015e8       0x20 c:/program files (x86)/microchip/xc32/v2.30/bin/bin/../../lib/gcc/pic32c/6.2.1/../../../../pic32c/lib\libc.a(lib_a-strstr.o)
 .debug_aranges
                0x00001608       0x50 c:/program files (x86)/microchip/xc32/v2.30/bin/bin/../../lib/gcc/pic32c/6.2.1/../../../../pic32c/lib\libc.a(lib_a-strtod.o)
 .debug_aranges
                0x00001658       0x20 c:/program files (x86)/microchip/xc32/v2.30/bin/bin/../../lib/gcc/pic32c/6.2.1/../../../../pic32c/lib\libc.a(lib_a-strtok.o)
 .debug_aranges
                0x00001678       0x28 c:/program files (x86)/microchip/xc32/v2.30/bin/bin/../../lib/gcc/pic32c/6.2.1/../../../../pic32c/lib\libc.a(lib_a-strtok_r.o)
 .debug_aranges
                0x000016a0       0x38 c:/program files (x86)/microchip/xc32/v2.30/bin/bin/../../lib/gcc/pic32c/6.2.1/../../../../pic32c/lib\libc.a(lib_a-strtol.o)
 .debug_aranges
                0x000016d8       0x20 c:/program files (x86)/microchip/xc32/v2.30/bin/bin/../../lib/gcc/pic32c/6.2.1/../../../../pic32c/lib\libc.a(lib_a-svfprintf.o)
 .debug_aranges
                0x000016f8       0x30 c:/program files (x86)/microchip/xc32/v2.30/bin/bin/../../lib/gcc/pic32c/6.2.1/../../../../pic32c/lib\libc.a(lib_a-vfprintf.o)
 .debug_aranges
                0x00001728       0x20 c:/program files (x86)/microchip/xc32/v2.30/bin/bin/../../lib/gcc/pic32c/6.2.1/../../../../pic32c/lib\libc.a(lib_a-wsetup.o)
 .debug_aranges
                0x00001748       0x28 c:/program files (x86)/microchip/xc32/v2.30/bin/bin/../../lib/gcc/pic32c/6.2.1/../../../../pic32c/lib\libc.a(lib_a-dtoa.o)
 .debug_aranges
                0x00001770       0x30 c:/program files (x86)/microchip/xc32/v2.30/bin/bin/../../lib/gcc/pic32c/6.2.1/../../../../pic32c/lib\libc.a(lib_a-fflush.o)
 .debug_aranges
                0x000017a0       0x48 c:/program files (x86)/microchip/xc32/v2.30/bin/bin/../../lib/gcc/pic32c/6.2.1/../../../../pic32c/lib\libc.a(lib_a-findfp.o)
 .debug_aranges
                0x000017e8       0x28 c:/program files (x86)/microchip/xc32/v2.30/bin/bin/../../lib/gcc/pic32c/6.2.1/../../../../pic32c/lib\libc.a(lib_a-freer.o)
 .debug_aranges
                0x00001810       0x20 c:/program files (x86)/microchip/xc32/v2.30/bin/bin/../../lib/gcc/pic32c/6.2.1/../../../../pic32c/lib\libc.a(lib_a-fvwrite.o)
 .debug_aranges
                0x00001830       0x28 c:/program files (x86)/microchip/xc32/v2.30/bin/bin/../../lib/gcc/pic32c/6.2.1/../../../../pic32c/lib\libc.a(lib_a-fwalk.o)
 .debug_aranges
                0x00001858       0x30 c:/program files (x86)/microchip/xc32/v2.30/bin/bin/../../lib/gcc/pic32c/6.2.1/../../../../pic32c/lib\libc.a(lib_a-gdtoa-gethex.o)
 .debug_aranges
                0x00001888       0x30 c:/program files (x86)/microchip/xc32/v2.30/bin/bin/../../lib/gcc/pic32c/6.2.1/../../../../pic32c/lib\libc.a(lib_a-gdtoa-hexnan.o)
 .debug_aranges
                0x000018b8       0x30 c:/program files (x86)/microchip/xc32/v2.30/bin/bin/../../lib/gcc/pic32c/6.2.1/../../../../pic32c/lib\libc.a(lib_a-localeconv.o)
 .debug_aranges
                0x000018e8       0x40 c:/program files (x86)/microchip/xc32/v2.30/bin/bin/../../lib/gcc/pic32c/6.2.1/../../../../pic32c/lib\libc.a(lib_a-locale.o)
 .debug_aranges
                0x00001928       0x28 c:/program files (x86)/microchip/xc32/v2.30/bin/bin/../../lib/gcc/pic32c/6.2.1/../../../../pic32c/lib\libc.a(lib_a-makebuf.o)
 .debug_aranges
                0x00001950       0x28 c:/program files (x86)/microchip/xc32/v2.30/bin/bin/../../lib/gcc/pic32c/6.2.1/../../../../pic32c/lib\libc.a(lib_a-malloc.o)
 .debug_aranges
                0x00001978       0x20 c:/program files (x86)/microchip/xc32/v2.30/bin/bin/../../lib/gcc/pic32c/6.2.1/../../../../pic32c/lib\libc.a(lib_a-mallocr.o)
 .debug_aranges
                0x00001998       0x28 c:/program files (x86)/microchip/xc32/v2.30/bin/bin/../../lib/gcc/pic32c/6.2.1/../../../../pic32c/lib\libc.a(lib_a-mbtowc_r.o)
 .debug_aranges
                0x000019c0       0x20 c:/program files (x86)/microchip/xc32/v2.30/bin/bin/../../lib/gcc/pic32c/6.2.1/../../../../pic32c/lib\libc.a(lib_a-memchr-stub.o)
 .debug_aranges
                0x000019e0       0x20 c:/program files (x86)/microchip/xc32/v2.30/bin/bin/../../lib/gcc/pic32c/6.2.1/../../../../pic32c/lib\libc.a(lib_a-memmove.o)
 .debug_aranges
                0x00001a00       0x20 c:/program files (x86)/microchip/xc32/v2.30/bin/bin/../../lib/gcc/pic32c/6.2.1/../../../../pic32c/lib\libc.a(lib_a-mlock.o)
 .debug_aranges
                0x00001a20       0xb0 c:/program files (x86)/microchip/xc32/v2.30/bin/bin/../../lib/gcc/pic32c/6.2.1/../../../../pic32c/lib\libc.a(lib_a-mprec.o)
 .debug_aranges
                0x00001ad0       0x20 c:/program files (x86)/microchip/xc32/v2.30/bin/bin/../../lib/gcc/pic32c/6.2.1/../../../../pic32c/lib\libc.a(lib_a-reallocr.o)
 .debug_aranges
                0x00001af0       0x20 c:/program files (x86)/microchip/xc32/v2.30/bin/bin/../../lib/gcc/pic32c/6.2.1/../../../../pic32c/lib\libc.a(lib_a-sbrkr.o)
 .debug_aranges
                0x00001b10       0x20 c:/program files (x86)/microchip/xc32/v2.30/bin/bin/../../lib/gcc/pic32c/6.2.1/../../../../pic32c/lib\libc.a(lib_a-s_frexp.o)
 .debug_aranges
                0x00001b30       0x40 c:/program files (x86)/microchip/xc32/v2.30/bin/bin/../../lib/gcc/pic32c/6.2.1/../../../../pic32c/lib\libc.a(lib_a-stdio.o)
 .debug_aranges
                0x00001b70       0x20 c:/program files (x86)/microchip/xc32/v2.30/bin/bin/../../lib/gcc/pic32c/6.2.1/../../../../pic32c/lib\libc.a(lib_a-strncmp.o)
 .debug_aranges
                0x00001b90       0x28 c:/program files (x86)/microchip/xc32/v2.30/bin/bin/../../lib/gcc/pic32c/6.2.1/../../../../pic32c/lib\libc.a(lib_a-svfiprintf.o)
 .debug_aranges
                0x00001bb8       0x38 c:/program files (x86)/microchip/xc32/v2.30/bin/bin/../../lib/gcc/pic32c/6.2.1/../../../../pic32c/lib\libc.a(lib_a-vfiprintf.o)
 .debug_aranges
                0x00001bf0       0x28 c:/program files (x86)/microchip/xc32/v2.30/bin/bin/../../lib/gcc/pic32c/6.2.1/../../../../pic32c/lib\libc.a(lib_a-wctomb_r.o)
 .debug_aranges
                0x00001c18       0x20 c:/program files (x86)/microchip/xc32/v2.30/bin/bin/../../lib/gcc/pic32c/6.2.1/../../../../pic32c/lib\libc.a(lib_a-writer.o)
 .debug_aranges
                0x00001c38       0x20 c:/program files (x86)/microchip/xc32/v2.30/bin/bin/../../lib/gcc/pic32c/6.2.1/../../../../pic32c/lib\libc.a(lib_a-callocr.o)
 .debug_aranges
                0x00001c58       0x20 c:/program files (x86)/microchip/xc32/v2.30/bin/bin/../../lib/gcc/pic32c/6.2.1/../../../../pic32c/lib\libc.a(lib_a-closer.o)
 .debug_aranges
                0x00001c78       0x18 c:/program files (x86)/microchip/xc32/v2.30/bin/bin/../../lib/gcc/pic32c/6.2.1/../../../../pic32c/lib\libc.a(lib_a-ctype_.o)
 .debug_aranges
                0x00001c90       0x28 c:/program files (x86)/microchip/xc32/v2.30/bin/bin/../../lib/gcc/pic32c/6.2.1/../../../../pic32c/lib\libc.a(lib_a-fclose.o)
 .debug_aranges
                0x00001cb8       0x30 c:/program files (x86)/microchip/xc32/v2.30/bin/bin/../../lib/gcc/pic32c/6.2.1/../../../../pic32c/lib\libc.a(lib_a-fputwc.o)
 .debug_aranges
                0x00001ce8       0x20 c:/program files (x86)/microchip/xc32/v2.30/bin/bin/../../lib/gcc/pic32c/6.2.1/../../../../pic32c/lib\libc.a(lib_a-fstatr.o)
 .debug_aranges
                0x00001d08       0x20 c:/program files (x86)/microchip/xc32/v2.30/bin/bin/../../lib/gcc/pic32c/6.2.1/../../../../pic32c/lib\libc.a(lib_a-isattyr.o)
 .debug_aranges
                0x00001d28       0x20 c:/program files (x86)/microchip/xc32/v2.30/bin/bin/../../lib/gcc/pic32c/6.2.1/../../../../pic32c/lib\libc.a(lib_a-lseekr.o)
 .debug_aranges
                0x00001d48       0x20 c:/program files (x86)/microchip/xc32/v2.30/bin/bin/../../lib/gcc/pic32c/6.2.1/../../../../pic32c/lib\libc.a(lib_a-readr.o)
 .debug_aranges
                0x00001d68       0x28 c:/program files (x86)/microchip/xc32/v2.30/bin/bin/../../lib/gcc/pic32c/6.2.1/../../../../pic32c/lib\libc.a(lib_a-reent.o)
 .debug_aranges
                0x00001d90       0x28 c:/program files (x86)/microchip/xc32/v2.30/bin/bin/../../lib/gcc/pic32c/6.2.1/../../../../pic32c/lib\libc.a(lib_a-wbuf.o)
 .debug_aranges
                0x00001db8       0x28 c:/program files (x86)/microchip/xc32/v2.30/bin/bin/../../lib/gcc/pic32c/6.2.1/../../../../pic32c/lib\libc.a(lib_a-wcrtomb.o)
 .debug_aranges
                0x00001de0       0x20 c:/program files (x86)/microchip/xc32/v2.30/bin/bin/../../lib/gcc/pic32c/6.2.1/../../../../pic32c/lib\libpic32c.a(_close.o)
 .debug_aranges
                0x00001e00       0x20 c:/program files (x86)/microchip/xc32/v2.30/bin/bin/../../lib/gcc/pic32c/6.2.1/../../../../pic32c/lib\libpic32c.a(_fstat.o)
 .debug_aranges
                0x00001e20       0x20 c:/program files (x86)/microchip/xc32/v2.30/bin/bin/../../lib/gcc/pic32c/6.2.1/../../../../pic32c/lib\libpic32c.a(_isatty.o)
 .debug_aranges
                0x00001e40       0x20 c:/program files (x86)/microchip/xc32/v2.30/bin/bin/../../lib/gcc/pic32c/6.2.1/../../../../pic32c/lib\libpic32c.a(_lseek.o)
 .debug_aranges
                0x00001e60       0x20 c:/program files (x86)/microchip/xc32/v2.30/bin/bin/../../lib/gcc/pic32c/6.2.1/../../../../pic32c/lib\libpic32c.a(_read.o)
 .debug_aranges
                0x00001e80       0x20 c:/program files (x86)/microchip/xc32/v2.30/bin/bin/../../lib/gcc/pic32c/6.2.1/../../../../pic32c/lib\libpic32c.a(sbrk.o)
 .debug_aranges
                0x00001ea0       0x20 c:/program files (x86)/microchip/xc32/v2.30/bin/bin/../../lib/gcc/pic32c/6.2.1/../../../../pic32c/lib\libpic32c.a(_write.o)
 .debug_aranges
                0x00001ec0       0x20 c:/program files (x86)/microchip/xc32/v2.30/bin/bin/../../lib/gcc/pic32c/6.2.1/../../../../pic32c/lib\libpic32c.a(close.o)
 .debug_aranges
                0x00001ee0       0x20 c:/program files (x86)/microchip/xc32/v2.30/bin/bin/../../lib/gcc/pic32c/6.2.1/../../../../pic32c/lib\libpic32c.a(fstat.o)
 .debug_aranges
                0x00001f00       0x20 c:/program files (x86)/microchip/xc32/v2.30/bin/bin/../../lib/gcc/pic32c/6.2.1/../../../../pic32c/lib\libpic32c.a(isatty.o)
 .debug_aranges
                0x00001f20       0x20 c:/program files (x86)/microchip/xc32/v2.30/bin/bin/../../lib/gcc/pic32c/6.2.1/../../../../pic32c/lib\libpic32c.a(lseek.o)
 .debug_aranges
                0x00001f40       0x20 c:/program files (x86)/microchip/xc32/v2.30/bin/bin/../../lib/gcc/pic32c/6.2.1/../../../../pic32c/lib\libpic32c.a(read.o)
 .debug_aranges
                0x00001f60       0x20 c:/program files (x86)/microchip/xc32/v2.30/bin/bin/../../lib/gcc/pic32c/6.2.1/../../../../pic32c/lib\libpic32c.a(write.o)
 .debug_aranges
                0x00001f80       0x20 c:/program files (x86)/microchip/xc32/v2.30/bin/bin/../../lib/gcc/pic32c/6.2.1\libgcc.a(unorddf2.o)

.debug_ranges   0x00000000     0x27b0
 .debug_ranges  0x00000000      0x220 build/default/production/_ext/869808652/drv_usart.o
 .debug_ranges  0x00000220       0x90 build/default/production/_ext/60165182/plib_can0.o
 .debug_ranges  0x000002b0       0x10 build/default/production/_ext/1984496892/plib_clock.o
 .debug_ranges  0x000002c0       0x30 build/default/production/_ext/60167341/plib_eic.o
 .debug_ranges  0x000002f0       0x10 build/default/production/_ext/1986646378/plib_evsys.o
 .debug_ranges  0x00000300       0x28 build/default/production/_ext/1865468468/plib_nvic.o
 .debug_ranges  0x00000328       0x78 build/default/production/_ext/1593096446/plib_nvmctrl.o
 .debug_ranges  0x000003a0       0x60 build/default/production/_ext/1865521619/plib_port.o
 .debug_ranges  0x00000400       0x30 build/default/production/_ext/60180175/plib_rtc_clock.o
 .debug_ranges  0x00000430       0x38 build/default/production/_ext/17022449/plib_sercom0_spi_master.o
 .debug_ranges  0x00000468       0xd0 build/default/production/_ext/504274921/plib_sercom3_usart.o
 .debug_ranges  0x00000538       0x88 build/default/production/_ext/504274921/plib_sercom4_usart.o
 .debug_ranges  0x000005c0       0xd0 build/default/production/_ext/504274921/plib_sercom2_usart.o
 .debug_ranges  0x00000690       0x68 build/default/production/_ext/1827571544/plib_systick.o
 .debug_ranges  0x000006f8       0x60 build/default/production/_ext/829342655/plib_tc4.o
 .debug_ranges  0x00000758       0x60 build/default/production/_ext/829342655/plib_tc0.o
 .debug_ranges  0x000007b8       0x60 build/default/production/_ext/829342655/plib_tc3.o
 .debug_ranges  0x00000818       0x30 build/default/production/_ext/60184501/plib_wdt.o
 .debug_ranges  0x00000848       0x18 build/default/production/_ext/163028504/xc32_monitor.o
 .debug_ranges  0x00000860       0x30 build/default/production/_ext/1881668453/sys_int.o
 .debug_ranges  0x00000890       0x10 build/default/production/_ext/1171490990/initialization.o
 .debug_ranges  0x000008a0       0x10 build/default/production/_ext/1171490990/interrupts.o
 .debug_ranges  0x000008b0       0x18 build/default/production/_ext/1171490990/exceptions.o
 .debug_ranges  0x000008c8       0x18 build/default/production/_ext/1171490990/startup_xc32.o
 .debug_ranges  0x000008e0       0x10 build/default/production/_ext/1171490990/tasks.o
 .debug_ranges  0x000008f0       0x10 build/default/production/_ext/1360937237/main.o
 .debug_ranges  0x00000900       0x30 build/default/production/_ext/1360937237/myapp.o
 .debug_ranges  0x00000930       0xa0 build/default/production/_ext/1360937237/app.o
 .debug_ranges  0x000009d0       0xb8 build/default/production/_ext/1360937237/at_engine.o
 .debug_ranges  0x00000a88       0x90 build/default/production/_ext/1360937237/at_parser.o
 .debug_ranges  0x00000b18       0x38 build/default/production/_ext/1360937237/dev_adapter.o
 .debug_ranges  0x00000b50       0x30 build/default/production/_ext/1360937237/dev_hal.o
 .debug_ranges  0x00000b80       0x38 build/default/production/_ext/1360937237/dev_timer.o
 .debug_ranges  0x00000bb8       0x98 build/default/production/_ext/1360937237/gsm_gps.o
 .debug_ranges  0x00000c50       0x60 build/default/production/_ext/1360937237/app2.o
 .debug_ranges  0x00000cb0      0x1a0 build/default/production/_ext/1360937237/app3.o
 .debug_ranges  0x00000e50      0x188 build/default/production/_ext/1360937237/ext_flash.o
 .debug_ranges  0x00000fd8       0x50 build/default/production/_ext/1360937237/app4.o
 .debug_ranges  0x00001028       0x10 c:/program files (x86)/microchip/xc32/v2.30/bin/bin/../../lib/gcc/pic32c/6.2.1/../../../../pic32c/lib\libpic32c.a(data_init.o)
 .debug_ranges  0x00001038       0x28 c:/program files (x86)/microchip/xc32/v2.30/bin/bin/../../lib/gcc/pic32c/6.2.1\libgcc.a(_muldi3.o)
 .debug_ranges  0x00001060       0xe8 c:/program files (x86)/microchip/xc32/v2.30/bin/bin/../../lib/gcc/pic32c/6.2.1\libgcc.a(addsf3.o)
 .debug_ranges  0x00001148       0x50 c:/program files (x86)/microchip/xc32/v2.30/bin/bin/../../lib/gcc/pic32c/6.2.1\libgcc.a(divsf3.o)
 .debug_ranges  0x00001198       0x30 c:/program files (x86)/microchip/xc32/v2.30/bin/bin/../../lib/gcc/pic32c/6.2.1\libgcc.a(eqsf2.o)
 .debug_ranges  0x000011c8       0x58 c:/program files (x86)/microchip/xc32/v2.30/bin/bin/../../lib/gcc/pic32c/6.2.1\libgcc.a(gesf2.o)
 .debug_ranges  0x00001220       0x30 c:/program files (x86)/microchip/xc32/v2.30/bin/bin/../../lib/gcc/pic32c/6.2.1\libgcc.a(lesf2.o)
 .debug_ranges  0x00001250       0xf0 c:/program files (x86)/microchip/xc32/v2.30/bin/bin/../../lib/gcc/pic32c/6.2.1\libgcc.a(subsf3.o)
 .debug_ranges  0x00001340       0x38 c:/program files (x86)/microchip/xc32/v2.30/bin/bin/../../lib/gcc/pic32c/6.2.1\libgcc.a(floatsisf.o)
 .debug_ranges  0x00001378       0x38 c:/program files (x86)/microchip/xc32/v2.30/bin/bin/../../lib/gcc/pic32c/6.2.1\libgcc.a(floatunsisf.o)
 .debug_ranges  0x000013b0      0x1b0 c:/program files (x86)/microchip/xc32/v2.30/bin/bin/../../lib/gcc/pic32c/6.2.1\libgcc.a(adddf3.o)
 .debug_ranges  0x00001560      0x178 c:/program files (x86)/microchip/xc32/v2.30/bin/bin/../../lib/gcc/pic32c/6.2.1\libgcc.a(divdf3.o)
 .debug_ranges  0x000016d8       0x50 c:/program files (x86)/microchip/xc32/v2.30/bin/bin/../../lib/gcc/pic32c/6.2.1\libgcc.a(eqdf2.o)
 .debug_ranges  0x00001728       0x30 c:/program files (x86)/microchip/xc32/v2.30/bin/bin/../../lib/gcc/pic32c/6.2.1\libgcc.a(gedf2.o)
 .debug_ranges  0x00001758       0x48 c:/program files (x86)/microchip/xc32/v2.30/bin/bin/../../lib/gcc/pic32c/6.2.1\libgcc.a(ledf2.o)
 .debug_ranges  0x000017a0      0x1d0 c:/program files (x86)/microchip/xc32/v2.30/bin/bin/../../lib/gcc/pic32c/6.2.1\libgcc.a(muldf3.o)
 .debug_ranges  0x00001970      0x1b8 c:/program files (x86)/microchip/xc32/v2.30/bin/bin/../../lib/gcc/pic32c/6.2.1\libgcc.a(subdf3.o)
 .debug_ranges  0x00001b28       0x18 c:/program files (x86)/microchip/xc32/v2.30/bin/bin/../../lib/gcc/pic32c/6.2.1\libgcc.a(fixdfsi.o)
 .debug_ranges  0x00001b40       0x50 c:/program files (x86)/microchip/xc32/v2.30/bin/bin/../../lib/gcc/pic32c/6.2.1\libgcc.a(floatsidf.o)
 .debug_ranges  0x00001b90       0x48 c:/program files (x86)/microchip/xc32/v2.30/bin/bin/../../lib/gcc/pic32c/6.2.1\libgcc.a(floatunsidf.o)
 .debug_ranges  0x00001bd8       0x20 c:/program files (x86)/microchip/xc32/v2.30/bin/bin/../../lib/gcc/pic32c/6.2.1\libgcc.a(extendsfdf2.o)
 .debug_ranges  0x00001bf8       0x38 c:/program files (x86)/microchip/xc32/v2.30/bin/bin/../../lib/gcc/pic32c/6.2.1\libgcc.a(truncdfsf2.o)
 .debug_ranges  0x00001c30       0x10 c:/program files (x86)/microchip/xc32/v2.30/bin/bin/../../lib/gcc/pic32c/6.2.1/../../../../pic32c/lib\libc.a(lib_a-atof.o)
 .debug_ranges  0x00001c40       0x18 c:/program files (x86)/microchip/xc32/v2.30/bin/bin/../../lib/gcc/pic32c/6.2.1/../../../../pic32c/lib\libc.a(lib_a-atol.o)
 .debug_ranges  0x00001c58       0x10 c:/program files (x86)/microchip/xc32/v2.30/bin/bin/../../lib/gcc/pic32c/6.2.1/../../../../pic32c/lib\libc.a(lib_a-init.o)
 .debug_ranges  0x00001c68       0x10 c:/program files (x86)/microchip/xc32/v2.30/bin/bin/../../lib/gcc/pic32c/6.2.1/../../../../pic32c/lib\libc.a(lib_a-memcpy-stub.o)
 .debug_ranges  0x00001c78       0x10 c:/program files (x86)/microchip/xc32/v2.30/bin/bin/../../lib/gcc/pic32c/6.2.1/../../../../pic32c/lib\libc.a(lib_a-memset.o)
 .debug_ranges  0x00001c88       0x18 c:/program files (x86)/microchip/xc32/v2.30/bin/bin/../../lib/gcc/pic32c/6.2.1/../../../../pic32c/lib\libc.a(lib_a-printf.o)
 .debug_ranges  0x00001ca0       0x30 c:/program files (x86)/microchip/xc32/v2.30/bin/bin/../../lib/gcc/pic32c/6.2.1/../../../../pic32c/lib\libc.a(lib_a-puts.o)
 .debug_ranges  0x00001cd0       0x10 c:/program files (x86)/microchip/xc32/v2.30/bin/bin/../../lib/gcc/pic32c/6.2.1/../../../../pic32c/lib\libc.a(lib_a-setbuf.o)
 .debug_ranges  0x00001ce0       0x10 c:/program files (x86)/microchip/xc32/v2.30/bin/bin/../../lib/gcc/pic32c/6.2.1/../../../../pic32c/lib\libc.a(lib_a-setvbuf.o)
 .debug_ranges  0x00001cf0       0x18 c:/program files (x86)/microchip/xc32/v2.30/bin/bin/../../lib/gcc/pic32c/6.2.1/../../../../pic32c/lib\libc.a(lib_a-sprintf.o)
 .debug_ranges  0x00001d08       0x10 c:/program files (x86)/microchip/xc32/v2.30/bin/bin/../../lib/gcc/pic32c/6.2.1/../../../../pic32c/lib\libc.a(lib_a-strcat.o)
 .debug_ranges  0x00001d18       0x10 c:/program files (x86)/microchip/xc32/v2.30/bin/bin/../../lib/gcc/pic32c/6.2.1/../../../../pic32c/lib\libc.a(lib_a-strchr.o)
 .debug_ranges  0x00001d28       0x10 c:/program files (x86)/microchip/xc32/v2.30/bin/bin/../../lib/gcc/pic32c/6.2.1/../../../../pic32c/lib\libc.a(lib_a-strcpy.o)
 .debug_ranges  0x00001d38       0x10 c:/program files (x86)/microchip/xc32/v2.30/bin/bin/../../lib/gcc/pic32c/6.2.1/../../../../pic32c/lib\libc.a(lib_a-strncpy.o)
 .debug_ranges  0x00001d48       0x28 c:/program files (x86)/microchip/xc32/v2.30/bin/bin/../../lib/gcc/pic32c/6.2.1/../../../../pic32c/lib\libc.a(lib_a-strstr.o)
 .debug_ranges  0x00001d70       0x90 c:/program files (x86)/microchip/xc32/v2.30/bin/bin/../../lib/gcc/pic32c/6.2.1/../../../../pic32c/lib\libc.a(lib_a-strtod.o)
 .debug_ranges  0x00001e00       0x10 c:/program files (x86)/microchip/xc32/v2.30/bin/bin/../../lib/gcc/pic32c/6.2.1/../../../../pic32c/lib\libc.a(lib_a-strtok.o)
 .debug_ranges  0x00001e10       0x18 c:/program files (x86)/microchip/xc32/v2.30/bin/bin/../../lib/gcc/pic32c/6.2.1/../../../../pic32c/lib\libc.a(lib_a-strtok_r.o)
 .debug_ranges  0x00001e28       0x28 c:/program files (x86)/microchip/xc32/v2.30/bin/bin/../../lib/gcc/pic32c/6.2.1/../../../../pic32c/lib\libc.a(lib_a-strtol.o)
 .debug_ranges  0x00001e50       0xc8 c:/program files (x86)/microchip/xc32/v2.30/bin/bin/../../lib/gcc/pic32c/6.2.1/../../../../pic32c/lib\libc.a(lib_a-svfprintf.o)
 .debug_ranges  0x00001f18       0xf0 c:/program files (x86)/microchip/xc32/v2.30/bin/bin/../../lib/gcc/pic32c/6.2.1/../../../../pic32c/lib\libc.a(lib_a-vfprintf.o)
 .debug_ranges  0x00002008       0x30 c:/program files (x86)/microchip/xc32/v2.30/bin/bin/../../lib/gcc/pic32c/6.2.1/../../../../pic32c/lib\libc.a(lib_a-wsetup.o)
 .debug_ranges  0x00002038       0x18 c:/program files (x86)/microchip/xc32/v2.30/bin/bin/../../lib/gcc/pic32c/6.2.1/../../../../pic32c/lib\libc.a(lib_a-dtoa.o)
 .debug_ranges  0x00002050       0x50 c:/program files (x86)/microchip/xc32/v2.30/bin/bin/../../lib/gcc/pic32c/6.2.1/../../../../pic32c/lib\libc.a(lib_a-fflush.o)
 .debug_ranges  0x000020a0       0x38 c:/program files (x86)/microchip/xc32/v2.30/bin/bin/../../lib/gcc/pic32c/6.2.1/../../../../pic32c/lib\libc.a(lib_a-findfp.o)
 .debug_ranges  0x000020d8       0x18 c:/program files (x86)/microchip/xc32/v2.30/bin/bin/../../lib/gcc/pic32c/6.2.1/../../../../pic32c/lib\libc.a(lib_a-freer.o)
 .debug_ranges  0x000020f0       0x30 c:/program files (x86)/microchip/xc32/v2.30/bin/bin/../../lib/gcc/pic32c/6.2.1/../../../../pic32c/lib\libc.a(lib_a-fvwrite.o)
 .debug_ranges  0x00002120       0x18 c:/program files (x86)/microchip/xc32/v2.30/bin/bin/../../lib/gcc/pic32c/6.2.1/../../../../pic32c/lib\libc.a(lib_a-fwalk.o)
 .debug_ranges  0x00002138       0x50 c:/program files (x86)/microchip/xc32/v2.30/bin/bin/../../lib/gcc/pic32c/6.2.1/../../../../pic32c/lib\libc.a(lib_a-gdtoa-gethex.o)
 .debug_ranges  0x00002188       0x20 c:/program files (x86)/microchip/xc32/v2.30/bin/bin/../../lib/gcc/pic32c/6.2.1/../../../../pic32c/lib\libc.a(lib_a-gdtoa-hexnan.o)
 .debug_ranges  0x000021a8       0x20 c:/program files (x86)/microchip/xc32/v2.30/bin/bin/../../lib/gcc/pic32c/6.2.1/../../../../pic32c/lib\libc.a(lib_a-localeconv.o)
 .debug_ranges  0x000021c8       0x30 c:/program files (x86)/microchip/xc32/v2.30/bin/bin/../../lib/gcc/pic32c/6.2.1/../../../../pic32c/lib\libc.a(lib_a-locale.o)
 .debug_ranges  0x000021f8       0x30 c:/program files (x86)/microchip/xc32/v2.30/bin/bin/../../lib/gcc/pic32c/6.2.1/../../../../pic32c/lib\libc.a(lib_a-makebuf.o)
 .debug_ranges  0x00002228       0x18 c:/program files (x86)/microchip/xc32/v2.30/bin/bin/../../lib/gcc/pic32c/6.2.1/../../../../pic32c/lib\libc.a(lib_a-malloc.o)
 .debug_ranges  0x00002240       0x28 c:/program files (x86)/microchip/xc32/v2.30/bin/bin/../../lib/gcc/pic32c/6.2.1/../../../../pic32c/lib\libc.a(lib_a-mallocr.o)
 .debug_ranges  0x00002268       0x18 c:/program files (x86)/microchip/xc32/v2.30/bin/bin/../../lib/gcc/pic32c/6.2.1/../../../../pic32c/lib\libc.a(lib_a-mbtowc_r.o)
 .debug_ranges  0x00002280       0x10 c:/program files (x86)/microchip/xc32/v2.30/bin/bin/../../lib/gcc/pic32c/6.2.1/../../../../pic32c/lib\libc.a(lib_a-memchr-stub.o)
 .debug_ranges  0x00002290       0x10 c:/program files (x86)/microchip/xc32/v2.30/bin/bin/../../lib/gcc/pic32c/6.2.1/../../../../pic32c/lib\libc.a(lib_a-memmove.o)
 .debug_ranges  0x000022a0       0x10 c:/program files (x86)/microchip/xc32/v2.30/bin/bin/../../lib/gcc/pic32c/6.2.1/../../../../pic32c/lib\libc.a(lib_a-mlock.o)
 .debug_ranges  0x000022b0       0xa0 c:/program files (x86)/microchip/xc32/v2.30/bin/bin/../../lib/gcc/pic32c/6.2.1/../../../../pic32c/lib\libc.a(lib_a-mprec.o)
 .debug_ranges  0x00002350       0xa8 c:/program files (x86)/microchip/xc32/v2.30/bin/bin/../../lib/gcc/pic32c/6.2.1/../../../../pic32c/lib\libc.a(lib_a-reallocr.o)
 .debug_ranges  0x000023f8       0x10 c:/program files (x86)/microchip/xc32/v2.30/bin/bin/../../lib/gcc/pic32c/6.2.1/../../../../pic32c/lib\libc.a(lib_a-sbrkr.o)
 .debug_ranges  0x00002408       0x10 c:/program files (x86)/microchip/xc32/v2.30/bin/bin/../../lib/gcc/pic32c/6.2.1/../../../../pic32c/lib\libc.a(lib_a-s_frexp.o)
 .debug_ranges  0x00002418       0x30 c:/program files (x86)/microchip/xc32/v2.30/bin/bin/../../lib/gcc/pic32c/6.2.1/../../../../pic32c/lib\libc.a(lib_a-stdio.o)
 .debug_ranges  0x00002448       0x10 c:/program files (x86)/microchip/xc32/v2.30/bin/bin/../../lib/gcc/pic32c/6.2.1/../../../../pic32c/lib\libc.a(lib_a-strncmp.o)
 .debug_ranges  0x00002458       0x58 c:/program files (x86)/microchip/xc32/v2.30/bin/bin/../../lib/gcc/pic32c/6.2.1/../../../../pic32c/lib\libc.a(lib_a-svfiprintf.o)
 .debug_ranges  0x000024b0       0x58 c:/program files (x86)/microchip/xc32/v2.30/bin/bin/../../lib/gcc/pic32c/6.2.1/../../../../pic32c/lib\libc.a(lib_a-vfiprintf.o)
 .debug_ranges  0x00002508       0x18 c:/program files (x86)/microchip/xc32/v2.30/bin/bin/../../lib/gcc/pic32c/6.2.1/../../../../pic32c/lib\libc.a(lib_a-wctomb_r.o)
 .debug_ranges  0x00002520       0x10 c:/program files (x86)/microchip/xc32/v2.30/bin/bin/../../lib/gcc/pic32c/6.2.1/../../../../pic32c/lib\libc.a(lib_a-writer.o)
 .debug_ranges  0x00002530       0x40 c:/program files (x86)/microchip/xc32/v2.30/bin/bin/../../lib/gcc/pic32c/6.2.1/../../../../pic32c/lib\libc.a(lib_a-callocr.o)
 .debug_ranges  0x00002570       0x10 c:/program files (x86)/microchip/xc32/v2.30/bin/bin/../../lib/gcc/pic32c/6.2.1/../../../../pic32c/lib\libc.a(lib_a-closer.o)
 .debug_ranges  0x00002580       0x18 c:/program files (x86)/microchip/xc32/v2.30/bin/bin/../../lib/gcc/pic32c/6.2.1/../../../../pic32c/lib\libc.a(lib_a-fclose.o)
 .debug_ranges  0x00002598       0x38 c:/program files (x86)/microchip/xc32/v2.30/bin/bin/../../lib/gcc/pic32c/6.2.1/../../../../pic32c/lib\libc.a(lib_a-fputwc.o)
 .debug_ranges  0x000025d0       0x10 c:/program files (x86)/microchip/xc32/v2.30/bin/bin/../../lib/gcc/pic32c/6.2.1/../../../../pic32c/lib\libc.a(lib_a-fstatr.o)
 .debug_ranges  0x000025e0       0x10 c:/program files (x86)/microchip/xc32/v2.30/bin/bin/../../lib/gcc/pic32c/6.2.1/../../../../pic32c/lib\libc.a(lib_a-isattyr.o)
 .debug_ranges  0x000025f0       0x10 c:/program files (x86)/microchip/xc32/v2.30/bin/bin/../../lib/gcc/pic32c/6.2.1/../../../../pic32c/lib\libc.a(lib_a-lseekr.o)
 .debug_ranges  0x00002600       0x10 c:/program files (x86)/microchip/xc32/v2.30/bin/bin/../../lib/gcc/pic32c/6.2.1/../../../../pic32c/lib\libc.a(lib_a-readr.o)
 .debug_ranges  0x00002610       0x48 c:/program files (x86)/microchip/xc32/v2.30/bin/bin/../../lib/gcc/pic32c/6.2.1/../../../../pic32c/lib\libc.a(lib_a-reent.o)
 .debug_ranges  0x00002658       0x18 c:/program files (x86)/microchip/xc32/v2.30/bin/bin/../../lib/gcc/pic32c/6.2.1/../../../../pic32c/lib\libc.a(lib_a-wbuf.o)
 .debug_ranges  0x00002670       0x30 c:/program files (x86)/microchip/xc32/v2.30/bin/bin/../../lib/gcc/pic32c/6.2.1/../../../../pic32c/lib\libc.a(lib_a-wcrtomb.o)
 .debug_ranges  0x000026a0       0x10 c:/program files (x86)/microchip/xc32/v2.30/bin/bin/../../lib/gcc/pic32c/6.2.1/../../../../pic32c/lib\libpic32c.a(_close.o)
 .debug_ranges  0x000026b0       0x10 c:/program files (x86)/microchip/xc32/v2.30/bin/bin/../../lib/gcc/pic32c/6.2.1/../../../../pic32c/lib\libpic32c.a(_fstat.o)
 .debug_ranges  0x000026c0       0x10 c:/program files (x86)/microchip/xc32/v2.30/bin/bin/../../lib/gcc/pic32c/6.2.1/../../../../pic32c/lib\libpic32c.a(_isatty.o)
 .debug_ranges  0x000026d0       0x10 c:/program files (x86)/microchip/xc32/v2.30/bin/bin/../../lib/gcc/pic32c/6.2.1/../../../../pic32c/lib\libpic32c.a(_lseek.o)
 .debug_ranges  0x000026e0       0x10 c:/program files (x86)/microchip/xc32/v2.30/bin/bin/../../lib/gcc/pic32c/6.2.1/../../../../pic32c/lib\libpic32c.a(_read.o)
 .debug_ranges  0x000026f0       0x10 c:/program files (x86)/microchip/xc32/v2.30/bin/bin/../../lib/gcc/pic32c/6.2.1/../../../../pic32c/lib\libpic32c.a(sbrk.o)
 .debug_ranges  0x00002700       0x10 c:/program files (x86)/microchip/xc32/v2.30/bin/bin/../../lib/gcc/pic32c/6.2.1/../../../../pic32c/lib\libpic32c.a(_write.o)
 .debug_ranges  0x00002710       0x10 c:/program files (x86)/microchip/xc32/v2.30/bin/bin/../../lib/gcc/pic32c/6.2.1/../../../../pic32c/lib\libpic32c.a(close.o)
 .debug_ranges  0x00002720       0x10 c:/program files (x86)/microchip/xc32/v2.30/bin/bin/../../lib/gcc/pic32c/6.2.1/../../../../pic32c/lib\libpic32c.a(fstat.o)
 .debug_ranges  0x00002730       0x10 c:/program files (x86)/microchip/xc32/v2.30/bin/bin/../../lib/gcc/pic32c/6.2.1/../../../../pic32c/lib\libpic32c.a(isatty.o)
 .debug_ranges  0x00002740       0x10 c:/program files (x86)/microchip/xc32/v2.30/bin/bin/../../lib/gcc/pic32c/6.2.1/../../../../pic32c/lib\libpic32c.a(lseek.o)
 .debug_ranges  0x00002750       0x10 c:/program files (x86)/microchip/xc32/v2.30/bin/bin/../../lib/gcc/pic32c/6.2.1/../../../../pic32c/lib\libpic32c.a(read.o)
 .debug_ranges  0x00002760       0x10 c:/program files (x86)/microchip/xc32/v2.30/bin/bin/../../lib/gcc/pic32c/6.2.1/../../../../pic32c/lib\libpic32c.a(write.o)
 .debug_ranges  0x00002770       0x40 c:/program files (x86)/microchip/xc32/v2.30/bin/bin/../../lib/gcc/pic32c/6.2.1\libgcc.a(unorddf2.o)

.debug_line     0x00000000    0x175ed
 .debug_line    0x00000000      0x7d9 build/default/production/_ext/869808652/drv_usart.o
 .debug_line    0x000007d9      0x39d build/default/production/_ext/60165182/plib_can0.o
 .debug_line    0x00000b76      0x1a2 build/default/production/_ext/1984496892/plib_clock.o
 .debug_line    0x00000d18      0x1bc build/default/production/_ext/60167341/plib_eic.o
 .debug_line    0x00000ed4       0x64 build/default/production/_ext/1986646378/plib_evsys.o
 .debug_line    0x00000f38      0x23c build/default/production/_ext/1865468468/plib_nvic.o
 .debug_line    0x00001174      0x2d3 build/default/production/_ext/1593096446/plib_nvmctrl.o
 .debug_line    0x00001447      0x227 build/default/production/_ext/1865521619/plib_port.o
 .debug_line    0x0000166e      0x28b build/default/production/_ext/60180175/plib_rtc_clock.o
 .debug_line    0x000018f9      0x2c3 build/default/production/_ext/17022449/plib_sercom0_spi_master.o
 .debug_line    0x00001bbc      0x3d4 build/default/production/_ext/504274921/plib_sercom3_usart.o
 .debug_line    0x00001f90      0x348 build/default/production/_ext/504274921/plib_sercom4_usart.o
 .debug_line    0x000022d8      0x3d4 build/default/production/_ext/504274921/plib_sercom2_usart.o
 .debug_line    0x000026ac      0x250 build/default/production/_ext/1827571544/plib_systick.o
 .debug_line    0x000028fc      0x22b build/default/production/_ext/829342655/plib_tc4.o
 .debug_line    0x00002b27      0x22b build/default/production/_ext/829342655/plib_tc0.o
 .debug_line    0x00002d52      0x22b build/default/production/_ext/829342655/plib_tc3.o
 .debug_line    0x00002f7d      0x18d build/default/production/_ext/60184501/plib_wdt.o
 .debug_line    0x0000310a      0x2c4 build/default/production/_ext/163028504/xc32_monitor.o
 .debug_line    0x000033ce      0x25b build/default/production/_ext/1881668453/sys_int.o
 .debug_line    0x00003629      0x6a3 build/default/production/_ext/1171490990/initialization.o
 .debug_line    0x00003ccc      0x25f build/default/production/_ext/1171490990/interrupts.o
 .debug_line    0x00003f2b      0x25a build/default/production/_ext/1171490990/exceptions.o
 .debug_line    0x00004185      0x194 build/default/production/_ext/1171490990/startup_xc32.o
 .debug_line    0x00004319      0x260 build/default/production/_ext/1171490990/tasks.o
 .debug_line    0x00004579      0x390 build/default/production/_ext/1360937237/main.o
 .debug_line    0x00004909      0x1f9 build/default/production/_ext/1360937237/myapp.o
 .debug_line    0x00004b02      0x614 build/default/production/_ext/1360937237/app.o
 .debug_line    0x00005116      0x626 build/default/production/_ext/1360937237/at_engine.o
 .debug_line    0x0000573c      0x2ab build/default/production/_ext/1360937237/at_parser.o
 .debug_line    0x000059e7      0x264 build/default/production/_ext/1360937237/dev_adapter.o
 .debug_line    0x00005c4b      0x3b9 build/default/production/_ext/1360937237/dev_hal.o
 .debug_line    0x00006004      0x1ce build/default/production/_ext/1360937237/dev_timer.o
 .debug_line    0x000061d2      0x801 build/default/production/_ext/1360937237/gsm_gps.o
 .debug_line    0x000069d3      0x3ca build/default/production/_ext/1360937237/app2.o
 .debug_line    0x00006d9d      0x9ff build/default/production/_ext/1360937237/app3.o
 .debug_line    0x0000779c      0x6ae build/default/production/_ext/1360937237/ext_flash.o
 .debug_line    0x00007e4a      0x4b0 build/default/production/_ext/1360937237/app4.o
 .debug_line    0x000082fa       0xe3 c:/program files (x86)/microchip/xc32/v2.30/bin/bin/../../lib/gcc/pic32c/6.2.1/../../../../pic32c/lib\libpic32c.a(data_init.o)
 .debug_line    0x000083dd       0xb3 c:/program files (x86)/microchip/xc32/v2.30/bin/bin/../../lib/gcc/pic32c/6.2.1\libgcc.a(_udivsi3.o)
 .debug_line    0x00008490       0xc1 c:/program files (x86)/microchip/xc32/v2.30/bin/bin/../../lib/gcc/pic32c/6.2.1\libgcc.a(_divsi3.o)
 .debug_line    0x00008551       0x9c c:/program files (x86)/microchip/xc32/v2.30/bin/bin/../../lib/gcc/pic32c/6.2.1\libgcc.a(_dvmd_tls.o)
 .debug_line    0x000085ed       0xb4 c:/program files (x86)/microchip/xc32/v2.30/bin/bin/../../lib/gcc/pic32c/6.2.1\libgcc.a(_arm_cmpdf2.o)
 .debug_line    0x000086a1       0xb1 c:/program files (x86)/microchip/xc32/v2.30/bin/bin/../../lib/gcc/pic32c/6.2.1\libgcc.a(_arm_cmpsf2.o)
 .debug_line    0x00008752       0xa7 c:/program files (x86)/microchip/xc32/v2.30/bin/bin/../../lib/gcc/pic32c/6.2.1\libgcc.a(_aeabi_uldivmod.o)
 .debug_line    0x000087f9      0x296 c:/program files (x86)/microchip/xc32/v2.30/bin/bin/../../lib/gcc/pic32c/6.2.1\libgcc.a(_muldi3.o)
 .debug_line    0x00008a8f      0x28e c:/program files (x86)/microchip/xc32/v2.30/bin/bin/../../lib/gcc/pic32c/6.2.1\libgcc.a(_fixunssfsi.o)
 .debug_line    0x00008d1d      0x28c c:/program files (x86)/microchip/xc32/v2.30/bin/bin/../../lib/gcc/pic32c/6.2.1\libgcc.a(_fixunsdfsi.o)
 .debug_line    0x00008fa9      0x2b2 c:/program files (x86)/microchip/xc32/v2.30/bin/bin/../../lib/gcc/pic32c/6.2.1\libgcc.a(_udivmoddi4.o)
 .debug_line    0x0000925b      0x197 c:/program files (x86)/microchip/xc32/v2.30/bin/bin/../../lib/gcc/pic32c/6.2.1\libgcc.a(addsf3.o)
 .debug_line    0x000093f2      0x161 c:/program files (x86)/microchip/xc32/v2.30/bin/bin/../../lib/gcc/pic32c/6.2.1\libgcc.a(divsf3.o)
 .debug_line    0x00009553      0x13e c:/program files (x86)/microchip/xc32/v2.30/bin/bin/../../lib/gcc/pic32c/6.2.1\libgcc.a(eqsf2.o)
 .debug_line    0x00009691      0x149 c:/program files (x86)/microchip/xc32/v2.30/bin/bin/../../lib/gcc/pic32c/6.2.1\libgcc.a(gesf2.o)
 .debug_line    0x000097da      0x147 c:/program files (x86)/microchip/xc32/v2.30/bin/bin/../../lib/gcc/pic32c/6.2.1\libgcc.a(lesf2.o)
 .debug_line    0x00009921      0x19a c:/program files (x86)/microchip/xc32/v2.30/bin/bin/../../lib/gcc/pic32c/6.2.1\libgcc.a(subsf3.o)
 .debug_line    0x00009abb      0x12a c:/program files (x86)/microchip/xc32/v2.30/bin/bin/../../lib/gcc/pic32c/6.2.1\libgcc.a(fixsfsi.o)
 .debug_line    0x00009be5      0x132 c:/program files (x86)/microchip/xc32/v2.30/bin/bin/../../lib/gcc/pic32c/6.2.1\libgcc.a(floatsisf.o)
 .debug_line    0x00009d17      0x137 c:/program files (x86)/microchip/xc32/v2.30/bin/bin/../../lib/gcc/pic32c/6.2.1\libgcc.a(floatunsisf.o)
 .debug_line    0x00009e4e      0x1c8 c:/program files (x86)/microchip/xc32/v2.30/bin/bin/../../lib/gcc/pic32c/6.2.1\libgcc.a(adddf3.o)
 .debug_line    0x0000a016      0x1a4 c:/program files (x86)/microchip/xc32/v2.30/bin/bin/../../lib/gcc/pic32c/6.2.1\libgcc.a(divdf3.o)
 .debug_line    0x0000a1ba      0x14c c:/program files (x86)/microchip/xc32/v2.30/bin/bin/../../lib/gcc/pic32c/6.2.1\libgcc.a(eqdf2.o)
 .debug_line    0x0000a306      0x14c c:/program files (x86)/microchip/xc32/v2.30/bin/bin/../../lib/gcc/pic32c/6.2.1\libgcc.a(gedf2.o)
 .debug_line    0x0000a452      0x14f c:/program files (x86)/microchip/xc32/v2.30/bin/bin/../../lib/gcc/pic32c/6.2.1\libgcc.a(ledf2.o)
 .debug_line    0x0000a5a1      0x182 c:/program files (x86)/microchip/xc32/v2.30/bin/bin/../../lib/gcc/pic32c/6.2.1\libgcc.a(muldf3.o)
 .debug_line    0x0000a723      0x1cd c:/program files (x86)/microchip/xc32/v2.30/bin/bin/../../lib/gcc/pic32c/6.2.1\libgcc.a(subdf3.o)
 .debug_line    0x0000a8f0      0x12f c:/program files (x86)/microchip/xc32/v2.30/bin/bin/../../lib/gcc/pic32c/6.2.1\libgcc.a(fixdfsi.o)
 .debug_line    0x0000aa1f      0x12a c:/program files (x86)/microchip/xc32/v2.30/bin/bin/../../lib/gcc/pic32c/6.2.1\libgcc.a(floatsidf.o)
 .debug_line    0x0000ab49      0x12c c:/program files (x86)/microchip/xc32/v2.30/bin/bin/../../lib/gcc/pic32c/6.2.1\libgcc.a(floatunsidf.o)
 .debug_line    0x0000ac75      0x145 c:/program files (x86)/microchip/xc32/v2.30/bin/bin/../../lib/gcc/pic32c/6.2.1\libgcc.a(extendsfdf2.o)
 .debug_line    0x0000adba      0x154 c:/program files (x86)/microchip/xc32/v2.30/bin/bin/../../lib/gcc/pic32c/6.2.1\libgcc.a(truncdfsf2.o)
 .debug_line    0x0000af0e       0xa4 c:/program files (x86)/microchip/xc32/v2.30/bin/bin/../../lib/gcc/pic32c/6.2.1\libgcc.a(_thumb1_case_uqi.o)
 .debug_line    0x0000afb2       0xa5 c:/program files (x86)/microchip/xc32/v2.30/bin/bin/../../lib/gcc/pic32c/6.2.1\libgcc.a(_thumb1_case_uhi.o)
 .debug_line    0x0000b057       0xa7 c:/program files (x86)/microchip/xc32/v2.30/bin/bin/../../lib/gcc/pic32c/6.2.1\libgcc.a(_lshrdi3.o)
 .debug_line    0x0000b0fe       0xa7 c:/program files (x86)/microchip/xc32/v2.30/bin/bin/../../lib/gcc/pic32c/6.2.1\libgcc.a(_ashldi3.o)
 .debug_line    0x0000b1a5       0xb0 c:/program files (x86)/microchip/xc32/v2.30/bin/bin/../../lib/gcc/pic32c/6.2.1\libgcc.a(_clzsi2.o)
 .debug_line    0x0000b255       0xa6 c:/program files (x86)/microchip/xc32/v2.30/bin/bin/../../lib/gcc/pic32c/6.2.1\libgcc.a(_clzdi2.o)
 .debug_line    0x0000b2fb      0x200 c:/program files (x86)/microchip/xc32/v2.30/bin/bin/../../lib/gcc/pic32c/6.2.1/../../../../pic32c/lib\libc.a(lib_a-atof.o)
 .debug_line    0x0000b4fb      0x210 c:/program files (x86)/microchip/xc32/v2.30/bin/bin/../../lib/gcc/pic32c/6.2.1/../../../../pic32c/lib\libc.a(lib_a-atol.o)
 .debug_line    0x0000b70b      0x17e c:/program files (x86)/microchip/xc32/v2.30/bin/bin/../../lib/gcc/pic32c/6.2.1/../../../../pic32c/lib\libc.a(lib_a-impure.o)
 .debug_line    0x0000b889      0x118 c:/program files (x86)/microchip/xc32/v2.30/bin/bin/../../lib/gcc/pic32c/6.2.1/../../../../pic32c/lib\libc.a(lib_a-init.o)
 .debug_line    0x0000b9a1      0x21c c:/program files (x86)/microchip/xc32/v2.30/bin/bin/../../lib/gcc/pic32c/6.2.1/../../../../pic32c/lib\libc.a(lib_a-memcpy-stub.o)
 .debug_line    0x0000bbbd      0x2ad c:/program files (x86)/microchip/xc32/v2.30/bin/bin/../../lib/gcc/pic32c/6.2.1/../../../../pic32c/lib\libc.a(lib_a-memset.o)
 .debug_line    0x0000be6a      0x256 c:/program files (x86)/microchip/xc32/v2.30/bin/bin/../../lib/gcc/pic32c/6.2.1/../../../../pic32c/lib\libc.a(lib_a-printf.o)
 .debug_line    0x0000c0c0      0x26b c:/program files (x86)/microchip/xc32/v2.30/bin/bin/../../lib/gcc/pic32c/6.2.1/../../../../pic32c/lib\libc.a(lib_a-puts.o)
 .debug_line    0x0000c32b      0x225 c:/program files (x86)/microchip/xc32/v2.30/bin/bin/../../lib/gcc/pic32c/6.2.1/../../../../pic32c/lib\libc.a(lib_a-setbuf.o)
 .debug_line    0x0000c550      0x27b c:/program files (x86)/microchip/xc32/v2.30/bin/bin/../../lib/gcc/pic32c/6.2.1/../../../../pic32c/lib\libc.a(lib_a-setvbuf.o)
 .debug_line    0x0000c7cb      0x27a c:/program files (x86)/microchip/xc32/v2.30/bin/bin/../../lib/gcc/pic32c/6.2.1/../../../../pic32c/lib\libc.a(lib_a-sprintf.o)
 .debug_line    0x0000ca45      0x20a c:/program files (x86)/microchip/xc32/v2.30/bin/bin/../../lib/gcc/pic32c/6.2.1/../../../../pic32c/lib\libc.a(lib_a-strcat.o)
 .debug_line    0x0000cc4f      0x209 c:/program files (x86)/microchip/xc32/v2.30/bin/bin/../../lib/gcc/pic32c/6.2.1/../../../../pic32c/lib\libc.a(lib_a-strchr.o)
 .debug_line    0x0000ce58       0xb1 c:/program files (x86)/microchip/xc32/v2.30/bin/bin/../../lib/gcc/pic32c/6.2.1/../../../../pic32c/lib\libc.a(lib_a-strcmp.o)
 .debug_line    0x0000cf09      0x205 c:/program files (x86)/microchip/xc32/v2.30/bin/bin/../../lib/gcc/pic32c/6.2.1/../../../../pic32c/lib\libc.a(lib_a-strcpy.o)
 .debug_line    0x0000d10e       0xb1 c:/program files (x86)/microchip/xc32/v2.30/bin/bin/../../lib/gcc/pic32c/6.2.1/../../../../pic32c/lib\libc.a(lib_a-strlen.o)
 .debug_line    0x0000d1bf      0x20f c:/program files (x86)/microchip/xc32/v2.30/bin/bin/../../lib/gcc/pic32c/6.2.1/../../../../pic32c/lib\libc.a(lib_a-strncpy.o)
 .debug_line    0x0000d3ce      0x212 c:/program files (x86)/microchip/xc32/v2.30/bin/bin/../../lib/gcc/pic32c/6.2.1/../../../../pic32c/lib\libc.a(lib_a-strstr.o)
 .debug_line    0x0000d5e0      0x709 c:/program files (x86)/microchip/xc32/v2.30/bin/bin/../../lib/gcc/pic32c/6.2.1/../../../../pic32c/lib\libc.a(lib_a-strtod.o)
 .debug_line    0x0000dce9      0x204 c:/program files (x86)/microchip/xc32/v2.30/bin/bin/../../lib/gcc/pic32c/6.2.1/../../../../pic32c/lib\libc.a(lib_a-strtok.o)
 .debug_line    0x0000deed      0x23b c:/program files (x86)/microchip/xc32/v2.30/bin/bin/../../lib/gcc/pic32c/6.2.1/../../../../pic32c/lib\libc.a(lib_a-strtok_r.o)
 .debug_line    0x0000e128      0x360 c:/program files (x86)/microchip/xc32/v2.30/bin/bin/../../lib/gcc/pic32c/6.2.1/../../../../pic32c/lib\libc.a(lib_a-strtol.o)
 .debug_line    0x0000e488      0x844 c:/program files (x86)/microchip/xc32/v2.30/bin/bin/../../lib/gcc/pic32c/6.2.1/../../../../pic32c/lib\libc.a(lib_a-svfprintf.o)
 .debug_line    0x0000eccc      0x898 c:/program files (x86)/microchip/xc32/v2.30/bin/bin/../../lib/gcc/pic32c/6.2.1/../../../../pic32c/lib\libc.a(lib_a-vfprintf.o)
 .debug_line    0x0000f564      0x263 c:/program files (x86)/microchip/xc32/v2.30/bin/bin/../../lib/gcc/pic32c/6.2.1/../../../../pic32c/lib\libc.a(lib_a-wsetup.o)
 .debug_line    0x0000f7c7      0x661 c:/program files (x86)/microchip/xc32/v2.30/bin/bin/../../lib/gcc/pic32c/6.2.1/../../../../pic32c/lib\libc.a(lib_a-dtoa.o)
 .debug_line    0x0000fe28      0x2ce c:/program files (x86)/microchip/xc32/v2.30/bin/bin/../../lib/gcc/pic32c/6.2.1/../../../../pic32c/lib\libc.a(lib_a-fflush.o)
 .debug_line    0x000100f6      0x305 c:/program files (x86)/microchip/xc32/v2.30/bin/bin/../../lib/gcc/pic32c/6.2.1/../../../../pic32c/lib\libc.a(lib_a-findfp.o)
 .debug_line    0x000103fb      0x29d c:/program files (x86)/microchip/xc32/v2.30/bin/bin/../../lib/gcc/pic32c/6.2.1/../../../../pic32c/lib\libc.a(lib_a-freer.o)
 .debug_line    0x00010698      0x2f6 c:/program files (x86)/microchip/xc32/v2.30/bin/bin/../../lib/gcc/pic32c/6.2.1/../../../../pic32c/lib\libc.a(lib_a-fvwrite.o)
 .debug_line    0x0001098e      0x278 c:/program files (x86)/microchip/xc32/v2.30/bin/bin/../../lib/gcc/pic32c/6.2.1/../../../../pic32c/lib\libc.a(lib_a-fwalk.o)
 .debug_line    0x00010c06      0x4c1 c:/program files (x86)/microchip/xc32/v2.30/bin/bin/../../lib/gcc/pic32c/6.2.1/../../../../pic32c/lib\libc.a(lib_a-gdtoa-gethex.o)
 .debug_line    0x000110c7      0x346 c:/program files (x86)/microchip/xc32/v2.30/bin/bin/../../lib/gcc/pic32c/6.2.1/../../../../pic32c/lib\libc.a(lib_a-gdtoa-hexnan.o)
 .debug_line    0x0001140d      0x268 c:/program files (x86)/microchip/xc32/v2.30/bin/bin/../../lib/gcc/pic32c/6.2.1/../../../../pic32c/lib\libc.a(lib_a-localeconv.o)
 .debug_line    0x00011675      0x32f c:/program files (x86)/microchip/xc32/v2.30/bin/bin/../../lib/gcc/pic32c/6.2.1/../../../../pic32c/lib\libc.a(lib_a-locale.o)
 .debug_line    0x000119a4      0x330 c:/program files (x86)/microchip/xc32/v2.30/bin/bin/../../lib/gcc/pic32c/6.2.1/../../../../pic32c/lib\libc.a(lib_a-makebuf.o)
 .debug_line    0x00011cd4      0x224 c:/program files (x86)/microchip/xc32/v2.30/bin/bin/../../lib/gcc/pic32c/6.2.1/../../../../pic32c/lib\libc.a(lib_a-malloc.o)
 .debug_line    0x00011ef8      0x34d c:/program files (x86)/microchip/xc32/v2.30/bin/bin/../../lib/gcc/pic32c/6.2.1/../../../../pic32c/lib\libc.a(lib_a-mallocr.o)
 .debug_line    0x00012245      0x2d9 c:/program files (x86)/microchip/xc32/v2.30/bin/bin/../../lib/gcc/pic32c/6.2.1/../../../../pic32c/lib\libc.a(lib_a-mbtowc_r.o)
 .debug_line    0x0001251e      0x21c c:/program files (x86)/microchip/xc32/v2.30/bin/bin/../../lib/gcc/pic32c/6.2.1/../../../../pic32c/lib\libc.a(lib_a-memchr-stub.o)
 .debug_line    0x0001273a      0x2b9 c:/program files (x86)/microchip/xc32/v2.30/bin/bin/../../lib/gcc/pic32c/6.2.1/../../../../pic32c/lib\libc.a(lib_a-memmove.o)
 .debug_line    0x000129f3      0x18e c:/program files (x86)/microchip/xc32/v2.30/bin/bin/../../lib/gcc/pic32c/6.2.1/../../../../pic32c/lib\libc.a(lib_a-mlock.o)
 .debug_line    0x00012b81      0x6e5 c:/program files (x86)/microchip/xc32/v2.30/bin/bin/../../lib/gcc/pic32c/6.2.1/../../../../pic32c/lib\libc.a(lib_a-mprec.o)
 .debug_line    0x00013266      0x25f c:/program files (x86)/microchip/xc32/v2.30/bin/bin/../../lib/gcc/pic32c/6.2.1/../../../../pic32c/lib\libc.a(lib_a-reallocr.o)
 .debug_line    0x000134c5      0x214 c:/program files (x86)/microchip/xc32/v2.30/bin/bin/../../lib/gcc/pic32c/6.2.1/../../../../pic32c/lib\libc.a(lib_a-sbrkr.o)
 .debug_line    0x000136d9      0x30c c:/program files (x86)/microchip/xc32/v2.30/bin/bin/../../lib/gcc/pic32c/6.2.1/../../../../pic32c/lib\libc.a(lib_a-s_frexp.o)
 .debug_line    0x000139e5      0x2a3 c:/program files (x86)/microchip/xc32/v2.30/bin/bin/../../lib/gcc/pic32c/6.2.1/../../../../pic32c/lib\libc.a(lib_a-stdio.o)
 .debug_line    0x00013c88      0x20d c:/program files (x86)/microchip/xc32/v2.30/bin/bin/../../lib/gcc/pic32c/6.2.1/../../../../pic32c/lib\libc.a(lib_a-strncmp.o)
 .debug_line    0x00013e95      0x699 c:/program files (x86)/microchip/xc32/v2.30/bin/bin/../../lib/gcc/pic32c/6.2.1/../../../../pic32c/lib\libc.a(lib_a-svfiprintf.o)
 .debug_line    0x0001452e      0x6ab c:/program files (x86)/microchip/xc32/v2.30/bin/bin/../../lib/gcc/pic32c/6.2.1/../../../../pic32c/lib\libc.a(lib_a-vfiprintf.o)
 .debug_line    0x00014bd9      0x2cf c:/program files (x86)/microchip/xc32/v2.30/bin/bin/../../lib/gcc/pic32c/6.2.1/../../../../pic32c/lib\libc.a(lib_a-wctomb_r.o)
 .debug_line    0x00014ea8      0x211 c:/program files (x86)/microchip/xc32/v2.30/bin/bin/../../lib/gcc/pic32c/6.2.1/../../../../pic32c/lib\libc.a(lib_a-writer.o)
 .debug_line    0x000150b9      0x1bd c:/program files (x86)/microchip/xc32/v2.30/bin/bin/../../lib/gcc/pic32c/6.2.1/../../../../pic32c/lib\libc.a(lib_a-callocr.o)
 .debug_line    0x00015276      0x215 c:/program files (x86)/microchip/xc32/v2.30/bin/bin/../../lib/gcc/pic32c/6.2.1/../../../../pic32c/lib\libc.a(lib_a-closer.o)
 .debug_line    0x0001548b      0x21e c:/program files (x86)/microchip/xc32/v2.30/bin/bin/../../lib/gcc/pic32c/6.2.1/../../../../pic32c/lib\libc.a(lib_a-ctype_.o)
 .debug_line    0x000156a9      0x253 c:/program files (x86)/microchip/xc32/v2.30/bin/bin/../../lib/gcc/pic32c/6.2.1/../../../../pic32c/lib\libc.a(lib_a-fclose.o)
 .debug_line    0x000158fc      0x299 c:/program files (x86)/microchip/xc32/v2.30/bin/bin/../../lib/gcc/pic32c/6.2.1/../../../../pic32c/lib\libc.a(lib_a-fputwc.o)
 .debug_line    0x00015b95      0x2c3 c:/program files (x86)/microchip/xc32/v2.30/bin/bin/../../lib/gcc/pic32c/6.2.1/../../../../pic32c/lib\libc.a(lib_a-fstatr.o)
 .debug_line    0x00015e58      0x216 c:/program files (x86)/microchip/xc32/v2.30/bin/bin/../../lib/gcc/pic32c/6.2.1/../../../../pic32c/lib\libc.a(lib_a-isattyr.o)
 .debug_line    0x0001606e      0x211 c:/program files (x86)/microchip/xc32/v2.30/bin/bin/../../lib/gcc/pic32c/6.2.1/../../../../pic32c/lib\libc.a(lib_a-lseekr.o)
 .debug_line    0x0001627f      0x210 c:/program files (x86)/microchip/xc32/v2.30/bin/bin/../../lib/gcc/pic32c/6.2.1/../../../../pic32c/lib\libc.a(lib_a-readr.o)
 .debug_line    0x0001648f      0x238 c:/program files (x86)/microchip/xc32/v2.30/bin/bin/../../lib/gcc/pic32c/6.2.1/../../../../pic32c/lib\libc.a(lib_a-reent.o)
 .debug_line    0x000166c7      0x273 c:/program files (x86)/microchip/xc32/v2.30/bin/bin/../../lib/gcc/pic32c/6.2.1/../../../../pic32c/lib\libc.a(lib_a-wbuf.o)
 .debug_line    0x0001693a      0x2ee c:/program files (x86)/microchip/xc32/v2.30/bin/bin/../../lib/gcc/pic32c/6.2.1/../../../../pic32c/lib\libc.a(lib_a-wcrtomb.o)
 .debug_line    0x00016c28       0x9d c:/program files (x86)/microchip/xc32/v2.30/bin/bin/../../lib/gcc/pic32c/6.2.1/../../../../pic32c/lib\libpic32c.a(_close.o)
 .debug_line    0x00016cc5       0x9d c:/program files (x86)/microchip/xc32/v2.30/bin/bin/../../lib/gcc/pic32c/6.2.1/../../../../pic32c/lib\libpic32c.a(_fstat.o)
 .debug_line    0x00016d62       0x9e c:/program files (x86)/microchip/xc32/v2.30/bin/bin/../../lib/gcc/pic32c/6.2.1/../../../../pic32c/lib\libpic32c.a(_isatty.o)
 .debug_line    0x00016e00       0x9d c:/program files (x86)/microchip/xc32/v2.30/bin/bin/../../lib/gcc/pic32c/6.2.1/../../../../pic32c/lib\libpic32c.a(_lseek.o)
 .debug_line    0x00016e9d       0x9c c:/program files (x86)/microchip/xc32/v2.30/bin/bin/../../lib/gcc/pic32c/6.2.1/../../../../pic32c/lib\libpic32c.a(_read.o)
 .debug_line    0x00016f39       0xa4 c:/program files (x86)/microchip/xc32/v2.30/bin/bin/../../lib/gcc/pic32c/6.2.1/../../../../pic32c/lib\libpic32c.a(sbrk.o)
 .debug_line    0x00016fdd       0x9d c:/program files (x86)/microchip/xc32/v2.30/bin/bin/../../lib/gcc/pic32c/6.2.1/../../../../pic32c/lib\libpic32c.a(_write.o)
 .debug_line    0x0001707a       0x9b c:/program files (x86)/microchip/xc32/v2.30/bin/bin/../../lib/gcc/pic32c/6.2.1/../../../../pic32c/lib\libpic32c.a(close.o)
 .debug_line    0x00017115      0x104 c:/program files (x86)/microchip/xc32/v2.30/bin/bin/../../lib/gcc/pic32c/6.2.1/../../../../pic32c/lib\libpic32c.a(fstat.o)
 .debug_line    0x00017219       0x9c c:/program files (x86)/microchip/xc32/v2.30/bin/bin/../../lib/gcc/pic32c/6.2.1/../../../../pic32c/lib\libpic32c.a(isatty.o)
 .debug_line    0x000172b5       0x9b c:/program files (x86)/microchip/xc32/v2.30/bin/bin/../../lib/gcc/pic32c/6.2.1/../../../../pic32c/lib\libpic32c.a(lseek.o)
 .debug_line    0x00017350       0xae c:/program files (x86)/microchip/xc32/v2.30/bin/bin/../../lib/gcc/pic32c/6.2.1/../../../../pic32c/lib\libpic32c.a(read.o)
 .debug_line    0x000173fe       0xae c:/program files (x86)/microchip/xc32/v2.30/bin/bin/../../lib/gcc/pic32c/6.2.1/../../../../pic32c/lib\libpic32c.a(write.o)
 .debug_line    0x000174ac      0x141 c:/program files (x86)/microchip/xc32/v2.30/bin/bin/../../lib/gcc/pic32c/6.2.1\libgcc.a(unorddf2.o)

.debug_str      0x00000000     0x3474
 .debug_str     0x00000000      0x1cd build/default/production/_ext/869808652/drv_usart.o
 .debug_str     0x000001cd       0x87 build/default/production/_ext/60165182/plib_can0.o
 .debug_str     0x00000254       0x29 build/default/production/_ext/1984496892/plib_clock.o
 .debug_str     0x0000027d        0x9 build/default/production/_ext/60167341/plib_eic.o
 .debug_str     0x00000286        0x0 build/default/production/_ext/1986646378/plib_evsys.o
 .debug_str     0x00000286        0xa build/default/production/_ext/1865468468/plib_nvic.o
 .debug_str     0x00000290       0x1f build/default/production/_ext/1593096446/plib_nvmctrl.o
 .debug_str     0x000002af        0xb build/default/production/_ext/1865521619/plib_port.o
 .debug_str     0x000002ba       0xaa build/default/production/_ext/60180175/plib_rtc_clock.o
 .debug_str     0x00000364      0x11d build/default/production/_ext/17022449/plib_sercom0_spi_master.o
 .debug_str     0x00000481      0x10e build/default/production/_ext/504274921/plib_sercom3_usart.o
 .debug_str     0x0000058f      0x105 build/default/production/_ext/504274921/plib_sercom4_usart.o
 .debug_str     0x00000694      0x10e build/default/production/_ext/504274921/plib_sercom2_usart.o
 .debug_str     0x000007a2       0x45 build/default/production/_ext/1827571544/plib_systick.o
 .debug_str     0x000007e7       0xbb build/default/production/_ext/829342655/plib_tc4.o
 .debug_str     0x000008a2       0xbb build/default/production/_ext/829342655/plib_tc0.o
 .debug_str     0x0000095d       0xbb build/default/production/_ext/829342655/plib_tc3.o
 .debug_str     0x00000a18        0x0 build/default/production/_ext/60184501/plib_wdt.o
 .debug_str     0x00000a18       0x41 build/default/production/_ext/163028504/xc32_monitor.o
 .debug_str     0x00000a59       0x32 build/default/production/_ext/1881668453/sys_int.o
 .debug_str     0x00000a8b      0x1d6 build/default/production/_ext/1171490990/initialization.o
 .debug_str     0x00000c61       0x1a build/default/production/_ext/1171490990/interrupts.o
 .debug_str     0x00000c7b       0x1a build/default/production/_ext/1171490990/exceptions.o
 .debug_str     0x00000c95       0x2f build/default/production/_ext/1171490990/startup_xc32.o
 .debug_str     0x00000cc4       0x45 build/default/production/_ext/1171490990/tasks.o
 .debug_str     0x00000d09       0xde build/default/production/_ext/1360937237/main.o
 .debug_str     0x00000de7       0x2f build/default/production/_ext/1360937237/myapp.o
 .debug_str     0x00000e16      0x1c4 build/default/production/_ext/1360937237/app.o
 .debug_str     0x00000fda      0x1b9 build/default/production/_ext/1360937237/at_engine.o
 .debug_str     0x00001193       0x1f build/default/production/_ext/1360937237/at_parser.o
 .debug_str     0x000011b2       0x3e build/default/production/_ext/1360937237/dev_adapter.o
 .debug_str     0x000011f0       0x75 build/default/production/_ext/1360937237/dev_hal.o
 .debug_str     0x00001265        0xe build/default/production/_ext/1360937237/dev_timer.o
 .debug_str     0x00001273      0x1b3 build/default/production/_ext/1360937237/gsm_gps.o
 .debug_str     0x00001426       0xa2 build/default/production/_ext/1360937237/app2.o
 .debug_str     0x000014c8      0x1ff build/default/production/_ext/1360937237/app3.o
 .debug_str     0x000016c7       0xa8 build/default/production/_ext/1360937237/ext_flash.o
 .debug_str     0x0000176f       0xbb build/default/production/_ext/1360937237/app4.o
 .debug_str     0x0000182a        0x0 c:/program files (x86)/microchip/xc32/v2.30/bin/bin/../../lib/gcc/pic32c/6.2.1/../../../../pic32c/lib\libpic32c.a(data_init.o)
 .debug_str     0x0000182a        0x0 c:/program files (x86)/microchip/xc32/v2.30/bin/bin/../../lib/gcc/pic32c/6.2.1\libgcc.a(_muldi3.o)
 .debug_str     0x0000182a        0x0 c:/program files (x86)/microchip/xc32/v2.30/bin/bin/../../lib/gcc/pic32c/6.2.1\libgcc.a(_fixunssfsi.o)
 .debug_str     0x0000182a        0x0 c:/program files (x86)/microchip/xc32/v2.30/bin/bin/../../lib/gcc/pic32c/6.2.1\libgcc.a(_fixunsdfsi.o)
 .debug_str     0x0000182a        0x0 c:/program files (x86)/microchip/xc32/v2.30/bin/bin/../../lib/gcc/pic32c/6.2.1\libgcc.a(_udivmoddi4.o)
 .debug_str     0x0000182a       0x2c c:/program files (x86)/microchip/xc32/v2.30/bin/bin/../../lib/gcc/pic32c/6.2.1\libgcc.a(addsf3.o)
 .debug_str     0x00001856       0x30 c:/program files (x86)/microchip/xc32/v2.30/bin/bin/../../lib/gcc/pic32c/6.2.1\libgcc.a(divsf3.o)
 .debug_str     0x00001886       0x26 c:/program files (x86)/microchip/xc32/v2.30/bin/bin/../../lib/gcc/pic32c/6.2.1\libgcc.a(eqsf2.o)
 .debug_str     0x000018ac       0x26 c:/program files (x86)/microchip/xc32/v2.30/bin/bin/../../lib/gcc/pic32c/6.2.1\libgcc.a(gesf2.o)
 .debug_str     0x000018d2       0x26 c:/program files (x86)/microchip/xc32/v2.30/bin/bin/../../lib/gcc/pic32c/6.2.1\libgcc.a(lesf2.o)
 .debug_str     0x000018f8       0x2c c:/program files (x86)/microchip/xc32/v2.30/bin/bin/../../lib/gcc/pic32c/6.2.1\libgcc.a(subsf3.o)
 .debug_str     0x00001924       0x13 c:/program files (x86)/microchip/xc32/v2.30/bin/bin/../../lib/gcc/pic32c/6.2.1\libgcc.a(fixsfsi.o)
 .debug_str     0x00001937        0x0 c:/program files (x86)/microchip/xc32/v2.30/bin/bin/../../lib/gcc/pic32c/6.2.1\libgcc.a(floatsisf.o)
 .debug_str     0x00001937        0x0 c:/program files (x86)/microchip/xc32/v2.30/bin/bin/../../lib/gcc/pic32c/6.2.1\libgcc.a(floatunsisf.o)
 .debug_str     0x00001937       0x2c c:/program files (x86)/microchip/xc32/v2.30/bin/bin/../../lib/gcc/pic32c/6.2.1\libgcc.a(adddf3.o)
 .debug_str     0x00001963       0x30 c:/program files (x86)/microchip/xc32/v2.30/bin/bin/../../lib/gcc/pic32c/6.2.1\libgcc.a(divdf3.o)
 .debug_str     0x00001993       0x26 c:/program files (x86)/microchip/xc32/v2.30/bin/bin/../../lib/gcc/pic32c/6.2.1\libgcc.a(eqdf2.o)
 .debug_str     0x000019b9       0x26 c:/program files (x86)/microchip/xc32/v2.30/bin/bin/../../lib/gcc/pic32c/6.2.1\libgcc.a(gedf2.o)
 .debug_str     0x000019df       0x26 c:/program files (x86)/microchip/xc32/v2.30/bin/bin/../../lib/gcc/pic32c/6.2.1\libgcc.a(ledf2.o)
 .debug_str     0x00001a05       0x56 c:/program files (x86)/microchip/xc32/v2.30/bin/bin/../../lib/gcc/pic32c/6.2.1\libgcc.a(muldf3.o)
 .debug_str     0x00001a5b       0x2c c:/program files (x86)/microchip/xc32/v2.30/bin/bin/../../lib/gcc/pic32c/6.2.1\libgcc.a(subdf3.o)
 .debug_str     0x00001a87       0x13 c:/program files (x86)/microchip/xc32/v2.30/bin/bin/../../lib/gcc/pic32c/6.2.1\libgcc.a(fixdfsi.o)
 .debug_str     0x00001a9a        0x0 c:/program files (x86)/microchip/xc32/v2.30/bin/bin/../../lib/gcc/pic32c/6.2.1\libgcc.a(floatsidf.o)
 .debug_str     0x00001a9a        0x0 c:/program files (x86)/microchip/xc32/v2.30/bin/bin/../../lib/gcc/pic32c/6.2.1\libgcc.a(floatunsidf.o)
 .debug_str     0x00001a9a        0x0 c:/program files (x86)/microchip/xc32/v2.30/bin/bin/../../lib/gcc/pic32c/6.2.1\libgcc.a(extendsfdf2.o)
 .debug_str     0x00001a9a        0x0 c:/program files (x86)/microchip/xc32/v2.30/bin/bin/../../lib/gcc/pic32c/6.2.1\libgcc.a(truncdfsf2.o)
 .debug_str     0x00001a9a        0xe c:/program files (x86)/microchip/xc32/v2.30/bin/bin/../../lib/gcc/pic32c/6.2.1/../../../../pic32c/lib\libc.a(lib_a-atof.o)
 .debug_str     0x00001aa8       0x18 c:/program files (x86)/microchip/xc32/v2.30/bin/bin/../../lib/gcc/pic32c/6.2.1/../../../../pic32c/lib\libc.a(lib_a-atol.o)
 .debug_str     0x00001ac0        0xe c:/program files (x86)/microchip/xc32/v2.30/bin/bin/../../lib/gcc/pic32c/6.2.1/../../../../pic32c/lib\libc.a(lib_a-impure.o)
 .debug_str     0x00001ace        0x0 c:/program files (x86)/microchip/xc32/v2.30/bin/bin/../../lib/gcc/pic32c/6.2.1/../../../../pic32c/lib\libc.a(lib_a-init.o)
 .debug_str     0x00001ace        0xe c:/program files (x86)/microchip/xc32/v2.30/bin/bin/../../lib/gcc/pic32c/6.2.1/../../../../pic32c/lib\libc.a(lib_a-memcpy-stub.o)
 .debug_str     0x00001adc      0x119 c:/program files (x86)/microchip/xc32/v2.30/bin/bin/../../lib/gcc/pic32c/6.2.1/../../../../pic32c/lib\libc.a(lib_a-memset.o)
 .debug_str     0x00001bf5       0x1a c:/program files (x86)/microchip/xc32/v2.30/bin/bin/../../lib/gcc/pic32c/6.2.1/../../../../pic32c/lib\libc.a(lib_a-printf.o)
 .debug_str     0x00001c0f       0x1b c:/program files (x86)/microchip/xc32/v2.30/bin/bin/../../lib/gcc/pic32c/6.2.1/../../../../pic32c/lib\libc.a(lib_a-puts.o)
 .debug_str     0x00001c2a        0xe c:/program files (x86)/microchip/xc32/v2.30/bin/bin/../../lib/gcc/pic32c/6.2.1/../../../../pic32c/lib\libc.a(lib_a-setbuf.o)
 .debug_str     0x00001c38       0x25 c:/program files (x86)/microchip/xc32/v2.30/bin/bin/../../lib/gcc/pic32c/6.2.1/../../../../pic32c/lib\libc.a(lib_a-setvbuf.o)
 .debug_str     0x00001c5d       0x1b c:/program files (x86)/microchip/xc32/v2.30/bin/bin/../../lib/gcc/pic32c/6.2.1/../../../../pic32c/lib\libc.a(lib_a-sprintf.o)
 .debug_str     0x00001c78        0xe c:/program files (x86)/microchip/xc32/v2.30/bin/bin/../../lib/gcc/pic32c/6.2.1/../../../../pic32c/lib\libc.a(lib_a-strcat.o)
 .debug_str     0x00001c86        0xe c:/program files (x86)/microchip/xc32/v2.30/bin/bin/../../lib/gcc/pic32c/6.2.1/../../../../pic32c/lib\libc.a(lib_a-strchr.o)
 .debug_str     0x00001c94        0xe c:/program files (x86)/microchip/xc32/v2.30/bin/bin/../../lib/gcc/pic32c/6.2.1/../../../../pic32c/lib\libc.a(lib_a-strcpy.o)
 .debug_str     0x00001ca2        0xe c:/program files (x86)/microchip/xc32/v2.30/bin/bin/../../lib/gcc/pic32c/6.2.1/../../../../pic32c/lib\libc.a(lib_a-strncpy.o)
 .debug_str     0x00001cb0        0xe c:/program files (x86)/microchip/xc32/v2.30/bin/bin/../../lib/gcc/pic32c/6.2.1/../../../../pic32c/lib\libc.a(lib_a-strstr.o)
 .debug_str     0x00001cbe      0x164 c:/program files (x86)/microchip/xc32/v2.30/bin/bin/../../lib/gcc/pic32c/6.2.1/../../../../pic32c/lib\libc.a(lib_a-strtod.o)
 .debug_str     0x00001e22       0x19 c:/program files (x86)/microchip/xc32/v2.30/bin/bin/../../lib/gcc/pic32c/6.2.1/../../../../pic32c/lib\libc.a(lib_a-strtok.o)
 .debug_str     0x00001e3b        0xe c:/program files (x86)/microchip/xc32/v2.30/bin/bin/../../lib/gcc/pic32c/6.2.1/../../../../pic32c/lib\libc.a(lib_a-strtok_r.o)
 .debug_str     0x00001e49      0x12e c:/program files (x86)/microchip/xc32/v2.30/bin/bin/../../lib/gcc/pic32c/6.2.1/../../../../pic32c/lib\libc.a(lib_a-strtol.o)
 .debug_str     0x00001f77      0x13d c:/program files (x86)/microchip/xc32/v2.30/bin/bin/../../lib/gcc/pic32c/6.2.1/../../../../pic32c/lib\libc.a(lib_a-svfprintf.o)
 .debug_str     0x000020b4      0x152 c:/program files (x86)/microchip/xc32/v2.30/bin/bin/../../lib/gcc/pic32c/6.2.1/../../../../pic32c/lib\libc.a(lib_a-vfprintf.o)
 .debug_str     0x00002206       0x1b c:/program files (x86)/microchip/xc32/v2.30/bin/bin/../../lib/gcc/pic32c/6.2.1/../../../../pic32c/lib\libc.a(lib_a-wsetup.o)
 .debug_str     0x00002221      0x14c c:/program files (x86)/microchip/xc32/v2.30/bin/bin/../../lib/gcc/pic32c/6.2.1/../../../../pic32c/lib\libc.a(lib_a-dtoa.o)
 .debug_str     0x0000236d       0x1b c:/program files (x86)/microchip/xc32/v2.30/bin/bin/../../lib/gcc/pic32c/6.2.1/../../../../pic32c/lib\libc.a(lib_a-fflush.o)
 .debug_str     0x00002388       0x25 c:/program files (x86)/microchip/xc32/v2.30/bin/bin/../../lib/gcc/pic32c/6.2.1/../../../../pic32c/lib\libc.a(lib_a-findfp.o)
 .debug_str     0x000023ad       0x36 c:/program files (x86)/microchip/xc32/v2.30/bin/bin/../../lib/gcc/pic32c/6.2.1/../../../../pic32c/lib\libc.a(lib_a-freer.o)
 .debug_str     0x000023e3       0x39 c:/program files (x86)/microchip/xc32/v2.30/bin/bin/../../lib/gcc/pic32c/6.2.1/../../../../pic32c/lib\libc.a(lib_a-fvwrite.o)
 .debug_str     0x0000241c        0xe c:/program files (x86)/microchip/xc32/v2.30/bin/bin/../../lib/gcc/pic32c/6.2.1/../../../../pic32c/lib\libc.a(lib_a-fwalk.o)
 .debug_str     0x0000242a      0x144 c:/program files (x86)/microchip/xc32/v2.30/bin/bin/../../lib/gcc/pic32c/6.2.1/../../../../pic32c/lib\libc.a(lib_a-gdtoa-gethex.o)
 .debug_str     0x0000256e      0x126 c:/program files (x86)/microchip/xc32/v2.30/bin/bin/../../lib/gcc/pic32c/6.2.1/../../../../pic32c/lib\libc.a(lib_a-gdtoa-hexnan.o)
 .debug_str     0x00002694      0x119 c:/program files (x86)/microchip/xc32/v2.30/bin/bin/../../lib/gcc/pic32c/6.2.1/../../../../pic32c/lib\libc.a(lib_a-localeconv.o)
 .debug_str     0x000027ad      0x139 c:/program files (x86)/microchip/xc32/v2.30/bin/bin/../../lib/gcc/pic32c/6.2.1/../../../../pic32c/lib\libc.a(lib_a-locale.o)
 .debug_str     0x000028e6       0x36 c:/program files (x86)/microchip/xc32/v2.30/bin/bin/../../lib/gcc/pic32c/6.2.1/../../../../pic32c/lib\libc.a(lib_a-makebuf.o)
 .debug_str     0x0000291c       0x18 c:/program files (x86)/microchip/xc32/v2.30/bin/bin/../../lib/gcc/pic32c/6.2.1/../../../../pic32c/lib\libc.a(lib_a-malloc.o)
 .debug_str     0x00002934       0x36 c:/program files (x86)/microchip/xc32/v2.30/bin/bin/../../lib/gcc/pic32c/6.2.1/../../../../pic32c/lib\libc.a(lib_a-mallocr.o)
 .debug_str     0x0000296a      0x119 c:/program files (x86)/microchip/xc32/v2.30/bin/bin/../../lib/gcc/pic32c/6.2.1/../../../../pic32c/lib\libc.a(lib_a-mbtowc_r.o)
 .debug_str     0x00002a83        0xe c:/program files (x86)/microchip/xc32/v2.30/bin/bin/../../lib/gcc/pic32c/6.2.1/../../../../pic32c/lib\libc.a(lib_a-memchr-stub.o)
 .debug_str     0x00002a91      0x119 c:/program files (x86)/microchip/xc32/v2.30/bin/bin/../../lib/gcc/pic32c/6.2.1/../../../../pic32c/lib\libc.a(lib_a-memmove.o)
 .debug_str     0x00002baa        0xe c:/program files (x86)/microchip/xc32/v2.30/bin/bin/../../lib/gcc/pic32c/6.2.1/../../../../pic32c/lib\libc.a(lib_a-mlock.o)
 .debug_str     0x00002bb8      0x123 c:/program files (x86)/microchip/xc32/v2.30/bin/bin/../../lib/gcc/pic32c/6.2.1/../../../../pic32c/lib\libc.a(lib_a-mprec.o)
 .debug_str     0x00002cdb       0x42 c:/program files (x86)/microchip/xc32/v2.30/bin/bin/../../lib/gcc/pic32c/6.2.1/../../../../pic32c/lib\libc.a(lib_a-reallocr.o)
 .debug_str     0x00002d1d        0xe c:/program files (x86)/microchip/xc32/v2.30/bin/bin/../../lib/gcc/pic32c/6.2.1/../../../../pic32c/lib\libc.a(lib_a-sbrkr.o)
 .debug_str     0x00002d2b        0xe c:/program files (x86)/microchip/xc32/v2.30/bin/bin/../../lib/gcc/pic32c/6.2.1/../../../../pic32c/lib\libc.a(lib_a-s_frexp.o)
 .debug_str     0x00002d39       0x30 c:/program files (x86)/microchip/xc32/v2.30/bin/bin/../../lib/gcc/pic32c/6.2.1/../../../../pic32c/lib\libc.a(lib_a-stdio.o)
 .debug_str     0x00002d69        0xe c:/program files (x86)/microchip/xc32/v2.30/bin/bin/../../lib/gcc/pic32c/6.2.1/../../../../pic32c/lib\libc.a(lib_a-strncmp.o)
 .debug_str     0x00002d77      0x13c c:/program files (x86)/microchip/xc32/v2.30/bin/bin/../../lib/gcc/pic32c/6.2.1/../../../../pic32c/lib\libc.a(lib_a-svfiprintf.o)
 .debug_str     0x00002eb3      0x154 c:/program files (x86)/microchip/xc32/v2.30/bin/bin/../../lib/gcc/pic32c/6.2.1/../../../../pic32c/lib\libc.a(lib_a-vfiprintf.o)
 .debug_str     0x00003007      0x119 c:/program files (x86)/microchip/xc32/v2.30/bin/bin/../../lib/gcc/pic32c/6.2.1/../../../../pic32c/lib\libc.a(lib_a-wctomb_r.o)
 .debug_str     0x00003120       0x15 c:/program files (x86)/microchip/xc32/v2.30/bin/bin/../../lib/gcc/pic32c/6.2.1/../../../../pic32c/lib\libc.a(lib_a-writer.o)
 .debug_str     0x00003135       0x18 c:/program files (x86)/microchip/xc32/v2.30/bin/bin/../../lib/gcc/pic32c/6.2.1/../../../../pic32c/lib\libc.a(lib_a-callocr.o)
 .debug_str     0x0000314d       0x15 c:/program files (x86)/microchip/xc32/v2.30/bin/bin/../../lib/gcc/pic32c/6.2.1/../../../../pic32c/lib\libc.a(lib_a-closer.o)
 .debug_str     0x00003162      0x119 c:/program files (x86)/microchip/xc32/v2.30/bin/bin/../../lib/gcc/pic32c/6.2.1/../../../../pic32c/lib\libc.a(lib_a-ctype_.o)
 .debug_str     0x0000327b       0x19 c:/program files (x86)/microchip/xc32/v2.30/bin/bin/../../lib/gcc/pic32c/6.2.1/../../../../pic32c/lib\libc.a(lib_a-fclose.o)
 .debug_str     0x00003294       0x37 c:/program files (x86)/microchip/xc32/v2.30/bin/bin/../../lib/gcc/pic32c/6.2.1/../../../../pic32c/lib\libc.a(lib_a-fputwc.o)
 .debug_str     0x000032cb        0xe c:/program files (x86)/microchip/xc32/v2.30/bin/bin/../../lib/gcc/pic32c/6.2.1/../../../../pic32c/lib\libc.a(lib_a-fstatr.o)
 .debug_str     0x000032d9        0xe c:/program files (x86)/microchip/xc32/v2.30/bin/bin/../../lib/gcc/pic32c/6.2.1/../../../../pic32c/lib\libc.a(lib_a-isattyr.o)
 .debug_str     0x000032e7        0xe c:/program files (x86)/microchip/xc32/v2.30/bin/bin/../../lib/gcc/pic32c/6.2.1/../../../../pic32c/lib\libc.a(lib_a-lseekr.o)
 .debug_str     0x000032f5        0xe c:/program files (x86)/microchip/xc32/v2.30/bin/bin/../../lib/gcc/pic32c/6.2.1/../../../../pic32c/lib\libc.a(lib_a-readr.o)
 .debug_str     0x00003303        0xe c:/program files (x86)/microchip/xc32/v2.30/bin/bin/../../lib/gcc/pic32c/6.2.1/../../../../pic32c/lib\libc.a(lib_a-reent.o)
 .debug_str     0x00003311       0x24 c:/program files (x86)/microchip/xc32/v2.30/bin/bin/../../lib/gcc/pic32c/6.2.1/../../../../pic32c/lib\libc.a(lib_a-wbuf.o)
 .debug_str     0x00003335      0x119 c:/program files (x86)/microchip/xc32/v2.30/bin/bin/../../lib/gcc/pic32c/6.2.1/../../../../pic32c/lib\libc.a(lib_a-wcrtomb.o)
 .debug_str     0x0000344e        0x0 c:/program files (x86)/microchip/xc32/v2.30/bin/bin/../../lib/gcc/pic32c/6.2.1/../../../../pic32c/lib\libpic32c.a(_close.o)
 .debug_str     0x0000344e        0x0 c:/program files (x86)/microchip/xc32/v2.30/bin/bin/../../lib/gcc/pic32c/6.2.1/../../../../pic32c/lib\libpic32c.a(_fstat.o)
 .debug_str     0x0000344e        0x0 c:/program files (x86)/microchip/xc32/v2.30/bin/bin/../../lib/gcc/pic32c/6.2.1/../../../../pic32c/lib\libpic32c.a(_isatty.o)
 .debug_str     0x0000344e        0x0 c:/program files (x86)/microchip/xc32/v2.30/bin/bin/../../lib/gcc/pic32c/6.2.1/../../../../pic32c/lib\libpic32c.a(_lseek.o)
 .debug_str     0x0000344e        0x0 c:/program files (x86)/microchip/xc32/v2.30/bin/bin/../../lib/gcc/pic32c/6.2.1/../../../../pic32c/lib\libpic32c.a(_read.o)
 .debug_str     0x0000344e        0x0 c:/program files (x86)/microchip/xc32/v2.30/bin/bin/../../lib/gcc/pic32c/6.2.1/../../../../pic32c/lib\libpic32c.a(sbrk.o)
 .debug_str     0x0000344e        0x0 c:/program files (x86)/microchip/xc32/v2.30/bin/bin/../../lib/gcc/pic32c/6.2.1/../../../../pic32c/lib\libpic32c.a(_write.o)
 .debug_str     0x0000344e        0x0 c:/program files (x86)/microchip/xc32/v2.30/bin/bin/../../lib/gcc/pic32c/6.2.1/../../../../pic32c/lib\libpic32c.a(close.o)
 .debug_str     0x0000344e        0x0 c:/program files (x86)/microchip/xc32/v2.30/bin/bin/../../lib/gcc/pic32c/6.2.1/../../../../pic32c/lib\libpic32c.a(fstat.o)
 .debug_str     0x0000344e        0x0 c:/program files (x86)/microchip/xc32/v2.30/bin/bin/../../lib/gcc/pic32c/6.2.1/../../../../pic32c/lib\libpic32c.a(isatty.o)
 .debug_str     0x0000344e        0x0 c:/program files (x86)/microchip/xc32/v2.30/bin/bin/../../lib/gcc/pic32c/6.2.1/../../../../pic32c/lib\libpic32c.a(lseek.o)
 .debug_str     0x0000344e        0x0 c:/program files (x86)/microchip/xc32/v2.30/bin/bin/../../lib/gcc/pic32c/6.2.1/../../../../pic32c/lib\libpic32c.a(read.o)
 .debug_str     0x0000344e        0x0 c:/program files (x86)/microchip/xc32/v2.30/bin/bin/../../lib/gcc/pic32c/6.2.1/../../../../pic32c/lib\libpic32c.a(write.o)
 .debug_str     0x0000344e       0x26 c:/program files (x86)/microchip/xc32/v2.30/bin/bin/../../lib/gcc/pic32c/6.2.1\libgcc.a(unorddf2.o)

.debug_frame    0x00000000     0x3cb4
 .debug_frame   0x00000000      0x31c build/default/production/_ext/869808652/drv_usart.o
 .debug_frame   0x0000031c      0x180 build/default/production/_ext/60165182/plib_can0.o
 .debug_frame   0x0000049c       0x20 build/default/production/_ext/1984496892/plib_clock.o
 .debug_frame   0x000004bc       0x80 build/default/production/_ext/60167341/plib_eic.o
 .debug_frame   0x0000053c       0x20 build/default/production/_ext/1986646378/plib_evsys.o
 .debug_frame   0x0000055c       0x5c build/default/production/_ext/1865468468/plib_nvic.o
 .debug_frame   0x000005b8      0x114 build/default/production/_ext/1593096446/plib_nvmctrl.o
 .debug_frame   0x000006cc       0xd8 build/default/production/_ext/1865521619/plib_port.o
 .debug_frame   0x000007a4       0x68 build/default/production/_ext/60180175/plib_rtc_clock.o
 .debug_frame   0x0000080c       0xa8 build/default/production/_ext/17022449/plib_sercom0_spi_master.o
 .debug_frame   0x000008b4      0x180 build/default/production/_ext/504274921/plib_sercom3_usart.o
 .debug_frame   0x00000a34      0x13c build/default/production/_ext/504274921/plib_sercom4_usart.o
 .debug_frame   0x00000b70      0x180 build/default/production/_ext/504274921/plib_sercom2_usart.o
 .debug_frame   0x00000cf0       0xf0 build/default/production/_ext/1827571544/plib_systick.o
 .debug_frame   0x00000de0       0xc8 build/default/production/_ext/829342655/plib_tc4.o
 .debug_frame   0x00000ea8       0xc8 build/default/production/_ext/829342655/plib_tc0.o
 .debug_frame   0x00000f70       0xc8 build/default/production/_ext/829342655/plib_tc3.o
 .debug_frame   0x00001038       0x60 build/default/production/_ext/60184501/plib_wdt.o
 .debug_frame   0x00001098       0x40 build/default/production/_ext/163028504/xc32_monitor.o
 .debug_frame   0x000010d8       0x84 build/default/production/_ext/1881668453/sys_int.o
 .debug_frame   0x0000115c       0x28 build/default/production/_ext/1171490990/initialization.o
 .debug_frame   0x00001184       0x20 build/default/production/_ext/1171490990/interrupts.o
 .debug_frame   0x000011a4       0x30 build/default/production/_ext/1171490990/exceptions.o
 .debug_frame   0x000011d4       0x38 build/default/production/_ext/1171490990/startup_xc32.o
 .debug_frame   0x0000120c       0x28 build/default/production/_ext/1171490990/tasks.o
 .debug_frame   0x00001234       0x2c build/default/production/_ext/1360937237/main.o
 .debug_frame   0x00001260       0x90 build/default/production/_ext/1360937237/myapp.o
 .debug_frame   0x000012f0       0xe0 build/default/production/_ext/1360937237/app.o
 .debug_frame   0x000013d0      0x138 build/default/production/_ext/1360937237/at_engine.o
 .debug_frame   0x00001508       0xa0 build/default/production/_ext/1360937237/at_parser.o
 .debug_frame   0x000015a8       0xa4 build/default/production/_ext/1360937237/dev_adapter.o
 .debug_frame   0x0000164c       0x70 build/default/production/_ext/1360937237/dev_hal.o
 .debug_frame   0x000016bc       0x70 build/default/production/_ext/1360937237/dev_timer.o
 .debug_frame   0x0000172c      0x140 build/default/production/_ext/1360937237/gsm_gps.o
 .debug_frame   0x0000186c       0xa0 build/default/production/_ext/1360937237/app2.o
 .debug_frame   0x0000190c      0x514 build/default/production/_ext/1360937237/app3.o
 .debug_frame   0x00001e20      0x468 build/default/production/_ext/1360937237/ext_flash.o
 .debug_frame   0x00002288      0x110 build/default/production/_ext/1360937237/app4.o
 .debug_frame   0x00002398       0x2c c:/program files (x86)/microchip/xc32/v2.30/bin/bin/../../lib/gcc/pic32c/6.2.1/../../../../pic32c/lib\libpic32c.a(data_init.o)
 .debug_frame   0x000023c4       0x20 c:/program files (x86)/microchip/xc32/v2.30/bin/bin/../../lib/gcc/pic32c/6.2.1\libgcc.a(_udivsi3.o)
 .debug_frame   0x000023e4       0x20 c:/program files (x86)/microchip/xc32/v2.30/bin/bin/../../lib/gcc/pic32c/6.2.1\libgcc.a(_divsi3.o)
 .debug_frame   0x00002404       0x34 c:/program files (x86)/microchip/xc32/v2.30/bin/bin/../../lib/gcc/pic32c/6.2.1\libgcc.a(_muldi3.o)
 .debug_frame   0x00002438       0x28 c:/program files (x86)/microchip/xc32/v2.30/bin/bin/../../lib/gcc/pic32c/6.2.1\libgcc.a(_fixunssfsi.o)
 .debug_frame   0x00002460       0x2c c:/program files (x86)/microchip/xc32/v2.30/bin/bin/../../lib/gcc/pic32c/6.2.1\libgcc.a(_fixunsdfsi.o)
 .debug_frame   0x0000248c       0x30 c:/program files (x86)/microchip/xc32/v2.30/bin/bin/../../lib/gcc/pic32c/6.2.1\libgcc.a(_udivmoddi4.o)
 .debug_frame   0x000024bc       0x34 c:/program files (x86)/microchip/xc32/v2.30/bin/bin/../../lib/gcc/pic32c/6.2.1\libgcc.a(addsf3.o)
 .debug_frame   0x000024f0       0x30 c:/program files (x86)/microchip/xc32/v2.30/bin/bin/../../lib/gcc/pic32c/6.2.1\libgcc.a(divsf3.o)
 .debug_frame   0x00002520       0x2c c:/program files (x86)/microchip/xc32/v2.30/bin/bin/../../lib/gcc/pic32c/6.2.1\libgcc.a(eqsf2.o)
 .debug_frame   0x0000254c       0x30 c:/program files (x86)/microchip/xc32/v2.30/bin/bin/../../lib/gcc/pic32c/6.2.1\libgcc.a(gesf2.o)
 .debug_frame   0x0000257c       0x30 c:/program files (x86)/microchip/xc32/v2.30/bin/bin/../../lib/gcc/pic32c/6.2.1\libgcc.a(lesf2.o)
 .debug_frame   0x000025ac       0x34 c:/program files (x86)/microchip/xc32/v2.30/bin/bin/../../lib/gcc/pic32c/6.2.1\libgcc.a(subsf3.o)
 .debug_frame   0x000025e0       0x20 c:/program files (x86)/microchip/xc32/v2.30/bin/bin/../../lib/gcc/pic32c/6.2.1\libgcc.a(fixsfsi.o)
 .debug_frame   0x00002600       0x2c c:/program files (x86)/microchip/xc32/v2.30/bin/bin/../../lib/gcc/pic32c/6.2.1\libgcc.a(floatsisf.o)
 .debug_frame   0x0000262c       0x2c c:/program files (x86)/microchip/xc32/v2.30/bin/bin/../../lib/gcc/pic32c/6.2.1\libgcc.a(floatunsisf.o)
 .debug_frame   0x00002658       0x34 c:/program files (x86)/microchip/xc32/v2.30/bin/bin/../../lib/gcc/pic32c/6.2.1\libgcc.a(adddf3.o)
 .debug_frame   0x0000268c       0x30 c:/program files (x86)/microchip/xc32/v2.30/bin/bin/../../lib/gcc/pic32c/6.2.1\libgcc.a(divdf3.o)
 .debug_frame   0x000026bc       0x30 c:/program files (x86)/microchip/xc32/v2.30/bin/bin/../../lib/gcc/pic32c/6.2.1\libgcc.a(eqdf2.o)
 .debug_frame   0x000026ec       0x34 c:/program files (x86)/microchip/xc32/v2.30/bin/bin/../../lib/gcc/pic32c/6.2.1\libgcc.a(gedf2.o)
 .debug_frame   0x00002720       0x30 c:/program files (x86)/microchip/xc32/v2.30/bin/bin/../../lib/gcc/pic32c/6.2.1\libgcc.a(ledf2.o)
 .debug_frame   0x00002750       0x30 c:/program files (x86)/microchip/xc32/v2.30/bin/bin/../../lib/gcc/pic32c/6.2.1\libgcc.a(muldf3.o)
 .debug_frame   0x00002780       0x34 c:/program files (x86)/microchip/xc32/v2.30/bin/bin/../../lib/gcc/pic32c/6.2.1\libgcc.a(subdf3.o)
 .debug_frame   0x000027b4       0x2c c:/program files (x86)/microchip/xc32/v2.30/bin/bin/../../lib/gcc/pic32c/6.2.1\libgcc.a(fixdfsi.o)
 .debug_frame   0x000027e0       0x30 c:/program files (x86)/microchip/xc32/v2.30/bin/bin/../../lib/gcc/pic32c/6.2.1\libgcc.a(floatsidf.o)
 .debug_frame   0x00002810       0x2c c:/program files (x86)/microchip/xc32/v2.30/bin/bin/../../lib/gcc/pic32c/6.2.1\libgcc.a(floatunsidf.o)
 .debug_frame   0x0000283c       0x2c c:/program files (x86)/microchip/xc32/v2.30/bin/bin/../../lib/gcc/pic32c/6.2.1\libgcc.a(extendsfdf2.o)
 .debug_frame   0x00002868       0x30 c:/program files (x86)/microchip/xc32/v2.30/bin/bin/../../lib/gcc/pic32c/6.2.1\libgcc.a(truncdfsf2.o)
 .debug_frame   0x00002898       0x28 c:/program files (x86)/microchip/xc32/v2.30/bin/bin/../../lib/gcc/pic32c/6.2.1/../../../../pic32c/lib\libc.a(lib_a-atof.o)
 .debug_frame   0x000028c0       0x40 c:/program files (x86)/microchip/xc32/v2.30/bin/bin/../../lib/gcc/pic32c/6.2.1/../../../../pic32c/lib\libc.a(lib_a-atol.o)
 .debug_frame   0x00002900       0x2c c:/program files (x86)/microchip/xc32/v2.30/bin/bin/../../lib/gcc/pic32c/6.2.1/../../../../pic32c/lib\libc.a(lib_a-init.o)
 .debug_frame   0x0000292c       0x28 c:/program files (x86)/microchip/xc32/v2.30/bin/bin/../../lib/gcc/pic32c/6.2.1/../../../../pic32c/lib\libc.a(lib_a-memcpy-stub.o)
 .debug_frame   0x00002954       0x20 c:/program files (x86)/microchip/xc32/v2.30/bin/bin/../../lib/gcc/pic32c/6.2.1/../../../../pic32c/lib\libc.a(lib_a-memset.o)
 .debug_frame   0x00002974       0x4c c:/program files (x86)/microchip/xc32/v2.30/bin/bin/../../lib/gcc/pic32c/6.2.1/../../../../pic32c/lib\libc.a(lib_a-printf.o)
 .debug_frame   0x000029c0       0x44 c:/program files (x86)/microchip/xc32/v2.30/bin/bin/../../lib/gcc/pic32c/6.2.1/../../../../pic32c/lib\libc.a(lib_a-puts.o)
 .debug_frame   0x00002a04       0x28 c:/program files (x86)/microchip/xc32/v2.30/bin/bin/../../lib/gcc/pic32c/6.2.1/../../../../pic32c/lib\libc.a(lib_a-setbuf.o)
 .debug_frame   0x00002a2c       0x30 c:/program files (x86)/microchip/xc32/v2.30/bin/bin/../../lib/gcc/pic32c/6.2.1/../../../../pic32c/lib\libc.a(lib_a-setvbuf.o)
 .debug_frame   0x00002a5c       0x50 c:/program files (x86)/microchip/xc32/v2.30/bin/bin/../../lib/gcc/pic32c/6.2.1/../../../../pic32c/lib\libc.a(lib_a-sprintf.o)
 .debug_frame   0x00002aac       0x28 c:/program files (x86)/microchip/xc32/v2.30/bin/bin/../../lib/gcc/pic32c/6.2.1/../../../../pic32c/lib\libc.a(lib_a-strcat.o)
 .debug_frame   0x00002ad4       0x20 c:/program files (x86)/microchip/xc32/v2.30/bin/bin/../../lib/gcc/pic32c/6.2.1/../../../../pic32c/lib\libc.a(lib_a-strchr.o)
 .debug_frame   0x00002af4       0x20 c:/program files (x86)/microchip/xc32/v2.30/bin/bin/../../lib/gcc/pic32c/6.2.1/../../../../pic32c/lib\libc.a(lib_a-strcmp.o)
 .debug_frame   0x00002b14       0x20 c:/program files (x86)/microchip/xc32/v2.30/bin/bin/../../lib/gcc/pic32c/6.2.1/../../../../pic32c/lib\libc.a(lib_a-strcpy.o)
 .debug_frame   0x00002b34       0x2c c:/program files (x86)/microchip/xc32/v2.30/bin/bin/../../lib/gcc/pic32c/6.2.1/../../../../pic32c/lib\libc.a(lib_a-strncpy.o)
 .debug_frame   0x00002b60       0x28 c:/program files (x86)/microchip/xc32/v2.30/bin/bin/../../lib/gcc/pic32c/6.2.1/../../../../pic32c/lib\libc.a(lib_a-strstr.o)
 .debug_frame   0x00002b88       0xd0 c:/program files (x86)/microchip/xc32/v2.30/bin/bin/../../lib/gcc/pic32c/6.2.1/../../../../pic32c/lib\libc.a(lib_a-strtod.o)
 .debug_frame   0x00002c58       0x28 c:/program files (x86)/microchip/xc32/v2.30/bin/bin/../../lib/gcc/pic32c/6.2.1/../../../../pic32c/lib\libc.a(lib_a-strtok.o)
 .debug_frame   0x00002c80       0x48 c:/program files (x86)/microchip/xc32/v2.30/bin/bin/../../lib/gcc/pic32c/6.2.1/../../../../pic32c/lib\libc.a(lib_a-strtok_r.o)
 .debug_frame   0x00002cc8       0x88 c:/program files (x86)/microchip/xc32/v2.30/bin/bin/../../lib/gcc/pic32c/6.2.1/../../../../pic32c/lib\libc.a(lib_a-strtol.o)
 .debug_frame   0x00002d50       0x34 c:/program files (x86)/microchip/xc32/v2.30/bin/bin/../../lib/gcc/pic32c/6.2.1/../../../../pic32c/lib\libc.a(lib_a-svfprintf.o)
 .debug_frame   0x00002d84       0x70 c:/program files (x86)/microchip/xc32/v2.30/bin/bin/../../lib/gcc/pic32c/6.2.1/../../../../pic32c/lib\libc.a(lib_a-vfprintf.o)
 .debug_frame   0x00002df4       0x2c c:/program files (x86)/microchip/xc32/v2.30/bin/bin/../../lib/gcc/pic32c/6.2.1/../../../../pic32c/lib\libc.a(lib_a-wsetup.o)
 .debug_frame   0x00002e20       0x54 c:/program files (x86)/microchip/xc32/v2.30/bin/bin/../../lib/gcc/pic32c/6.2.1/../../../../pic32c/lib\libc.a(lib_a-dtoa.o)
 .debug_frame   0x00002e74       0x68 c:/program files (x86)/microchip/xc32/v2.30/bin/bin/../../lib/gcc/pic32c/6.2.1/../../../../pic32c/lib\libc.a(lib_a-fflush.o)
 .debug_frame   0x00002edc       0xac c:/program files (x86)/microchip/xc32/v2.30/bin/bin/../../lib/gcc/pic32c/6.2.1/../../../../pic32c/lib\libc.a(lib_a-findfp.o)
 .debug_frame   0x00002f88       0x54 c:/program files (x86)/microchip/xc32/v2.30/bin/bin/../../lib/gcc/pic32c/6.2.1/../../../../pic32c/lib\libc.a(lib_a-freer.o)
 .debug_frame   0x00002fdc       0x30 c:/program files (x86)/microchip/xc32/v2.30/bin/bin/../../lib/gcc/pic32c/6.2.1/../../../../pic32c/lib\libc.a(lib_a-fvwrite.o)
 .debug_frame   0x0000300c       0x58 c:/program files (x86)/microchip/xc32/v2.30/bin/bin/../../lib/gcc/pic32c/6.2.1/../../../../pic32c/lib\libc.a(lib_a-fwalk.o)
 .debug_frame   0x00003064       0x60 c:/program files (x86)/microchip/xc32/v2.30/bin/bin/../../lib/gcc/pic32c/6.2.1/../../../../pic32c/lib\libc.a(lib_a-gdtoa-gethex.o)
 .debug_frame   0x000030c4       0x68 c:/program files (x86)/microchip/xc32/v2.30/bin/bin/../../lib/gcc/pic32c/6.2.1/../../../../pic32c/lib\libc.a(lib_a-gdtoa-hexnan.o)
 .debug_frame   0x0000312c       0x40 c:/program files (x86)/microchip/xc32/v2.30/bin/bin/../../lib/gcc/pic32c/6.2.1/../../../../pic32c/lib\libc.a(lib_a-localeconv.o)
 .debug_frame   0x0000316c       0x74 c:/program files (x86)/microchip/xc32/v2.30/bin/bin/../../lib/gcc/pic32c/6.2.1/../../../../pic32c/lib\libc.a(lib_a-locale.o)
 .debug_frame   0x000031e0       0x54 c:/program files (x86)/microchip/xc32/v2.30/bin/bin/../../lib/gcc/pic32c/6.2.1/../../../../pic32c/lib\libc.a(lib_a-makebuf.o)
 .debug_frame   0x00003234       0x40 c:/program files (x86)/microchip/xc32/v2.30/bin/bin/../../lib/gcc/pic32c/6.2.1/../../../../pic32c/lib\libc.a(lib_a-malloc.o)
 .debug_frame   0x00003274       0x30 c:/program files (x86)/microchip/xc32/v2.30/bin/bin/../../lib/gcc/pic32c/6.2.1/../../../../pic32c/lib\libc.a(lib_a-mallocr.o)
 .debug_frame   0x000032a4       0x44 c:/program files (x86)/microchip/xc32/v2.30/bin/bin/../../lib/gcc/pic32c/6.2.1/../../../../pic32c/lib\libc.a(lib_a-mbtowc_r.o)
 .debug_frame   0x000032e8       0x20 c:/program files (x86)/microchip/xc32/v2.30/bin/bin/../../lib/gcc/pic32c/6.2.1/../../../../pic32c/lib\libc.a(lib_a-memchr-stub.o)
 .debug_frame   0x00003308       0x28 c:/program files (x86)/microchip/xc32/v2.30/bin/bin/../../lib/gcc/pic32c/6.2.1/../../../../pic32c/lib\libc.a(lib_a-memmove.o)
 .debug_frame   0x00003330       0x30 c:/program files (x86)/microchip/xc32/v2.30/bin/bin/../../lib/gcc/pic32c/6.2.1/../../../../pic32c/lib\libc.a(lib_a-mlock.o)
 .debug_frame   0x00003360      0x22c c:/program files (x86)/microchip/xc32/v2.30/bin/bin/../../lib/gcc/pic32c/6.2.1/../../../../pic32c/lib\libc.a(lib_a-mprec.o)
 .debug_frame   0x0000358c       0x30 c:/program files (x86)/microchip/xc32/v2.30/bin/bin/../../lib/gcc/pic32c/6.2.1/../../../../pic32c/lib\libc.a(lib_a-reallocr.o)
 .debug_frame   0x000035bc       0x2c c:/program files (x86)/microchip/xc32/v2.30/bin/bin/../../lib/gcc/pic32c/6.2.1/../../../../pic32c/lib\libc.a(lib_a-sbrkr.o)
 .debug_frame   0x000035e8       0x2c c:/program files (x86)/microchip/xc32/v2.30/bin/bin/../../lib/gcc/pic32c/6.2.1/../../../../pic32c/lib\libc.a(lib_a-s_frexp.o)
 .debug_frame   0x00003614       0x90 c:/program files (x86)/microchip/xc32/v2.30/bin/bin/../../lib/gcc/pic32c/6.2.1/../../../../pic32c/lib\libc.a(lib_a-stdio.o)
 .debug_frame   0x000036a4       0x2c c:/program files (x86)/microchip/xc32/v2.30/bin/bin/../../lib/gcc/pic32c/6.2.1/../../../../pic32c/lib\libc.a(lib_a-strncmp.o)
 .debug_frame   0x000036d0       0x54 c:/program files (x86)/microchip/xc32/v2.30/bin/bin/../../lib/gcc/pic32c/6.2.1/../../../../pic32c/lib\libc.a(lib_a-svfiprintf.o)
 .debug_frame   0x00003724       0x90 c:/program files (x86)/microchip/xc32/v2.30/bin/bin/../../lib/gcc/pic32c/6.2.1/../../../../pic32c/lib\libc.a(lib_a-vfiprintf.o)
 .debug_frame   0x000037b4       0x38 c:/program files (x86)/microchip/xc32/v2.30/bin/bin/../../lib/gcc/pic32c/6.2.1/../../../../pic32c/lib\libc.a(lib_a-wctomb_r.o)
 .debug_frame   0x000037ec       0x2c c:/program files (x86)/microchip/xc32/v2.30/bin/bin/../../lib/gcc/pic32c/6.2.1/../../../../pic32c/lib\libc.a(lib_a-writer.o)
 .debug_frame   0x00003818       0x28 c:/program files (x86)/microchip/xc32/v2.30/bin/bin/../../lib/gcc/pic32c/6.2.1/../../../../pic32c/lib\libc.a(lib_a-callocr.o)
 .debug_frame   0x00003840       0x2c c:/program files (x86)/microchip/xc32/v2.30/bin/bin/../../lib/gcc/pic32c/6.2.1/../../../../pic32c/lib\libc.a(lib_a-closer.o)
 .debug_frame   0x0000386c       0x44 c:/program files (x86)/microchip/xc32/v2.30/bin/bin/../../lib/gcc/pic32c/6.2.1/../../../../pic32c/lib\libc.a(lib_a-fclose.o)
 .debug_frame   0x000038b0       0x64 c:/program files (x86)/microchip/xc32/v2.30/bin/bin/../../lib/gcc/pic32c/6.2.1/../../../../pic32c/lib\libc.a(lib_a-fputwc.o)
 .debug_frame   0x00003914       0x2c c:/program files (x86)/microchip/xc32/v2.30/bin/bin/../../lib/gcc/pic32c/6.2.1/../../../../pic32c/lib\libc.a(lib_a-fstatr.o)
 .debug_frame   0x00003940       0x2c c:/program files (x86)/microchip/xc32/v2.30/bin/bin/../../lib/gcc/pic32c/6.2.1/../../../../pic32c/lib\libc.a(lib_a-isattyr.o)
 .debug_frame   0x0000396c       0x2c c:/program files (x86)/microchip/xc32/v2.30/bin/bin/../../lib/gcc/pic32c/6.2.1/../../../../pic32c/lib\libc.a(lib_a-lseekr.o)
 .debug_frame   0x00003998       0x2c c:/program files (x86)/microchip/xc32/v2.30/bin/bin/../../lib/gcc/pic32c/6.2.1/../../../../pic32c/lib\libc.a(lib_a-readr.o)
 .debug_frame   0x000039c4       0x48 c:/program files (x86)/microchip/xc32/v2.30/bin/bin/../../lib/gcc/pic32c/6.2.1/../../../../pic32c/lib\libc.a(lib_a-reent.o)
 .debug_frame   0x00003a0c       0x48 c:/program files (x86)/microchip/xc32/v2.30/bin/bin/../../lib/gcc/pic32c/6.2.1/../../../../pic32c/lib\libc.a(lib_a-wbuf.o)
 .debug_frame   0x00003a54       0x4c c:/program files (x86)/microchip/xc32/v2.30/bin/bin/../../lib/gcc/pic32c/6.2.1/../../../../pic32c/lib\libc.a(lib_a-wcrtomb.o)
 .debug_frame   0x00003aa0       0x28 c:/program files (x86)/microchip/xc32/v2.30/bin/bin/../../lib/gcc/pic32c/6.2.1/../../../../pic32c/lib\libpic32c.a(_close.o)
 .debug_frame   0x00003ac8       0x28 c:/program files (x86)/microchip/xc32/v2.30/bin/bin/../../lib/gcc/pic32c/6.2.1/../../../../pic32c/lib\libpic32c.a(_fstat.o)
 .debug_frame   0x00003af0       0x28 c:/program files (x86)/microchip/xc32/v2.30/bin/bin/../../lib/gcc/pic32c/6.2.1/../../../../pic32c/lib\libpic32c.a(_isatty.o)
 .debug_frame   0x00003b18       0x28 c:/program files (x86)/microchip/xc32/v2.30/bin/bin/../../lib/gcc/pic32c/6.2.1/../../../../pic32c/lib\libpic32c.a(_lseek.o)
 .debug_frame   0x00003b40       0x28 c:/program files (x86)/microchip/xc32/v2.30/bin/bin/../../lib/gcc/pic32c/6.2.1/../../../../pic32c/lib\libpic32c.a(_read.o)
 .debug_frame   0x00003b68       0x20 c:/program files (x86)/microchip/xc32/v2.30/bin/bin/../../lib/gcc/pic32c/6.2.1/../../../../pic32c/lib\libpic32c.a(sbrk.o)
 .debug_frame   0x00003b88       0x28 c:/program files (x86)/microchip/xc32/v2.30/bin/bin/../../lib/gcc/pic32c/6.2.1/../../../../pic32c/lib\libpic32c.a(_write.o)
 .debug_frame   0x00003bb0       0x20 c:/program files (x86)/microchip/xc32/v2.30/bin/bin/../../lib/gcc/pic32c/6.2.1/../../../../pic32c/lib\libpic32c.a(close.o)
 .debug_frame   0x00003bd0       0x20 c:/program files (x86)/microchip/xc32/v2.30/bin/bin/../../lib/gcc/pic32c/6.2.1/../../../../pic32c/lib\libpic32c.a(fstat.o)
 .debug_frame   0x00003bf0       0x20 c:/program files (x86)/microchip/xc32/v2.30/bin/bin/../../lib/gcc/pic32c/6.2.1/../../../../pic32c/lib\libpic32c.a(isatty.o)
 .debug_frame   0x00003c10       0x20 c:/program files (x86)/microchip/xc32/v2.30/bin/bin/../../lib/gcc/pic32c/6.2.1/../../../../pic32c/lib\libpic32c.a(lseek.o)
 .debug_frame   0x00003c30       0x2c c:/program files (x86)/microchip/xc32/v2.30/bin/bin/../../lib/gcc/pic32c/6.2.1/../../../../pic32c/lib\libpic32c.a(read.o)
 .debug_frame   0x00003c5c       0x2c c:/program files (x86)/microchip/xc32/v2.30/bin/bin/../../lib/gcc/pic32c/6.2.1/../../../../pic32c/lib\libpic32c.a(write.o)
 .debug_frame   0x00003c88       0x2c c:/program files (x86)/microchip/xc32/v2.30/bin/bin/../../lib/gcc/pic32c/6.2.1\libgcc.a(unorddf2.o)

.stack          0x200049a0      0x100
 .stack         0x200049a0      0x100 stack

.bss.at_cmd_storage%1
                0x20001d3c      0x960
 .bss.at_cmd_storage
                0x20001d3c      0x960 build/default/production/_ext/1360937237/at_parser.o

.bss.drvUSART0BufferObjPool%2
                0x2000269c      0x800
 .bss.drvUSART0BufferObjPool
                0x2000269c      0x800 build/default/production/_ext/1171490990/initialization.o

.bss.drvUSART1BufferObjPool%3
                0x20002e9c      0x800
 .bss.drvUSART1BufferObjPool
                0x20002e9c      0x800 build/default/production/_ext/1171490990/initialization.o

.data.impure_data%4
                0x200036a0      0x418
 .data.impure_data
                0x200036a0      0x418 c:/program files (x86)/microchip/xc32/v2.30/bin/bin/../../lib/gcc/pic32c/6.2.1/../../../../pic32c/lib\libc.a(lib_a-impure.o)

.data.__malloc_av_%5
                0x20003ab8      0x408
 .data.__malloc_av_
                0x20003ab8      0x408 c:/program files (x86)/microchip/xc32/v2.30/bin/bin/../../lib/gcc/pic32c/6.2.1/../../../../pic32c/lib\libc.a(lib_a-mallocr.o)
                0x20003ab8                __malloc_av_

.bss.gps_GPRMCdata%6
                0x20003ec0      0x230
 .bss.gps_GPRMCdata
                0x20003ec0      0x230 build/default/production/_ext/1360937237/app2.o
                0x20003ec0                gps_GPRMCdata

.data.__global_locale%7
                0x200040f0      0x16c
 .data.__global_locale
                0x200040f0      0x16c c:/program files (x86)/microchip/xc32/v2.30/bin/bin/../../lib/gcc/pic32c/6.2.1/../../../../pic32c/lib\libc.a(lib_a-locale.o)
                0x200040f0                __global_locale

.bss.rxBuff%8   0x2000425c      0x105
 .bss.rxBuff    0x2000425c      0x105 build/default/production/_ext/1360937237/ext_flash.o

.bss.eicCallbackObject%9
                0x20004364       0xc0
 .bss.eicCallbackObject
                0x20004364       0xc0 build/default/production/_ext/60167341/plib_eic.o

.bss.gDrvUSARTObj%10
                0x20004424       0x98
 .bss.gDrvUSARTObj
                0x20004424       0x98 build/default/production/_ext/869808652/drv_usart.o

.bss.error%11   0x200044bc       0x64
 .bss.error     0x200044bc       0x64 build/default/production/_ext/1360937237/dev_adapter.o

.bss.sercom3USARTObj%12
                0x20004520       0x30
 .bss.sercom3USARTObj
                0x20004520       0x30 build/default/production/_ext/504274921/plib_sercom3_usart.o

.bss.sercom2USARTObj%13
                0x20004550       0x30
 .bss.sercom2USARTObj
                0x20004550       0x30 build/default/production/_ext/504274921/plib_sercom2_usart.o

.bss.samples.8804%14
                0x20004580       0x2c
 .bss.samples.8804
                0x20004580       0x2c build/default/production/_ext/1360937237/app.o

.bss.__malloc_current_mallinfo%15
                0x200045ac       0x28
 .bss.__malloc_current_mallinfo
                0x200045ac       0x28 c:/program files (x86)/microchip/xc32/v2.30/bin/bin/../../lib/gcc/pic32c/6.2.1/../../../../pic32c/lib\libc.a(lib_a-mallocr.o)
                0x200045ac                __malloc_current_mallinfo

.bss%16         0x200045d4       0x1c
 .bss           0x200045d4       0x1c c:/program files (x86)/microchip/xc32/v2.30/bin/bin/../../lib/gcc/pic32c/6.2.1/crtbegin.o

.bss.can0Obj%17
                0x200045f0       0x1c
 .bss.can0Obj   0x200045f0       0x1c build/default/production/_ext/60165182/plib_can0.o

.bss.samples.9263%18
                0x2000460c       0x14
 .bss.samples.9263
                0x2000460c       0x14 build/default/production/_ext/1360937237/app3.o

.bss.can0RxFifoCallbackObj%19
                0x20004620       0x10
 .bss.can0RxFifoCallbackObj
                0x20004620       0x10 build/default/production/_ext/60165182/plib_can0.o

.bss.drvUSART0ClientObjPool%20
                0x20004630       0x10
 .bss.drvUSART0ClientObjPool
                0x20004630       0x10 build/default/production/_ext/1171490990/initialization.o

.bss.drvUSART1ClientObjPool%21
                0x20004640       0x10
 .bss.drvUSART1ClientObjPool
                0x20004640       0x10 build/default/production/_ext/1171490990/initialization.o

.bss.rxFiFo1%22
                0x20004650       0x10
 .bss.rxFiFo1   0x20004650       0x10 build/default/production/_ext/1360937237/app4.o

.bss.systick%23
                0x20004660        0xc
 .bss.systick   0x20004660        0xc build/default/production/_ext/1827571544/plib_systick.o

.bss.latitude%24
                0x2000466c        0xa
 .bss.latitude  0x2000466c        0xa build/default/production/_ext/1360937237/gsm_gps.o

.bss.longitude%25
                0x20004678        0xa
 .bss.longitude
                0x20004678        0xa build/default/production/_ext/1360937237/gsm_gps.o

.bss.altitude%26
                0x20004684        0x9
 .bss.altitude  0x20004684        0x9 build/default/production/_ext/1360937237/gsm_gps.o

.bss.can0TxEventFifoCallbackObj%27
                0x20004690        0x8
 .bss.can0TxEventFifoCallbackObj
                0x20004690        0x8 build/default/production/_ext/60165182/plib_can0.o

.bss.can0TxFifoCallbackObj%28
                0x20004698        0x8
 .bss.can0TxFifoCallbackObj
                0x20004698        0x8 build/default/production/_ext/60165182/plib_can0.o

.bss.TC4_CallbackObject%29
                0x200046a0        0x8
 .bss.TC4_CallbackObject
                0x200046a0        0x8 build/default/production/_ext/829342655/plib_tc4.o

.bss.TC0_CallbackObject%30
                0x200046a8        0x8
 .bss.TC0_CallbackObject
                0x200046a8        0x8 build/default/production/_ext/829342655/plib_tc0.o

.bss.TC3_CallbackObject%31
                0x200046b0        0x8
 .bss.TC3_CallbackObject
                0x200046b0        0x8 build/default/production/_ext/829342655/plib_tc3.o

.bss.flt_avgfrq%32
                0x2000369c        0x4
 .bss.flt_avgfrq
                0x2000369c        0x4 build/default/production/_ext/1360937237/app.o
                0x2000369c                flt_avgfrq

.bss.i.8805%33  0x200046b8        0x4
 .bss.i.8805    0x200046b8        0x4 build/default/production/_ext/1360937237/app.o

.bss.total.8806%34
                0x200046bc        0x4
 .bss.total.8806
                0x200046bc        0x4 build/default/production/_ext/1360937237/app.o

.bss.u32_pulsecunt%35
                0x200046c0        0x4
 .bss.u32_pulsecunt
                0x200046c0        0x4 build/default/production/_ext/1360937237/app.o
                0x200046c0                u32_pulsecunt

.bss.u32_watchdogtimercnt%36
                0x200046c4        0x4
 .bss.u32_watchdogtimercnt
                0x200046c4        0x4 build/default/production/_ext/1360937237/app.o
                0x200046c4                u32_watchdogtimercnt

.bss.cb%37      0x200046c8        0x4
 .bss.cb        0x200046c8        0x4 build/default/production/_ext/1360937237/at_engine.o

.bss.cb_default%38
                0x200046cc        0x4
 .bss.cb_default
                0x200046cc        0x4 build/default/production/_ext/1360937237/at_engine.o

.bss.temp_timer%39
                0x200046d0        0x4
 .bss.temp_timer
                0x200046d0        0x4 build/default/production/_ext/1360937237/at_engine.o

.bss.data_ptr%40
                0x200046d4        0x4
 .bss.data_ptr  0x200046d4        0x4 build/default/production/_ext/1360937237/dev_adapter.o

.bss.timer%41   0x200046d8        0x4
 .bss.timer     0x200046d8        0x4 build/default/production/_ext/1360937237/dev_timer.o

.bss.timer_c%42
                0x200046dc        0x4
 .bss.timer_c   0x200046dc        0x4 build/default/production/_ext/1360937237/dev_timer.o

.bss.tempendaddr%43
                0x200046e0        0x4
 .bss.tempendaddr
                0x200046e0        0x4 build/default/production/_ext/1360937237/gsm_gps.o
                0x200046e0                tempendaddr

.bss.tempstartaddr%44
                0x200046e4        0x4
 .bss.tempstartaddr
                0x200046e4        0x4 build/default/production/_ext/1360937237/gsm_gps.o
                0x200046e4                tempstartaddr

.bss.u32_tempdiffaddr%45
                0x200046e8        0x4
 .bss.u32_tempdiffaddr
                0x200046e8        0x4 build/default/production/_ext/1360937237/gsm_gps.o
                0x200046e8                u32_tempdiffaddr

.data.latt%46   0x200046ec        0x4
 .data.latt     0x200046ec        0x4 build/default/production/_ext/1360937237/gsm_gps.o

.data.lonn%47   0x200046f0        0x4
 .data.lonn     0x200046f0        0x4 build/default/production/_ext/1360937237/gsm_gps.o

.bss.flt_gps_CourseOverGround%48
                0x200046f4        0x4
 .bss.flt_gps_CourseOverGround
                0x200046f4        0x4 build/default/production/_ext/1360937237/app2.o
                0x200046f4                flt_gps_CourseOverGround

.bss.flt_gps_SpeedOverGround%49
                0x200046f8        0x4
 .bss.flt_gps_SpeedOverGround
                0x200046f8        0x4 build/default/production/_ext/1360937237/app2.o
                0x200046f8                flt_gps_SpeedOverGround

.bss.tempsmr1.9279%50
                0x200046fc        0x4
 .bss.tempsmr1.9279
                0x200046fc        0x4 build/default/production/_ext/1360937237/app3.o

.bss.tempsmr2.9317%51
                0x20004700        0x4
 .bss.tempsmr2.9317
                0x20004700        0x4 build/default/production/_ext/1360937237/app3.o

.data.x.9264%52
                0x20004704        0x4
 .data.x.9264   0x20004704        0x4 build/default/production/_ext/1360937237/app3.o

.bss.rx_messageID%53
                0x20004708        0x4
 .bss.rx_messageID
                0x20004708        0x4 build/default/production/_ext/1360937237/app4.o
                0x20004708                rx_messageID

.bss.temprx_messageID%54
                0x2000470c        0x4
 .bss.temprx_messageID
                0x2000470c        0x4 build/default/production/_ext/1360937237/app4.o
                0x2000470c                temprx_messageID

.bss.xferContext%55
                0x20004710        0x4
 .bss.xferContext
                0x20004710        0x4 build/default/production/_ext/1360937237/app4.o

.data._impure_ptr%56
                0x20004714        0x4
 .data._impure_ptr
                0x20004714        0x4 c:/program files (x86)/microchip/xc32/v2.30/bin/bin/../../lib/gcc/pic32c/6.2.1/../../../../pic32c/lib\libc.a(lib_a-impure.o)
                0x20004714                _impure_ptr

.bss.__malloc_max_sbrked_mem%57
                0x20004718        0x4
 .bss.__malloc_max_sbrked_mem
                0x20004718        0x4 c:/program files (x86)/microchip/xc32/v2.30/bin/bin/../../lib/gcc/pic32c/6.2.1/../../../../pic32c/lib\libc.a(lib_a-mallocr.o)
                0x20004718                __malloc_max_sbrked_mem

.bss.__malloc_max_total_mem%58
                0x2000471c        0x4
 .bss.__malloc_max_total_mem
                0x2000471c        0x4 c:/program files (x86)/microchip/xc32/v2.30/bin/bin/../../lib/gcc/pic32c/6.2.1/../../../../pic32c/lib\libc.a(lib_a-mallocr.o)
                0x2000471c                __malloc_max_total_mem

.bss.__malloc_top_pad%59
                0x20004720        0x4
 .bss.__malloc_top_pad
                0x20004720        0x4 c:/program files (x86)/microchip/xc32/v2.30/bin/bin/../../lib/gcc/pic32c/6.2.1/../../../../pic32c/lib\libc.a(lib_a-mallocr.o)
                0x20004720                __malloc_top_pad

.data.__malloc_sbrk_base%60
                0x20004724        0x4
 .data.__malloc_sbrk_base
                0x20004724        0x4 c:/program files (x86)/microchip/xc32/v2.30/bin/bin/../../lib/gcc/pic32c/6.2.1/../../../../pic32c/lib\libc.a(lib_a-mallocr.o)
                0x20004724                __malloc_sbrk_base

.data.__malloc_trim_threshold%61
                0x20004728        0x4
 .data.__malloc_trim_threshold
                0x20004728        0x4 c:/program files (x86)/microchip/xc32/v2.30/bin/bin/../../lib/gcc/pic32c/6.2.1/../../../../pic32c/lib\libc.a(lib_a-mallocr.o)
                0x20004728                __malloc_trim_threshold

.bss%62         0x2000472c        0x4
 .bss           0x2000472c        0x4 c:/program files (x86)/microchip/xc32/v2.30/bin/bin/../../lib/gcc/pic32c/6.2.1/../../../../pic32c/lib\libpic32c.a(sbrk.o)

.bss.counter%63
                0x20004676        0x2
 .bss.counter   0x20004676        0x2 build/default/production/_ext/1360937237/app.o
                0x20004676                counter

.bss.mincount.8810%64
                0x20004682        0x2
 .bss.mincount.8810
                0x20004682        0x2 build/default/production/_ext/1360937237/app.o

.bss.u16_gerrercode1blkcnt%65
                0x20004362        0x2
 .bss.u16_gerrercode1blkcnt
                0x20004362        0x2 build/default/production/_ext/1360937237/app.o
                0x20004362                u16_gerrercode1blkcnt

.bss.u16_gerrercode2blkcnt%66
                0x2000468e        0x2
 .bss.u16_gerrercode2blkcnt
                0x2000468e        0x2 build/default/production/_ext/1360937237/app.o
                0x2000468e                u16_gerrercode2blkcnt

.bss.u16_gerrercode3blkcnt%67
                0x20004730        0x2
 .bss.u16_gerrercode3blkcnt
                0x20004730        0x2 build/default/production/_ext/1360937237/app.o
                0x20004730                u16_gerrercode3blkcnt

.bss.u16_loopcounter%68
                0x20004732        0x2
 .bss.u16_loopcounter
                0x20004732        0x2 build/default/production/_ext/1360937237/app.o
                0x20004732                u16_loopcounter

.bss.uint_avgfrqcnt%69
                0x20004734        0x2
 .bss.uint_avgfrqcnt
                0x20004734        0x2 build/default/production/_ext/1360937237/app.o
                0x20004734                uint_avgfrqcnt

.bss.uint_frq%70
                0x20004736        0x2
 .bss.uint_frq  0x20004736        0x2 build/default/production/_ext/1360937237/app.o
                0x20004736                uint_frq

.bss.rx_idx%71  0x20004738        0x2
 .bss.rx_idx    0x20004738        0x2 build/default/production/_ext/1360937237/dev_adapter.o

.bss.sentdataofSI1.8809%72
                0x2000473a        0x2
 .bss.sentdataofSI1.8809
                0x2000473a        0x2 build/default/production/_ext/1360937237/gsm_gps.o

.bss.sentdataofSI2.8810%73
                0x2000473c        0x2
 .bss.sentdataofSI2.8810
                0x2000473c        0x2 build/default/production/_ext/1360937237/gsm_gps.o

.bss.sentdataofSI3.8811%74
                0x2000473e        0x2
 .bss.sentdataofSI3.8811
                0x2000473e        0x2 build/default/production/_ext/1360937237/gsm_gps.o

.bss.sentdataofSI4.8812%75
                0x20004740        0x2
 .bss.sentdataofSI4.8812
                0x20004740        0x2 build/default/production/_ext/1360937237/gsm_gps.o

.bss.sentdataofSI5.8813%76
                0x20004742        0x2
 .bss.sentdataofSI5.8813
                0x20004742        0x2 build/default/production/_ext/1360937237/gsm_gps.o

.bss.sentdataofSI6.8814%77
                0x20004744        0x2
 .bss.sentdataofSI6.8814
                0x20004744        0x2 build/default/production/_ext/1360937237/gsm_gps.o

.bss.uint_datasentcount%78
                0x20004746        0x2
 .bss.uint_datasentcount
                0x20004746        0x2 build/default/production/_ext/1360937237/gsm_gps.o
                0x20004746                uint_datasentcount

.bss.b_Hydraulicoilfilterclog%79
                0x20004361        0x1
 .bss.b_Hydraulicoilfilterclog
                0x20004361        0x1 build/default/production/_ext/1360937237/app.o
                0x20004361                b_Hydraulicoilfilterclog

.bss.b_IgnitionON%80
                0x2000468d        0x1
 .bss.b_IgnitionON
                0x2000468d        0x1 build/default/production/_ext/1360937237/app.o
                0x2000468d                b_IgnitionON

.bss.b_LubeOilPressure%81
                0x20004748        0x1
 .bss.b_LubeOilPressure
                0x20004748        0x1 build/default/production/_ext/1360937237/app.o
                0x20004748                b_LubeOilPressure

.bss.b_airfiltercool%82
                0x20004749        0x1
 .bss.b_airfiltercool
                0x20004749        0x1 build/default/production/_ext/1360937237/app.o
                0x20004749                b_airfiltercool

.bss.b_highenginteperature%83
                0x2000474a        0x1
 .bss.b_highenginteperature
                0x2000474a        0x1 build/default/production/_ext/1360937237/app.o
                0x2000474a                b_highenginteperature

.bss.b_speare1%84
                0x2000474b        0x1
 .bss.b_speare1
                0x2000474b        0x1 build/default/production/_ext/1360937237/app.o
                0x2000474b                b_speare1

.bss.b_speare2%85
                0x2000474c        0x1
 .bss.b_speare2
                0x2000474c        0x1 build/default/production/_ext/1360937237/app.o
                0x2000474c                b_speare2

.bss.b_speare3%86
                0x2000474d        0x1
 .bss.b_speare3
                0x2000474d        0x1 build/default/production/_ext/1360937237/app.o
                0x2000474d                b_speare3

.bss.bl_pulsevalidestate%87
                0x2000474e        0x1
 .bss.bl_pulsevalidestate
                0x2000474e        0x1 build/default/production/_ext/1360937237/app.o
                0x2000474e                bl_pulsevalidestate

.bss.new_gpsdataset%88
                0x2000474f        0x1
 .bss.new_gpsdataset
                0x2000474f        0x1 build/default/production/_ext/1360937237/app.o
                0x2000474f                new_gpsdataset

.bss.newdataEN1%89
                0x20004750        0x1
 .bss.newdataEN1
                0x20004750        0x1 build/default/production/_ext/1360937237/app.o
                0x20004750                newdataEN1

.bss.newdataEN2%90
                0x20004751        0x1
 .bss.newdataEN2
                0x20004751        0x1 build/default/production/_ext/1360937237/app.o
                0x20004751                newdataEN2

.bss.newdataupdated%91
                0x20004752        0x1
 .bss.newdataupdated
                0x20004752        0x1 build/default/production/_ext/1360937237/app.o
                0x20004752                newdataupdated

.bss.switchsrtpress%92
                0x20004753        0x1
 .bss.switchsrtpress
                0x20004753        0x1 build/default/production/_ext/1360937237/app.o
                0x20004753                switchsrtpress

.bss.timedout%93
                0x20004754        0x1
 .bss.timedout  0x20004754        0x1 build/default/production/_ext/1360937237/app.o
                0x20004754                timedout

.bss.u8_SAVING2MEM%94
                0x20004755        0x1
 .bss.u8_SAVING2MEM
                0x20004755        0x1 build/default/production/_ext/1360937237/app.o
                0x20004755                u8_SAVING2MEM

.bss.u8_freshdatamemlocNo%95
                0x20004756        0x1
 .bss.u8_freshdatamemlocNo
                0x20004756        0x1 build/default/production/_ext/1360937237/app.o
                0x20004756                u8_freshdatamemlocNo

.bss.u8_gerrercode1%96
                0x20004757        0x1
 .bss.u8_gerrercode1
                0x20004757        0x1 build/default/production/_ext/1360937237/app.o
                0x20004757                u8_gerrercode1

.bss.u8_gerrercode2%97
                0x20004758        0x1
 .bss.u8_gerrercode2
                0x20004758        0x1 build/default/production/_ext/1360937237/app.o
                0x20004758                u8_gerrercode2

.bss.u8_gerrercode3%98
                0x20004759        0x1
 .bss.u8_gerrercode3
                0x20004759        0x1 build/default/production/_ext/1360937237/app.o
                0x20004759                u8_gerrercode3

.bss.u8_newdataset1%99
                0x2000475a        0x1
 .bss.u8_newdataset1
                0x2000475a        0x1 build/default/production/_ext/1360937237/app.o
                0x2000475a                u8_newdataset1

.bss.u8_newdataset2%100
                0x2000475b        0x1
 .bss.u8_newdataset2
                0x2000475b        0x1 build/default/production/_ext/1360937237/app.o
                0x2000475b                u8_newdataset2

.bss.uchr_pastMin%101
                0x2000475c        0x1
 .bss.uchr_pastMin
                0x2000475c        0x1 build/default/production/_ext/1360937237/app.o
                0x2000475c                uchr_pastMin

.bss.at_cmd_storage_used%102
                0x2000475d        0x1
 .bss.at_cmd_storage_used
                0x2000475d        0x1 build/default/production/_ext/1360937237/at_parser.o

.bss.header_size%103
                0x2000475e        0x1
 .bss.header_size
                0x2000475e        0x1 build/default/production/_ext/1360937237/at_parser.o

.bss.data_f%104
                0x2000475f        0x1
 .bss.data_f    0x2000475f        0x1 build/default/production/_ext/1360937237/dev_adapter.o

.bss.data_t%105
                0x20004760        0x1
 .bss.data_t    0x20004760        0x1 build/default/production/_ext/1360937237/dev_adapter.o

.bss.err_c%106  0x20004761        0x1
 .bss.err_c     0x20004761        0x1 build/default/production/_ext/1360937237/dev_adapter.o

.bss.err_f%107  0x20004762        0x1
 .bss.err_f     0x20004762        0x1 build/default/production/_ext/1360937237/dev_adapter.o

.bss.frag_f%108
                0x20004763        0x1
 .bss.frag_f    0x20004763        0x1 build/default/production/_ext/1360937237/dev_adapter.o

.bss.head_f%109
                0x20004764        0x1
 .bss.head_f    0x20004764        0x1 build/default/production/_ext/1360937237/dev_adapter.o

.bss.head_t%110
                0x20004765        0x1
 .bss.head_t    0x20004765        0x1 build/default/production/_ext/1360937237/dev_adapter.o

.bss.summ_f%111
                0x20004766        0x1
 .bss.summ_f    0x20004766        0x1 build/default/production/_ext/1360937237/dev_adapter.o

.bss.summ_t%112
                0x20004767        0x1
 .bss.summ_t    0x20004767        0x1 build/default/production/_ext/1360937237/dev_adapter.o

.bss.term_f%113
                0x20004768        0x1
 .bss.term_f    0x20004768        0x1 build/default/production/_ext/1360937237/dev_adapter.o

.bss.timer_f%114
                0x20004769        0x1
 .bss.timer_f   0x20004769        0x1 build/default/production/_ext/1360937237/dev_timer.o

.bss.loc_update_f%115
                0x2000476a        0x1
 .bss.loc_update_f
                0x2000476a        0x1 build/default/production/_ext/1360937237/gsm_gps.o
                0x2000476a                loc_update_f

.bss.onlinemode%116
                0x2000476b        0x1
 .bss.onlinemode
                0x2000476b        0x1 build/default/production/_ext/1360937237/gsm_gps.o
                0x2000476b                onlinemode

.bss.onlinemodecnt%117
                0x2000476c        0x1
 .bss.onlinemodecnt
                0x2000476c        0x1 build/default/production/_ext/1360937237/gsm_gps.o

.bss.req_pend_f%118
                0x2000476d        0x1
 .bss.req_pend_f
                0x2000476d        0x1 build/default/production/_ext/1360937237/gsm_gps.o
                0x2000476d                req_pend_f

.bss.u8_SSid%119
                0x2000476e        0x1
 .bss.u8_SSid   0x2000476e        0x1 build/default/production/_ext/1360937237/gsm_gps.o
                0x2000476e                u8_SSid

.bss.u8_SSid1error%120
                0x2000476f        0x1
 .bss.u8_SSid1error
                0x2000476f        0x1 build/default/production/_ext/1360937237/gsm_gps.o
                0x2000476f                u8_SSid1error

.bss.u8_SSid2error%121
                0x20004770        0x1
 .bss.u8_SSid2error
                0x20004770        0x1 build/default/production/_ext/1360937237/gsm_gps.o
                0x20004770                u8_SSid2error

.bss.u8_SSid3error%122
                0x20004771        0x1
 .bss.u8_SSid3error
                0x20004771        0x1 build/default/production/_ext/1360937237/gsm_gps.o
                0x20004771                u8_SSid3error

.bss.u8_SSid4error%123
                0x20004772        0x1
 .bss.u8_SSid4error
                0x20004772        0x1 build/default/production/_ext/1360937237/gsm_gps.o
                0x20004772                u8_SSid4error

.bss.u8_SSid5error%124
                0x20004773        0x1
 .bss.u8_SSid5error
                0x20004773        0x1 build/default/production/_ext/1360937237/gsm_gps.o
                0x20004773                u8_SSid5error

.bss.u8_SSid6error%125
                0x20004774        0x1
 .bss.u8_SSid6error
                0x20004774        0x1 build/default/production/_ext/1360937237/gsm_gps.o
                0x20004774                u8_SSid6error

.bss.u8_datasendEN%126
                0x20004775        0x1
 .bss.u8_datasendEN
                0x20004775        0x1 build/default/production/_ext/1360937237/gsm_gps.o
                0x20004775                u8_datasendEN

.bss.ch_gpstimereloadstatuse%127
                0x20004776        0x1
 .bss.ch_gpstimereloadstatuse
                0x20004776        0x1 build/default/production/_ext/1360937237/app2.o
                0x20004776                ch_gpstimereloadstatuse

.bss.Device_Id%128
                0x20004777        0x1
 .bss.Device_Id
                0x20004777        0x1 build/default/production/_ext/1360937237/app3.o
                0x20004777                Device_Id

.bss.Device_Type%129
                0x20004778        0x1
 .bss.Device_Type
                0x20004778        0x1 build/default/production/_ext/1360937237/app3.o
                0x20004778                Device_Type

.bss.Manufacturer_Id%130
                0x20004779        0x1
 .bss.Manufacturer_Id
                0x20004779        0x1 build/default/production/_ext/1360937237/app3.o
                0x20004779                Manufacturer_Id

.bss.isTransferDone%131
                0x2000477a        0x1
 .bss.isTransferDone
                0x2000477a        0x1 build/default/production/_ext/1360937237/app3.o
                0x2000477a                isTransferDone

.bss.rx_E000set%132
                0x2000477b        0x1
 .bss.rx_E000set
                0x2000477b        0x1 build/default/production/_ext/1360937237/app4.o
                0x2000477b                rx_E000set

.bss.rx_F004set%133
                0x2000477c        0x1
 .bss.rx_F004set
                0x2000477c        0x1 build/default/production/_ext/1360937237/app4.o
                0x2000477c                rx_F004set

.bss.rx_FD07set%134
                0x2000477d        0x1
 .bss.rx_FD07set
                0x2000477d        0x1 build/default/production/_ext/1360937237/app4.o
                0x2000477d                rx_FD07set

.bss.rx_FE68set%135
                0x2000477e        0x1
 .bss.rx_FE68set
                0x2000477e        0x1 build/default/production/_ext/1360937237/app4.o
                0x2000477e                rx_FE68set

.bss.rx_FEE5set%136
                0x2000477f        0x1
 .bss.rx_FEE5set
                0x2000477f        0x1 build/default/production/_ext/1360937237/app4.o
                0x2000477f                rx_FEE5set

.bss.rx_FEEEset%137
                0x20004780        0x1
 .bss.rx_FEEEset
                0x20004780        0x1 build/default/production/_ext/1360937237/app4.o
                0x20004780                rx_FEEEset

.bss.rx_FEEFset%138
                0x20004781        0x1
 .bss.rx_FEEFset
                0x20004781        0x1 build/default/production/_ext/1360937237/app4.o
                0x20004781                rx_FEEFset

.bss.rx_FEF7set%139
                0x20004782        0x1
 .bss.rx_FEF7set
                0x20004782        0x1 build/default/production/_ext/1360937237/app4.o
                0x20004782                rx_FEF7set

.bss.rx_FEFCset%140
                0x20004783        0x1
 .bss.rx_FEFCset
                0x20004783        0x1 build/default/production/_ext/1360937237/app4.o
                0x20004783                rx_FEFCset

.bss.rx_set%141
                0x20004784        0x1
 .bss.rx_set    0x20004784        0x1 build/default/production/_ext/1360937237/app4.o
                0x20004784                rx_set

.data.state%142
                0x20004785        0x1
 .data.state    0x20004785        0x1 build/default/production/_ext/1360937237/app4.o

.eh_frame%z1    0x00000000        0x0
 .eh_frame      0x00000000        0x0 c:/program files (x86)/microchip/xc32/v2.30/bin/bin/../../lib/gcc/pic32c/6.2.1/crtbegin.o

.rodata.SET_SECURITY_BIT%143
                0x41004000        0x4
 .rodata.SET_SECURITY_BIT
                0x41004000        0x4 build/default/production/_ext/1171490990/initialization.o
                0x41004000                SET_SECURITY_BIT

.text._vfprintf_r%144
                0x000000e4     0x1574
 .text._vfprintf_r
                0x000000e4     0x1574 c:/program files (x86)/microchip/xc32/v2.30/bin/bin/../../lib/gcc/pic32c/6.2.1/../../../../pic32c/lib\libc.a(lib_a-vfprintf.o)
                0x000000e4                _vfprintf_r

.text._svfprintf_r%145
                0x00001658     0x1528
 .text._svfprintf_r
                0x00001658     0x1528 c:/program files (x86)/microchip/xc32/v2.30/bin/bin/../../lib/gcc/pic32c/6.2.1/../../../../pic32c/lib\libc.a(lib_a-svfprintf.o)
                0x00001658                _svfprintf_r

.dinit%146      0x00002b80     0x10d0
 .dinit         0x00002b80     0x10d0 data_init

.text.mydata_sendiot_onlinemode%147
                0x00003c50     0x1084
 .text.mydata_sendiot_onlinemode
                0x00003c50     0x1084 build/default/production/_ext/1360937237/gsm_gps.o
                0x00003c50                mydata_sendiot_onlinemode

.text._strtod_l%148
                0x00004cd4      0xc0c
 .text._strtod_l
                0x00004cd4      0xc0c c:/program files (x86)/microchip/xc32/v2.30/bin/bin/../../lib/gcc/pic32c/6.2.1/../../../../pic32c/lib\libc.a(lib_a-strtod.o)
                0x00004cd4                _strtod_l

.text._dtoa_r%149
                0x000058e0      0xbc8
 .text._dtoa_r  0x000058e0      0xbc8 c:/program files (x86)/microchip/xc32/v2.30/bin/bin/../../lib/gcc/pic32c/6.2.1/../../../../pic32c/lib\libc.a(lib_a-dtoa.o)
                0x000058e0                _dtoa_r

.text.can_recdata%150
                0x000064a8      0x7d8
 .text.can_recdata
                0x000064a8      0x7d8 build/default/production/_ext/1360937237/app4.o
                0x000064a8                can_recdata

.text%151       0x00006c80      0x5b0
 .text          0x00006c80      0x5b0 c:/program files (x86)/microchip/xc32/v2.30/bin/bin/../../lib/gcc/pic32c/6.2.1\libgcc.a(subdf3.o)
                0x00006c80                __aeabi_dsub

.rodata%152     0x00007230      0x5a0
 .rodata        0x00007230      0x5a0 build/default/production/_ext/1360937237/app3.o

.text%153       0x000077d0      0xae4
 .text          0x000077d0      0x5a0 c:/program files (x86)/microchip/xc32/v2.30/bin/bin/../../lib/gcc/pic32c/6.2.1\libgcc.a(adddf3.o)
                0x000077d0                __aeabi_dadd
 .text          0x00007d70      0x544 c:/program files (x86)/microchip/xc32/v2.30/bin/bin/../../lib/gcc/pic32c/6.2.1\libgcc.a(divdf3.o)
                0x00007d70                __aeabi_ddiv

.text.loadgpsdata%155
                0x000082b4      0x4e4
 .text.loadgpsdata
                0x000082b4      0x4e4 build/default/production/_ext/1360937237/app2.o
                0x000082b4                loadgpsdata

.text.savelivedatatotempmem1%156
                0x00008798      0x4d0
 .text.savelivedatatotempmem1
                0x00008798      0x4d0 build/default/production/_ext/1360937237/app3.o
                0x00008798                savelivedatatotempmem1

.text.savelivedatatotempmem2%157
                0x00008c68      0x4a4
 .text.savelivedatatotempmem2
                0x00008c68      0x4a4 build/default/production/_ext/1360937237/app3.o
                0x00008c68                savelivedatatotempmem2

.rodata%158     0x0000910c      0x464
 .rodata        0x0000910c      0x464 build/default/production/_ext/1360937237/app4.o

.text.__gethex%159
                0x00009570      0x44e
 .text.__gethex
                0x00009570      0x44e c:/program files (x86)/microchip/xc32/v2.30/bin/bin/../../lib/gcc/pic32c/6.2.1/../../../../pic32c/lib\libc.a(lib_a-gdtoa-gethex.o)
                0x00009570                __gethex

.text%160       0x000099c0      0x424
 .text          0x000099c0      0x424 c:/program files (x86)/microchip/xc32/v2.30/bin/bin/../../lib/gcc/pic32c/6.2.1\libgcc.a(muldf3.o)
                0x000099c0                __aeabi_dmul

.text.myat_cmd3%161
                0x00009de4      0x408
 .text.myat_cmd3
                0x00009de4      0x408 build/default/production/_ext/1360937237/at_engine.o
                0x00009de4                myat_cmd3

.text._malloc_r%162
                0x0000a1ec      0x3ec
 .text._malloc_r
                0x0000a1ec      0x3ec c:/program files (x86)/microchip/xc32/v2.30/bin/bin/../../lib/gcc/pic32c/6.2.1/../../../../pic32c/lib\libc.a(lib_a-mallocr.o)
                0x0000a1ec                _malloc_r

.rodata%163     0x0000a5d8      0x3a0
 .rodata        0x0000a5d8      0x3a0 build/default/production/_ext/1360937237/gsm_gps.o

.text.myatSIstaus_cmd%164
                0x0000a978      0x39c
 .text.myatSIstaus_cmd
                0x0000a978      0x39c build/default/production/_ext/1360937237/at_engine.o
                0x0000a978                myatSIstaus_cmd

.text.myat_cmd%165
                0x0000ad14      0x38c
 .text.myat_cmd
                0x0000ad14      0x38c build/default/production/_ext/1360937237/at_engine.o
                0x0000ad14                myat_cmd

.text._realloc_r%166
                0x0000b0a0      0x2f8
 .text._realloc_r
                0x0000b0a0      0x2f8 c:/program files (x86)/microchip/xc32/v2.30/bin/bin/../../lib/gcc/pic32c/6.2.1/../../../../pic32c/lib\libc.a(lib_a-reallocr.o)
                0x0000b0a0                _realloc_r

.text%167       0x0000b398      0x5d8
 .text          0x0000b398      0x2f4 c:/program files (x86)/microchip/xc32/v2.30/bin/bin/../../lib/gcc/pic32c/6.2.1\libgcc.a(subsf3.o)
                0x0000b398                __aeabi_fsub
 .text          0x0000b68c      0x2e4 c:/program files (x86)/microchip/xc32/v2.30/bin/bin/../../lib/gcc/pic32c/6.2.1\libgcc.a(addsf3.o)
                0x0000b68c                __aeabi_fadd

.text.APP3_Tasks%169
                0x0000b970      0x2d4
 .text.APP3_Tasks
                0x0000b970      0x2d4 build/default/production/_ext/1360937237/app3.o
                0x0000b970                APP3_Tasks

.rodata%170     0x0000bc44      0x2b0
 .rodata        0x0000bc44      0x2b0 build/default/production/_ext/1360937237/at_engine.o

.text.__sfvwrite_r%171
                0x0000bef4      0x2ac
 .text.__sfvwrite_r
                0x0000bef4      0x2ac c:/program files (x86)/microchip/xc32/v2.30/bin/bin/../../lib/gcc/pic32c/6.2.1/../../../../pic32c/lib\libc.a(lib_a-fvwrite.o)
                0x0000bef4                __sfvwrite_r

.text.gsm_gps_init%172
                0x0000c1a0      0x274
 .text.gsm_gps_init
                0x0000c1a0      0x274 build/default/production/_ext/1360937237/gsm_gps.o
                0x0000c1a0                gsm_gps_init

.text.APP_Tasks%173
                0x0000c414      0x264
 .text.APP_Tasks
                0x0000c414      0x264 build/default/production/_ext/1360937237/app.o
                0x0000c414                APP_Tasks

.text.dev_rx%174
                0x0000c678      0x22c
 .text.dev_rx   0x0000c678      0x22c build/default/production/_ext/1360937237/dev_adapter.o
                0x0000c678                dev_rx

.text.myat_cmd2%175
                0x0000c8a4      0x214
 .text.myat_cmd2
                0x0000c8a4      0x214 build/default/production/_ext/1360937237/at_engine.o
                0x0000c8a4                myat_cmd2

.text.loadmemorydata%176
                0x0000cab8      0x210
 .text.loadmemorydata
                0x0000cab8      0x210 build/default/production/_ext/1360937237/app3.o
                0x0000cab8                loadmemorydata

.text.timeout_handler%177
                0x0000ccc8      0x20c
 .text.timeout_handler
                0x0000ccc8      0x20c build/default/production/_ext/1360937237/app.o
                0x0000ccc8                timeout_handler

.text.loadlivedata1%178
                0x0000ced4      0x1f8
 .text.loadlivedata1
                0x0000ced4      0x1f8 build/default/production/_ext/1360937237/app3.o
                0x0000ced4                loadlivedata1

.text.loadlivedata2%179
                0x0000d0cc      0x1f8
 .text.loadlivedata2
                0x0000d0cc      0x1f8 build/default/production/_ext/1360937237/app3.o
                0x0000d0cc                loadlivedata2

.text.candata_filter%180
                0x0000d2c4      0x1f4
 .text.candata_filter
                0x0000d2c4      0x1f4 build/default/production/_ext/1360937237/app3.o
                0x0000d2c4                candata_filter

.text.print_message%181
                0x0000d4b8      0x1e8
 .text.print_message
                0x0000d4b8      0x1e8 build/default/production/_ext/1360937237/app4.o

.text.TC0_Callback_InterruptHandler%182
                0x0000d6a0      0x1d4
 .text.TC0_Callback_InterruptHandler
                0x0000d6a0      0x1d4 build/default/production/_ext/1360937237/app.o
                0x0000d6a0                TC0_Callback_InterruptHandler

.text.SERCOM0_SPI_WriteRead%183
                0x0000d874      0x1cc
 .text.SERCOM0_SPI_WriteRead
                0x0000d874      0x1cc build/default/production/_ext/17022449/plib_sercom0_spi_master.o
                0x0000d874                SERCOM0_SPI_WriteRead

.text%184       0x0000da40      0x1c0
 .text          0x0000da40      0x1c0 c:/program files (x86)/microchip/xc32/v2.30/bin/bin/../../lib/gcc/pic32c/6.2.1\libgcc.a(divsf3.o)
                0x0000da40                __aeabi_fdiv

.text.saveunsenddata1%185
                0x0000dc00      0x1ac
 .text.saveunsenddata1
                0x0000dc00      0x1ac build/default/production/_ext/1360937237/app3.o
                0x0000dc00                saveunsenddata1

.text.saveunsenddata2%186
                0x0000ddac      0x1ac
 .text.saveunsenddata2
                0x0000ddac      0x1ac build/default/production/_ext/1360937237/app3.o
                0x0000ddac                saveunsenddata2

.text.at_parse%187
                0x0000df58      0x19c
 .text.at_parse
                0x0000df58      0x19c build/default/production/_ext/1360937237/at_parser.o
                0x0000df58                at_parse

.text.SERCOM3_USART_InterruptHandler%188
                0x0000e0f4      0x180
 .text.SERCOM3_USART_InterruptHandler
                0x0000e0f4      0x180 build/default/production/_ext/504274921/plib_sercom3_usart.o
                0x0000e0f4                SERCOM3_USART_InterruptHandler

.text.SERCOM2_USART_InterruptHandler%189
                0x0000e274      0x180
 .text.SERCOM2_USART_InterruptHandler
                0x0000e274      0x180 build/default/production/_ext/504274921/plib_sercom2_usart.o
                0x0000e274                SERCOM2_USART_InterruptHandler

.text._DRV_USART_BufferAdd%190
                0x0000e3f4      0x174
 .text._DRV_USART_BufferAdd
                0x0000e3f4      0x174 build/default/production/_ext/869808652/drv_usart.o

.text._free_r%191
                0x0000e568      0x168
 .text._free_r  0x0000e568      0x168 c:/program files (x86)/microchip/xc32/v2.30/bin/bin/../../lib/gcc/pic32c/6.2.1/../../../../pic32c/lib\libc.a(lib_a-freer.o)
                0x0000e568                _free_r

.text.CLOCK_Initialize%192
                0x0000e6d0      0x154
 .text.CLOCK_Initialize
                0x0000e6d0      0x154 build/default/production/_ext/1984496892/plib_clock.o
                0x0000e6d0                CLOCK_Initialize

.text.DRV_USART_Open%193
                0x0000e824      0x14c
 .text.DRV_USART_Open
                0x0000e824      0x14c build/default/production/_ext/869808652/drv_usart.o
                0x0000e824                DRV_USART_Open

.text.setvbuf%194
                0x0000e970      0x140
 .text.setvbuf  0x0000e970      0x140 c:/program files (x86)/microchip/xc32/v2.30/bin/bin/../../lib/gcc/pic32c/6.2.1/../../../../pic32c/lib\libc.a(lib_a-setvbuf.o)
                0x0000e970                setvbuf

.text.__sflush_r%195
                0x0000eab0      0x130
 .text.__sflush_r
                0x0000eab0      0x130 c:/program files (x86)/microchip/xc32/v2.30/bin/bin/../../lib/gcc/pic32c/6.2.1/../../../../pic32c/lib\libc.a(lib_a-fflush.o)
                0x0000eab0                __sflush_r

.text.__hexnan%196
                0x0000ebe0      0x12e
 .text.__hexnan
                0x0000ebe0      0x12e c:/program files (x86)/microchip/xc32/v2.30/bin/bin/../../lib/gcc/pic32c/6.2.1/../../../../pic32c/lib\libc.a(lib_a-gdtoa-hexnan.o)
                0x0000ebe0                __hexnan

.text.SERCOM3_USART_SerialSetup%197
                0x0000ed10      0x12c
 .text.SERCOM3_USART_SerialSetup
                0x0000ed10      0x12c build/default/production/_ext/504274921/plib_sercom3_usart.o
                0x0000ed10                SERCOM3_USART_SerialSetup

.text.SERCOM2_USART_SerialSetup%198
                0x0000ee3c      0x12c
 .text.SERCOM2_USART_SerialSetup
                0x0000ee3c      0x12c build/default/production/_ext/504274921/plib_sercom2_usart.o
                0x0000ee3c                SERCOM2_USART_SerialSetup

.text.__multiply%199
                0x0000ef68      0x11e
 .text.__multiply
                0x0000ef68      0x11e c:/program files (x86)/microchip/xc32/v2.30/bin/bin/../../lib/gcc/pic32c/6.2.1/../../../../pic32c/lib\libc.a(lib_a-mprec.o)
                0x0000ef68                __multiply

.text._APP2_UART_ReceiveCallback%200
                0x0000f088      0x114
 .text._APP2_UART_ReceiveCallback
                0x0000f088      0x114 build/default/production/_ext/1360937237/app2.o

.text._strtol_l.isra.0%201
                0x0000f19c      0x10c
 .text._strtol_l.isra.0
                0x0000f19c      0x10c c:/program files (x86)/microchip/xc32/v2.30/bin/bin/../../lib/gcc/pic32c/6.2.1/../../../../pic32c/lib\libc.a(lib_a-strtol.o)

.text.quorem%202
                0x0000f2a8      0x108
 .text.quorem   0x0000f2a8      0x108 c:/program files (x86)/microchip/xc32/v2.30/bin/bin/../../lib/gcc/pic32c/6.2.1/../../../../pic32c/lib\libc.a(lib_a-dtoa.o)

.rodata._ctype_%203
                0x0000f3b0      0x101
 .rodata._ctype_
                0x0000f3b0      0x101 c:/program files (x86)/microchip/xc32/v2.30/bin/bin/../../lib/gcc/pic32c/6.2.1/../../../../pic32c/lib\libc.a(lib_a-ctype_.o)
                0x0000f3b0                _ctype_

.rodata.nvm_user_start_address%204
                0x0000f500      0x100
 .rodata.nvm_user_start_address
                0x0000f500      0x100 build/default/production/_ext/1360937237/app.o
                0x0000f500                nvm_user_start_address

.text%205       0x0000f600      0x100
 .text          0x0000f600      0x100 c:/program files (x86)/microchip/xc32/v2.30/bin/bin/../../lib/gcc/pic32c/6.2.1\libgcc.a(truncdfsf2.o)
                0x0000f600                __aeabi_d2f

.text.__ssprint_r%206
                0x0000f700       0xfc
 .text.__ssprint_r
                0x0000f700       0xfc c:/program files (x86)/microchip/xc32/v2.30/bin/bin/../../lib/gcc/pic32c/6.2.1/../../../../pic32c/lib\libc.a(lib_a-svfiprintf.o)
                0x0000f700                __ssprint_r

.text._DRV_USART_BufferQueueTask%207
                0x0000f7fc       0xec
 .text._DRV_USART_BufferQueueTask
                0x0000f7fc       0xec build/default/production/_ext/869808652/drv_usart.o

.text%208       0x0000f8e8       0xe2
 .text          0x0000f8e8       0xe2 c:/program files (x86)/microchip/xc32/v2.30/bin/bin/../../lib/gcc/pic32c/6.2.1\libgcc.a(_udivmoddi4.o)
                0x0000f8e8                __udivmoddi4

.text.gps_evn_location%209
                0x0000f9cc       0xdc
 .text.gps_evn_location
                0x0000f9cc       0xdc build/default/production/_ext/1360937237/gsm_gps.o
                0x0000f9cc                gps_evn_location

.text.APP4_Tasks%210
                0x0000faa8       0xdc
 .text.APP4_Tasks
                0x0000faa8       0xdc build/default/production/_ext/1360937237/app4.o
                0x0000faa8                APP4_Tasks

.text.CAN0_MessageReceiveFifo%211
                0x0000fb84       0xd8
 .text.CAN0_MessageReceiveFifo
                0x0000fb84       0xd8 build/default/production/_ext/60165182/plib_can0.o
                0x0000fb84                CAN0_MessageReceiveFifo

.text.__mdiff%212
                0x0000fc5c       0xc8
 .text.__mdiff  0x0000fc5c       0xc8 c:/program files (x86)/microchip/xc32/v2.30/bin/bin/../../lib/gcc/pic32c/6.2.1/../../../../pic32c/lib\libc.a(lib_a-mprec.o)
                0x0000fc5c                __mdiff

.rodata.__mprec_tens%213
                0x0000fd28       0xc8
 .rodata.__mprec_tens
                0x0000fd28       0xc8 c:/program files (x86)/microchip/xc32/v2.30/bin/bin/../../lib/gcc/pic32c/6.2.1/../../../../pic32c/lib\libc.a(lib_a-mprec.o)
                0x0000fd28                __mprec_tens

.text.__swsetup_r%214
                0x0000fdf0       0xc4
 .text.__swsetup_r
                0x0000fdf0       0xc4 c:/program files (x86)/microchip/xc32/v2.30/bin/bin/../../lib/gcc/pic32c/6.2.1/../../../../pic32c/lib\libc.a(lib_a-wsetup.o)
                0x0000fdf0                __swsetup_r

.text%215       0x0000feb4       0xb0
 .text          0x0000feb4       0xb0 c:/program files (x86)/microchip/xc32/v2.30/bin/bin/../../lib/gcc/pic32c/6.2.1\libgcc.a(ledf2.o)
                0x0000feb4                __ledf2
                0x0000feb4                __ltdf2

.text.CAN0_MessageRAMConfigSet%216
                0x0000ff64       0xac
 .text.CAN0_MessageRAMConfigSet
                0x0000ff64       0xac build/default/production/_ext/60165182/plib_can0.o
                0x0000ff64                CAN0_MessageRAMConfigSet

.text%217       0x00010010       0xa8
 .text          0x00010010       0xa8 c:/program files (x86)/microchip/xc32/v2.30/bin/bin/../../lib/gcc/pic32c/6.2.1\libgcc.a(_divsi3.o)
                0x00010010                __divsi3
                0x00010010                __aeabi_idiv
                0x000100a4                __aeabi_idivmod

.text.__d2b%218
                0x000100b8       0xa8
 .text.__d2b    0x000100b8       0xa8 c:/program files (x86)/microchip/xc32/v2.30/bin/bin/../../lib/gcc/pic32c/6.2.1/../../../../pic32c/lib\libc.a(lib_a-mprec.o)
                0x000100b8                __d2b

.text.PORT_Initialize%219
                0x00010160       0xa4
 .text.PORT_Initialize
                0x00010160       0xa4 build/default/production/_ext/1865521619/plib_port.o
                0x00010160                PORT_Initialize

.text.__swbuf_r%220
                0x00010204       0xa4
 .text.__swbuf_r
                0x00010204       0xa4 c:/program files (x86)/microchip/xc32/v2.30/bin/bin/../../lib/gcc/pic32c/6.2.1/../../../../pic32c/lib\libc.a(lib_a-wbuf.o)
                0x00010204                __swbuf_r

.text.__lshift%221
                0x000102a8       0xa2
 .text.__lshift
                0x000102a8       0xa2 c:/program files (x86)/microchip/xc32/v2.30/bin/bin/../../lib/gcc/pic32c/6.2.1/../../../../pic32c/lib\libc.a(lib_a-mprec.o)
                0x000102a8                __lshift

.text.CAN0_InterruptHandler%222
                0x0001034c       0xa0
 .text.CAN0_InterruptHandler
                0x0001034c       0xa0 build/default/production/_ext/60165182/plib_can0.o
                0x0001034c                CAN0_InterruptHandler

.text.NVIC_Initialize%223
                0x000103ec       0xa0
 .text.NVIC_Initialize
                0x000103ec       0xa0 build/default/production/_ext/1865468468/plib_nvic.o
                0x000103ec                NVIC_Initialize

.text.at_process%224
                0x0001048c       0xa0
 .text.at_process
                0x0001048c       0xa0 build/default/production/_ext/1360937237/at_engine.o
                0x0001048c                at_process

.text%225       0x0001052c       0xa0
 .text          0x0001052c       0xa0 c:/program files (x86)/microchip/xc32/v2.30/bin/bin/../../lib/gcc/pic32c/6.2.1\libgcc.a(gedf2.o)
                0x0001052c                __gedf2
                0x0001052c                __gtdf2

.text.DRV_USART_Initialize%226
                0x000105cc       0x9c
 .text.DRV_USART_Initialize
                0x000105cc       0x9c build/default/production/_ext/869808652/drv_usart.o
                0x000105cc                DRV_USART_Initialize

.text.SYS_Initialize%227
                0x00010668       0x9c
 .text.SYS_Initialize
                0x00010668       0x9c build/default/production/_ext/1171490990/initialization.o
                0x00010668                SYS_Initialize

.text%228       0x00010704       0x98
 .text          0x00010704       0x98 c:/program files (x86)/microchip/xc32/v2.30/bin/bin/../../lib/gcc/pic32c/6.2.1\libgcc.a(extendsfdf2.o)
                0x00010704                __aeabi_f2d

.text.__b2d%229
                0x0001079c       0x98
 .text.__b2d    0x0001079c       0x98 c:/program files (x86)/microchip/xc32/v2.30/bin/bin/../../lib/gcc/pic32c/6.2.1/../../../../pic32c/lib\libc.a(lib_a-mprec.o)
                0x0001079c                __b2d

.text._malloc_trim_r%230
                0x00010834       0x94
 .text._malloc_trim_r
                0x00010834       0x94 c:/program files (x86)/microchip/xc32/v2.30/bin/bin/../../lib/gcc/pic32c/6.2.1/../../../../pic32c/lib\libc.a(lib_a-freer.o)
                0x00010834                _malloc_trim_r

.text.at_parser_store%231
                0x000108c8       0x90
 .text.at_parser_store
                0x000108c8       0x90 build/default/production/_ext/1360937237/at_parser.o
                0x000108c8                at_parser_store

.text.__pic32c_data_initialization%232
                0x00010958       0x90
 .text.__pic32c_data_initialization
                0x00010958       0x90 c:/program files (x86)/microchip/xc32/v2.30/bin/bin/../../lib/gcc/pic32c/6.2.1/../../../../pic32c/lib\libpic32c.a(data_init.o)
                0x00010958                __pic32c_data_initialization

.text.main%233  0x000109e8       0x8c
 .text.main     0x000109e8       0x8c build/default/production/_ext/1360937237/main.o
                0x000109e8                main

.text%234       0x00010a74       0x8c
 .text          0x00010a74       0x8c c:/program files (x86)/microchip/xc32/v2.30/bin/bin/../../lib/gcc/pic32c/6.2.1\libgcc.a(_udivsi3.o)
                0x00010a74                __aeabi_uidiv
                0x00010a74                __udivsi3
                0x00010aec                __aeabi_uidivmod

.text.EIC_Initialize%235
                0x00010b00       0x84
 .text.EIC_Initialize
                0x00010b00       0x84 build/default/production/_ext/60167341/plib_eic.o
                0x00010b00                EIC_Initialize

.text%236       0x00010b84       0x84
 .text          0x00010b84       0x84 c:/program files (x86)/microchip/xc32/v2.30/bin/bin/../../lib/gcc/pic32c/6.2.1\libgcc.a(floatsisf.o)
                0x00010b84                __aeabi_i2f

.text._DRV_USART_ResourceLock%237
                0x00010c08       0x82
 .text._DRV_USART_ResourceLock
                0x00010c08       0x82 build/default/production/_ext/869808652/drv_usart.o

.text.savelogdata%238
                0x00010c8a       0x80
 .text.savelogdata
                0x00010c8a       0x80 build/default/production/_ext/1360937237/app3.o
                0x00010c8a                savelogdata

.text.__pow5mult%239
                0x00010d0c       0x80
 .text.__pow5mult
                0x00010d0c       0x80 c:/program files (x86)/microchip/xc32/v2.30/bin/bin/../../lib/gcc/pic32c/6.2.1/../../../../pic32c/lib\libc.a(lib_a-mprec.o)
                0x00010d0c                __pow5mult

.text.__s2b%240
                0x00010d8c       0x7e
 .text.__s2b    0x00010d8c       0x7e c:/program files (x86)/microchip/xc32/v2.30/bin/bin/../../lib/gcc/pic32c/6.2.1/../../../../pic32c/lib\libc.a(lib_a-mprec.o)
                0x00010d8c                __s2b

.text._fclose_r%241
                0x00010e0a       0x7e
 .text._fclose_r
                0x00010e0a       0x7e c:/program files (x86)/microchip/xc32/v2.30/bin/bin/../../lib/gcc/pic32c/6.2.1/../../../../pic32c/lib\libc.a(lib_a-fclose.o)
                0x00010e0a                _fclose_r

.text.savefreshlogdata1%242
                0x00010e88       0x7c
 .text.savefreshlogdata1
                0x00010e88       0x7c build/default/production/_ext/1360937237/app3.o
                0x00010e88                savefreshlogdata1

.text.savefreshlogdata2%243
                0x00010f04       0x7c
 .text.savefreshlogdata2
                0x00010f04       0x7c build/default/production/_ext/1360937237/app3.o
                0x00010f04                savefreshlogdata2

.text%244       0x00010f80       0x7c
 .text          0x00010f80       0x7c c:/program files (x86)/microchip/xc32/v2.30/bin/bin/../../lib/gcc/pic32c/6.2.1\libgcc.a(_arm_cmpdf2.o)
                0x00010f80                __aeabi_cdrcmple
                0x00010f90                __aeabi_cdcmple
                0x00010f90                __aeabi_cdcmpeq
                0x00010fa0                __aeabi_dcmpeq
                0x00010fac                __aeabi_dcmplt
                0x00010fc0                __aeabi_dcmple
                0x00010fd4                __aeabi_dcmpgt
                0x00010fe8                __aeabi_dcmpge

.text.__smakebuf_r%245
                0x00010ffc       0x7c
 .text.__smakebuf_r
                0x00010ffc       0x7c c:/program files (x86)/microchip/xc32/v2.30/bin/bin/../../lib/gcc/pic32c/6.2.1/../../../../pic32c/lib\libc.a(lib_a-makebuf.o)
                0x00010ffc                __smakebuf_r

.text.__fputwc%246
                0x00011078       0x7c
 .text.__fputwc
                0x00011078       0x7c c:/program files (x86)/microchip/xc32/v2.30/bin/bin/../../lib/gcc/pic32c/6.2.1/../../../../pic32c/lib\libc.a(lib_a-fputwc.o)
                0x00011078                __fputwc

.rodata%247     0x000110f4       0x78
 .rodata        0x000110f4       0x78 build/default/production/_ext/1360937237/app.o

.text%248       0x0001116c       0x78
 .text          0x0001116c       0x78 c:/program files (x86)/microchip/xc32/v2.30/bin/bin/../../lib/gcc/pic32c/6.2.1\libgcc.a(gesf2.o)
                0x0001116c                __gesf2
                0x0001116c                __gtsf2

.text.__multadd%249
                0x000111e4       0x78
 .text.__multadd
                0x000111e4       0x78 c:/program files (x86)/microchip/xc32/v2.30/bin/bin/../../lib/gcc/pic32c/6.2.1/../../../../pic32c/lib\libc.a(lib_a-mprec.o)
                0x000111e4                __multadd

.text._DRV_USART_ResourceUnlock%250
                0x0001125c       0x76
 .text._DRV_USART_ResourceUnlock
                0x0001125c       0x76 build/default/production/_ext/869808652/drv_usart.o

.text%251       0x000112d2       0x76
 .text          0x000112d2       0x76 c:/program files (x86)/microchip/xc32/v2.30/bin/bin/../../lib/gcc/pic32c/6.2.1\libgcc.a(lesf2.o)
                0x000112d2                __ltsf2
                0x000112d2                __lesf2

.rodata%252     0x00011348       0x74
 .rodata        0x00011348       0x74 build/default/production/_ext/1360937237/main.o

.text%253       0x000113bc      0x1cc
 .text          0x000113bc       0x74 c:/program files (x86)/microchip/xc32/v2.30/bin/bin/../../lib/gcc/pic32c/6.2.1\libgcc.a(_arm_cmpsf2.o)
                0x000113bc                __aeabi_cfrcmple
                0x000113c4                __aeabi_cfcmpeq
                0x000113c4                __aeabi_cfcmple
                0x000113d4                __aeabi_fcmpeq
                0x000113e0                __aeabi_fcmplt
                0x000113f4                __aeabi_fcmple
                0x00011408                __aeabi_fcmpgt
                0x0001141c                __aeabi_fcmpge
 .text          0x00011430       0x74 c:/program files (x86)/microchip/xc32/v2.30/bin/bin/../../lib/gcc/pic32c/6.2.1\libgcc.a(floatunsisf.o)
                0x00011430                __aeabi_ui2f
 .text          0x000114a4       0x74 c:/program files (x86)/microchip/xc32/v2.30/bin/bin/../../lib/gcc/pic32c/6.2.1\libgcc.a(floatsidf.o)
                0x000114a4                __aeabi_i2d
 .text          0x00011518       0x70 c:/program files (x86)/microchip/xc32/v2.30/bin/bin/../../lib/gcc/pic32c/6.2.1\libgcc.a(eqdf2.o)
                0x00011518                __nedf2
                0x00011518                __eqdf2

.text.__sbprintf%257
                0x00011588       0x70
 .text.__sbprintf
                0x00011588       0x70 c:/program files (x86)/microchip/xc32/v2.30/bin/bin/../../lib/gcc/pic32c/6.2.1/../../../../pic32c/lib\libc.a(lib_a-vfprintf.o)

.text.__sprint_r%258
                0x000115f8       0x70
 .text.__sprint_r
                0x000115f8       0x70 c:/program files (x86)/microchip/xc32/v2.30/bin/bin/../../lib/gcc/pic32c/6.2.1/../../../../pic32c/lib\libc.a(lib_a-vfiprintf.o)
                0x000115f8                __sprint_r

.text.CAN0_Initialize%259
                0x00011668       0x6c
 .text.CAN0_Initialize
                0x00011668       0x6c build/default/production/_ext/60165182/plib_can0.o
                0x00011668                CAN0_Initialize

.text.APP4_CAN_RxFifo1Callback%260
                0x000116d4       0x6c
 .text.APP4_CAN_RxFifo1Callback
                0x000116d4       0x6c build/default/production/_ext/1360937237/app4.o
                0x000116d4                APP4_CAN_RxFifo1Callback

.text._puts_r%261
                0x00011740       0x6c
 .text._puts_r  0x00011740       0x6c c:/program files (x86)/microchip/xc32/v2.30/bin/bin/../../lib/gcc/pic32c/6.2.1/../../../../pic32c/lib\libc.a(lib_a-puts.o)
                0x00011740                _puts_r

.text%262       0x000117ac       0x68
 .text          0x000117ac       0x68 c:/program files (x86)/microchip/xc32/v2.30/bin/bin/../../lib/gcc/pic32c/6.2.1\libgcc.a(fixdfsi.o)
                0x000117ac                __aeabi_d2iz

.text.SERCOM3_USART_Write%263
                0x00011814       0x64
 .text.SERCOM3_USART_Write
                0x00011814       0x64 build/default/production/_ext/504274921/plib_sercom3_usart.o
                0x00011814                SERCOM3_USART_Write

.text.SERCOM2_USART_Write%264
                0x00011878       0x64
 .text.SERCOM2_USART_Write
                0x00011878       0x64 build/default/production/_ext/504274921/plib_sercom2_usart.o
                0x00011878                SERCOM2_USART_Write

.text._at_search%265
                0x000118dc       0x64
 .text._at_search
                0x000118dc       0x64 build/default/production/_ext/1360937237/at_parser.o

.text%266       0x00011940       0x64
 .text          0x00011940       0x64 c:/program files (x86)/microchip/xc32/v2.30/bin/bin/../../lib/gcc/pic32c/6.2.1\libgcc.a(floatunsidf.o)
                0x00011940                __aeabi_ui2d

.text.rshift%267
                0x000119a4       0x64
 .text.rshift   0x000119a4       0x64 c:/program files (x86)/microchip/xc32/v2.30/bin/bin/../../lib/gcc/pic32c/6.2.1/../../../../pic32c/lib\libc.a(lib_a-gdtoa-gethex.o)

.text.frexp%268
                0x00011a08       0x64
 .text.frexp    0x00011a08       0x64 c:/program files (x86)/microchip/xc32/v2.30/bin/bin/../../lib/gcc/pic32c/6.2.1/../../../../pic32c/lib\libc.a(lib_a-s_frexp.o)
                0x00011a08                frexp

.text.APP2_Tasks%269
                0x00011a6c       0x60
 .text.APP2_Tasks
                0x00011a6c       0x60 build/default/production/_ext/1360937237/app2.o
                0x00011a6c                APP2_Tasks

.rodata%270     0x00011acc       0x60
 .rodata        0x00011acc       0x60 build/default/production/_ext/1360937237/app2.o

.text.__swhatbuf_r%271
                0x00011b2c       0x60
 .text.__swhatbuf_r
                0x00011b2c       0x60 c:/program files (x86)/microchip/xc32/v2.30/bin/bin/../../lib/gcc/pic32c/6.2.1/../../../../pic32c/lib\libc.a(lib_a-makebuf.o)
                0x00011b2c                __swhatbuf_r

.text.__lo0bits%272
                0x00011b8c       0x5e
 .text.__lo0bits
                0x00011b8c       0x5e c:/program files (x86)/microchip/xc32/v2.30/bin/bin/../../lib/gcc/pic32c/6.2.1/../../../../pic32c/lib\libc.a(lib_a-mprec.o)
                0x00011b8c                __lo0bits

.text.SERCOM4_USART_Read%273
                0x00011bec       0x5c
 .text.SERCOM4_USART_Read
                0x00011bec       0x5c build/default/production/_ext/504274921/plib_sercom4_usart.o
                0x00011bec                SERCOM4_USART_Read

.text.engine_init%274
                0x00011c48       0x5c
 .text.engine_init
                0x00011c48       0x5c build/default/production/_ext/1360937237/at_engine.o
                0x00011c48                engine_init

.text.__strtok_r%275
                0x00011ca4       0x5c
 .text.__strtok_r
                0x00011ca4       0x5c c:/program files (x86)/microchip/xc32/v2.30/bin/bin/../../lib/gcc/pic32c/6.2.1/../../../../pic32c/lib\libc.a(lib_a-strtok_r.o)
                0x00011ca4                __strtok_r

.text.SERCOM3_USART_Initialize%276
                0x00011d00       0x58
 .text.SERCOM3_USART_Initialize
                0x00011d00       0x58 build/default/production/_ext/504274921/plib_sercom3_usart.o
                0x00011d00                SERCOM3_USART_Initialize

.text.SERCOM2_USART_Initialize%277
                0x00011d58       0x58
 .text.SERCOM2_USART_Initialize
                0x00011d58       0x58 build/default/production/_ext/504274921/plib_sercom2_usart.o
                0x00011d58                SERCOM2_USART_Initialize

.text.dev_adapter_reset%278
                0x00011db0       0x58
 .text.dev_adapter_reset
                0x00011db0       0x58 build/default/production/_ext/1360937237/dev_adapter.o
                0x00011db0                dev_adapter_reset

.text._calloc_r%279
                0x00011e08       0x58
 .text._calloc_r
                0x00011e08       0x58 c:/program files (x86)/microchip/xc32/v2.30/bin/bin/../../lib/gcc/pic32c/6.2.1/../../../../pic32c/lib\libc.a(lib_a-callocr.o)
                0x00011e08                _calloc_r

.text._DRV_USART_DriverHandleValidate%280
                0x00011e60       0x54
 .text._DRV_USART_DriverHandleValidate
                0x00011e60       0x54 build/default/production/_ext/869808652/drv_usart.o

.text.SPI_HighSpeed_Read_Cont%281
                0x00011eb4       0x54
 .text.SPI_HighSpeed_Read_Cont
                0x00011eb4       0x54 build/default/production/_ext/1360937237/ext_flash.o
                0x00011eb4                SPI_HighSpeed_Read_Cont

.text._Balloc%282
                0x00011f08       0x50
 .text._Balloc  0x00011f08       0x50 c:/program files (x86)/microchip/xc32/v2.30/bin/bin/../../lib/gcc/pic32c/6.2.1/../../../../pic32c/lib\libc.a(lib_a-mprec.o)
                0x00011f08                _Balloc

.text.DRV_USART_BufferStatusGet%283
                0x0000f4b2       0x4e
 .text.DRV_USART_BufferStatusGet
                0x0000f4b2       0x4e build/default/production/_ext/869808652/drv_usart.o
                0x0000f4b2                DRV_USART_BufferStatusGet

.text.__ratio%284
                0x00011f58       0x4e
 .text.__ratio  0x00011f58       0x4e c:/program files (x86)/microchip/xc32/v2.30/bin/bin/../../lib/gcc/pic32c/6.2.1/../../../../pic32c/lib\libc.a(lib_a-mprec.o)
                0x00011f58                __ratio

.text._DRV_USART_QueuePurge%285
                0x00011fa8       0x4c
 .text._DRV_USART_QueuePurge
                0x00011fa8       0x4c build/default/production/_ext/869808652/drv_usart.o

.text.low_pass_filter%286
                0x00011ff4       0x4c
 .text.low_pass_filter
                0x00011ff4       0x4c build/default/production/_ext/1360937237/app.o
                0x00011ff4                low_pass_filter

.text.dev_adapter_init%287
                0x00012040       0x4c
 .text.dev_adapter_init
                0x00012040       0x4c build/default/production/_ext/1360937237/dev_adapter.o
                0x00012040                dev_adapter_init

.text.SPI_byte_Program%288
                0x0001208c       0x4c
 .text.SPI_byte_Program
                0x0001208c       0x4c build/default/production/_ext/1360937237/ext_flash.o
                0x0001208c                SPI_byte_Program

.text.__ulp%289
                0x000120d8       0x4c
 .text.__ulp    0x000120d8       0x4c c:/program files (x86)/microchip/xc32/v2.30/bin/bin/../../lib/gcc/pic32c/6.2.1/../../../../pic32c/lib\libc.a(lib_a-mprec.o)
                0x000120d8                __ulp

.text._wcrtomb_r%290
                0x00012124       0x4c
 .text._wcrtomb_r
                0x00012124       0x4c c:/program files (x86)/microchip/xc32/v2.30/bin/bin/../../lib/gcc/pic32c/6.2.1/../../../../pic32c/lib\libc.a(lib_a-wcrtomb.o)
                0x00012124                _wcrtomb_r

.text%291       0x00012170       0x4a
 .text          0x00012170       0x4a c:/program files (x86)/microchip/xc32/v2.30/bin/bin/../../lib/gcc/pic32c/6.2.1\libgcc.a(eqsf2.o)
                0x00012170                __eqsf2
                0x00012170                __nesf2

.text%292       0x000121bc       0x48
 .text          0x000121bc       0x48 c:/program files (x86)/microchip/xc32/v2.30/bin/bin/../../lib/gcc/pic32c/6.2.1/crtbegin.o

.text.EIC_InterruptHandler%293
                0x00012204       0x48
 .text.EIC_InterruptHandler
                0x00012204       0x48 build/default/production/_ext/60167341/plib_eic.o
                0x00012204                EIC_InterruptHandler

.text.Reset_Handler%294
                0x0001224c       0x48
 .text.Reset_Handler
                0x0001224c       0x48 build/default/production/_ext/1171490990/startup_xc32.o
                0x0001224c                Reset_Handler

.text.at_cmd_save%295
                0x00012294       0x48
 .text.at_cmd_save
                0x00012294       0x48 build/default/production/_ext/1360937237/at_engine.o
                0x00012294                at_cmd_save

.text.__libc_init_array%296
                0x000122dc       0x48
 .text.__libc_init_array
                0x000122dc       0x48 c:/program files (x86)/microchip/xc32/v2.30/bin/bin/../../lib/gcc/pic32c/6.2.1/../../../../pic32c/lib\libc.a(lib_a-init.o)
                0x000122dc                __libc_init_array

.text.std.isra.0%297
                0x00012324       0x48
 .text.std.isra.0
                0x00012324       0x48 c:/program files (x86)/microchip/xc32/v2.30/bin/bin/../../lib/gcc/pic32c/6.2.1/../../../../pic32c/lib\libc.a(lib_a-findfp.o)

.text.__sinit%298
                0x0001236c       0x48
 .text.__sinit  0x0001236c       0x48 c:/program files (x86)/microchip/xc32/v2.30/bin/bin/../../lib/gcc/pic32c/6.2.1/../../../../pic32c/lib\libc.a(lib_a-findfp.o)
                0x0001236c                __sinit

.text.SERCOM3_USART_Read%299
                0x000123b4       0x44
 .text.SERCOM3_USART_Read
                0x000123b4       0x44 build/default/production/_ext/504274921/plib_sercom3_usart.o
                0x000123b4                SERCOM3_USART_Read

.text.SERCOM4_USART_Write%300
                0x000123f8       0x44
 .text.SERCOM4_USART_Write
                0x000123f8       0x44 build/default/production/_ext/504274921/plib_sercom4_usart.o
                0x000123f8                SERCOM4_USART_Write

.text.SERCOM2_USART_Read%301
                0x0001243c       0x44
 .text.SERCOM2_USART_Read
                0x0001243c       0x44 build/default/production/_ext/504274921/plib_sercom2_usart.o
                0x0001243c                SERCOM2_USART_Read

.text.TC4_TimerInitialize%302
                0x00012480       0x44
 .text.TC4_TimerInitialize
                0x00012480       0x44 build/default/production/_ext/829342655/plib_tc4.o
                0x00012480                TC4_TimerInitialize

.text.TC0_TimerInitialize%303
                0x000124c4       0x44
 .text.TC0_TimerInitialize
                0x000124c4       0x44 build/default/production/_ext/829342655/plib_tc0.o
                0x000124c4                TC0_TimerInitialize

.text.TC3_TimerInitialize%304
                0x00012508       0x44
 .text.TC3_TimerInitialize
                0x00012508       0x44 build/default/production/_ext/829342655/plib_tc3.o
                0x00012508                TC3_TimerInitialize

.text.sprintf%305
                0x0001254c       0x44
 .text.sprintf  0x0001254c       0x44 c:/program files (x86)/microchip/xc32/v2.30/bin/bin/../../lib/gcc/pic32c/6.2.1/../../../../pic32c/lib\libc.a(lib_a-sprintf.o)
                0x0001254c                __sprintf_dis
                0x0001254c                __sprintf_s
                0x0001254c                sprintf
                0x0001254c                __sprintf_fgG
                0x0001254c                __sprintf_difgGcs
                0x0001254c                __sprintf_di

.text._fwalk_reent%306
                0x00012590       0x44
 .text._fwalk_reent
                0x00012590       0x44 c:/program files (x86)/microchip/xc32/v2.30/bin/bin/../../lib/gcc/pic32c/6.2.1/../../../../pic32c/lib\libc.a(lib_a-fwalk.o)
                0x00012590                _fwalk_reent

.text.__any_on%307
                0x000125d4       0x44
 .text.__any_on
                0x000125d4       0x44 c:/program files (x86)/microchip/xc32/v2.30/bin/bin/../../lib/gcc/pic32c/6.2.1/../../../../pic32c/lib\libc.a(lib_a-mprec.o)
                0x000125d4                __any_on

.text%308       0x00012618       0x42
 .text          0x00012618       0x42 c:/program files (x86)/microchip/xc32/v2.30/bin/bin/../../lib/gcc/pic32c/6.2.1\libgcc.a(_muldi3.o)
                0x00012618                __muldi3
                0x00012618                __aeabi_lmul

.text.RTC_RTCCTimeGet%309
                0x0001265c       0x40
 .text.RTC_RTCCTimeGet
                0x0001265c       0x40 build/default/production/_ext/60180175/plib_rtc_clock.o
                0x0001265c                RTC_RTCCTimeGet

.text.SYSTICK_DelayMs%310
                0x0001269c       0x40
 .text.SYSTICK_DelayMs
                0x0001269c       0x40 build/default/production/_ext/1827571544/plib_systick.o
                0x0001269c                SYSTICK_DelayMs

.text.at_parser_init%311
                0x000126dc       0x40
 .text.at_parser_init
                0x000126dc       0x40 build/default/production/_ext/1360937237/at_parser.o
                0x000126dc                at_parser_init

.text.SPI_Jedec_ID_Read%312
                0x0001271c       0x40
 .text.SPI_Jedec_ID_Read
                0x0001271c       0x40 build/default/production/_ext/1360937237/ext_flash.o
                0x0001271c                SPI_Jedec_ID_Read

.text%313       0x0001275c       0x40
 .text          0x0001275c       0x40 c:/program files (x86)/microchip/xc32/v2.30/bin/bin/../../lib/gcc/pic32c/6.2.1\libgcc.a(_aeabi_uldivmod.o)
                0x0001275c                __aeabi_uldivmod

.text.write%314
                0x0001279c       0x40
 .text.write    0x0001279c       0x40 c:/program files (x86)/microchip/xc32/v2.30/bin/bin/../../lib/gcc/pic32c/6.2.1/../../../../pic32c/lib\libpic32c.a(write.o)
                0x0001279c                write

.text._DRV_USART_RemoveClientTransfersFromList%315
                0x000127dc       0x3e
 .text._DRV_USART_RemoveClientTransfersFromList
                0x000127dc       0x3e build/default/production/_ext/869808652/drv_usart.o

.text.RTC_RTCCTimeSet%316
                0x0001281c       0x3c
 .text.RTC_RTCCTimeSet
                0x0001281c       0x3c build/default/production/_ext/60180175/plib_rtc_clock.o
                0x0001281c                RTC_RTCCTimeSet

.text.SYS_INT_SourceDisable%317
                0x00012858       0x3c
 .text.SYS_INT_SourceDisable
                0x00012858       0x3c build/default/production/_ext/1881668453/sys_int.o
                0x00012858                SYS_INT_SourceDisable

.text%318       0x00012894       0x78
 .text          0x00012894       0x3c c:/program files (x86)/microchip/xc32/v2.30/bin/bin/../../lib/gcc/pic32c/6.2.1\libgcc.a(fixsfsi.o)
                0x00012894                __aeabi_f2iz
 .text          0x000128d0       0x3c c:/program files (x86)/microchip/xc32/v2.30/bin/bin/../../lib/gcc/pic32c/6.2.1\libgcc.a(_clzsi2.o)
                0x000128d0                __clzsi2

.text.SERCOM4_USART_Initialize%320
                0x0001290c       0x38
 .text.SERCOM4_USART_Initialize
                0x0001290c       0x38 build/default/production/_ext/504274921/plib_sercom4_usart.o
                0x0001290c                SERCOM4_USART_Initialize

.text.gsm_gps_task%321
                0x00012944       0x38
 .text.gsm_gps_task
                0x00012944       0x38 build/default/production/_ext/1360937237/gsm_gps.o
                0x00012944                gsm_gps_task

.text%322       0x0001297c       0x38
 .text          0x0001297c       0x38 c:/program files (x86)/microchip/xc32/v2.30/bin/bin/../../lib/gcc/pic32c/6.2.1\libgcc.a(_fixunsdfsi.o)
                0x0001297c                __aeabi_d2uiz
                0x0001297c                __fixunsdfsi

.text.__swrite%323
                0x000129b4       0x38
 .text.__swrite
                0x000129b4       0x38 c:/program files (x86)/microchip/xc32/v2.30/bin/bin/../../lib/gcc/pic32c/6.2.1/../../../../pic32c/lib\libc.a(lib_a-stdio.o)
                0x000129b4                __swrite

.text.DRV_USART_BufferEventHandlerSet%324
                0x000129ec       0x34
 .text.DRV_USART_BufferEventHandlerSet
                0x000129ec       0x34 build/default/production/_ext/869808652/drv_usart.o
                0x000129ec                DRV_USART_BufferEventHandlerSet

.text.CAN0_ErrorGet%325
                0x00012a20       0x34
 .text.CAN0_ErrorGet
                0x00012a20       0x34 build/default/production/_ext/60165182/plib_can0.o
                0x00012a20                CAN0_ErrorGet

.rodata%326     0x00012a54       0x68
 .rodata        0x00012a54       0x34 c:/program files (x86)/microchip/xc32/v2.30/bin/bin/../../lib/gcc/pic32c/6.2.1/../../../../pic32c/lib\libc.a(lib_a-svfprintf.o)
 .rodata        0x00012a88       0x34 c:/program files (x86)/microchip/xc32/v2.30/bin/bin/../../lib/gcc/pic32c/6.2.1/../../../../pic32c/lib\libc.a(lib_a-vfprintf.o)

.text.__hi0bits%328
                0x00012abc       0x34
 .text.__hi0bits
                0x00012abc       0x34 c:/program files (x86)/microchip/xc32/v2.30/bin/bin/../../lib/gcc/pic32c/6.2.1/../../../../pic32c/lib\libc.a(lib_a-mprec.o)
                0x00012abc                __hi0bits

.text%329       0x00012af0       0x34
 .text          0x00012af0       0x34 c:/program files (x86)/microchip/xc32/v2.30/bin/bin/../../lib/gcc/pic32c/6.2.1\libgcc.a(unorddf2.o)
                0x00012af0                __aeabi_dcmpun

.text.my_strncpy%330
                0x00012b24       0x32
 .text.my_strncpy
                0x00012b24       0x32 build/default/production/_ext/1360937237/at_parser.o
                0x00012b24                my_strncpy

.text.__mcmp%331
                0x00012b56       0x32
 .text.__mcmp   0x00012b56       0x32 c:/program files (x86)/microchip/xc32/v2.30/bin/bin/../../lib/gcc/pic32c/6.2.1/../../../../pic32c/lib\libc.a(lib_a-mprec.o)
                0x00012b56                __mcmp

.text.RTC_Initialize%332
                0x00012b88       0x30
 .text.RTC_Initialize
                0x00012b88       0x30 build/default/production/_ext/60180175/plib_rtc_clock.o
                0x00012b88                RTC_Initialize

.text.TC4_TimerInterruptHandler%333
                0x00012bb8       0x30
 .text.TC4_TimerInterruptHandler
                0x00012bb8       0x30 build/default/production/_ext/829342655/plib_tc4.o
                0x00012bb8                TC4_TimerInterruptHandler

.text.TC0_TimerInterruptHandler%334
                0x00012be8       0x30
 .text.TC0_TimerInterruptHandler
                0x00012be8       0x30 build/default/production/_ext/829342655/plib_tc0.o
                0x00012be8                TC0_TimerInterruptHandler

.text.TC3_TimerInterruptHandler%335
                0x00012c18       0x30
 .text.TC3_TimerInterruptHandler
                0x00012c18       0x30 build/default/production/_ext/829342655/plib_tc3.o
                0x00012c18                TC3_TimerInterruptHandler

.text.dev_tick_isr%336
                0x00012c48       0x30
 .text.dev_tick_isr
                0x00012c48       0x30 build/default/production/_ext/1360937237/dev_timer.o
                0x00012c48                dev_tick_isr

.text.readfreshdatamemloc1%337
                0x00012c78       0x30
 .text.readfreshdatamemloc1
                0x00012c78       0x30 build/default/production/_ext/1360937237/app3.o
                0x00012c78                readfreshdatamemloc1

.text.readfreshdatamemloc2%338
                0x00012ca8       0x30
 .text.readfreshdatamemloc2
                0x00012ca8       0x30 build/default/production/_ext/1360937237/app3.o
                0x00012ca8                readfreshdatamemloc2

.text.readIPaddr%339
                0x00012cd8       0x30
 .text.readIPaddr
                0x00012cd8       0x30 build/default/production/_ext/1360937237/app3.o
                0x00012cd8                readIPaddr

.text.readAPNaddr%340
                0x00012d08       0x30
 .text.readAPNaddr
                0x00012d08       0x30 build/default/production/_ext/1360937237/app3.o
                0x00012d08                readAPNaddr

.text.readsmr%341
                0x00012d38       0x30
 .text.readsmr  0x00012d38       0x30 build/default/production/_ext/1360937237/app3.o
                0x00012d38                readsmr

.text.readFLAG%342
                0x00012d68       0x30
 .text.readFLAG
                0x00012d68       0x30 build/default/production/_ext/1360937237/app3.o
                0x00012d68                readFLAG

.text.readmaxmemloc%343
                0x00012d98       0x30
 .text.readmaxmemloc
                0x00012d98       0x30 build/default/production/_ext/1360937237/app3.o
                0x00012d98                readmaxmemloc

.text.readrecomemloc%344
                0x00012dc8       0x30
 .text.readrecomemloc
                0x00012dc8       0x30 build/default/production/_ext/1360937237/app3.o
                0x00012dc8                readrecomemloc

.text.readnewmemloc%345
                0x00012df8       0x30
 .text.readnewmemloc
                0x00012df8       0x30 build/default/production/_ext/1360937237/app3.o
                0x00012df8                readnewmemloc

.text.readyet2sendmemloc%346
                0x00012e28       0x30
 .text.readyet2sendmemloc
                0x00012e28       0x30 build/default/production/_ext/1360937237/app3.o
                0x00012e28                readyet2sendmemloc

.text.SPI_WriteBlockProtection%347
                0x00012e58       0x30
 .text.SPI_WriteBlockProtection
                0x00012e58       0x30 build/default/production/_ext/1360937237/ext_flash.o
                0x00012e58                SPI_WriteBlockProtection

.text.strstr%348
                0x00012e88       0x30
 .text.strstr   0x00012e88       0x30 c:/program files (x86)/microchip/xc32/v2.30/bin/bin/../../lib/gcc/pic32c/6.2.1/../../../../pic32c/lib\libc.a(lib_a-strstr.o)
                0x00012e88                strstr

.text.sulp%349  0x00012eb8       0x30
 .text.sulp     0x00012eb8       0x30 c:/program files (x86)/microchip/xc32/v2.30/bin/bin/../../lib/gcc/pic32c/6.2.1/../../../../pic32c/lib\libc.a(lib_a-strtod.o)

.text._sbrk%350
                0x00012ee8       0x30
 .text._sbrk    0x00012ee8       0x30 c:/program files (x86)/microchip/xc32/v2.30/bin/bin/../../lib/gcc/pic32c/6.2.1/../../../../pic32c/lib\libpic32c.a(sbrk.o)
                0x00012ee8                _sbrk

.text.readserialNo%351
                0x00012f18       0x2e
 .text.readserialNo
                0x00012f18       0x2e build/default/production/_ext/1360937237/app3.o
                0x00012f18                readserialNo

.text.SPI_Sector_Erase%352
                0x00012f46       0x2e
 .text.SPI_Sector_Erase
                0x00012f46       0x2e build/default/production/_ext/1360937237/ext_flash.o
                0x00012f46                SPI_Sector_Erase

.text%353       0x00012f74       0x2e
 .text          0x00012f74       0x2e c:/program files (x86)/microchip/xc32/v2.30/bin/bin/../../lib/gcc/pic32c/6.2.1\libgcc.a(_fixunssfsi.o)
                0x00012f74                __fixunssfsi
                0x00012f74                __aeabi_f2uiz

.text._DRV_USART_RX_PLIB_CallbackHandler%354
                0x00012fa2       0x2c
 .text._DRV_USART_RX_PLIB_CallbackHandler
                0x00012fa2       0x2c build/default/production/_ext/869808652/drv_usart.o

.text.SERCOM0_SPI_Initialize%355
                0x00012fd0       0x2c
 .text.SERCOM0_SPI_Initialize
                0x00012fd0       0x2c build/default/production/_ext/17022449/plib_sercom0_spi_master.o
                0x00012fd0                SERCOM0_SPI_Initialize

.text.SERCOM3_USART_ErrorClear%356
                0x00012ffc       0x2c
 .text.SERCOM3_USART_ErrorClear
                0x00012ffc       0x2c build/default/production/_ext/504274921/plib_sercom3_usart.o

.text.SERCOM4_USART_ErrorClear%357
                0x00013028       0x2c
 .text.SERCOM4_USART_ErrorClear
                0x00013028       0x2c build/default/production/_ext/504274921/plib_sercom4_usart.o

.text.SERCOM2_USART_ErrorClear%358
                0x00013054       0x2c
 .text.SERCOM2_USART_ErrorClear
                0x00013054       0x2c build/default/production/_ext/504274921/plib_sercom2_usart.o

.rodata.drvUsart0InitData%359
                0x00013080       0x2c
 .rodata.drvUsart0InitData
                0x00013080       0x2c build/default/production/_ext/1171490990/initialization.o
                0x00013080                drvUsart0InitData

.rodata.drvUsart0PlibAPI%360
                0x000130ac       0x2c
 .rodata.drvUsart0PlibAPI
                0x000130ac       0x2c build/default/production/_ext/1171490990/initialization.o
                0x000130ac                drvUsart0PlibAPI

.rodata.drvUsart1InitData%361
                0x000130d8       0x2c
 .rodata.drvUsart1InitData
                0x000130d8       0x2c build/default/production/_ext/1171490990/initialization.o
                0x000130d8                drvUsart1InitData

.rodata.drvUsart1PlibAPI%362
                0x00013104       0x2c
 .rodata.drvUsart1PlibAPI
                0x00013104       0x2c build/default/production/_ext/1171490990/initialization.o
                0x00013104                drvUsart1PlibAPI

.text._APP_UART_ReceiveCallback%363
                0x00013130       0x2c
 .text._APP_UART_ReceiveCallback
                0x00013130       0x2c build/default/production/_ext/1360937237/app.o

.text.__copybits%364
                0x0001315c       0x2c
 .text.__copybits
                0x0001315c       0x2c c:/program files (x86)/microchip/xc32/v2.30/bin/bin/../../lib/gcc/pic32c/6.2.1/../../../../pic32c/lib\libc.a(lib_a-mprec.o)
                0x0001315c                __copybits

.text.__sseek%365
                0x00013188       0x2c
 .text.__sseek  0x00013188       0x2c c:/program files (x86)/microchip/xc32/v2.30/bin/bin/../../lib/gcc/pic32c/6.2.1/../../../../pic32c/lib\libc.a(lib_a-stdio.o)
                0x00013188                __sseek

.text.read%366  0x000131b4       0x2c
 .text.read     0x000131b4       0x2c c:/program files (x86)/microchip/xc32/v2.30/bin/bin/../../lib/gcc/pic32c/6.2.1/../../../../pic32c/lib\libpic32c.a(read.o)
                0x000131b4                read

.text._DRV_USART_ReadAbort%367
                0x000131e0       0x2a
 .text._DRV_USART_ReadAbort
                0x000131e0       0x2a build/default/production/_ext/869808652/drv_usart.o

.text.savefreshdatamemloc1%368
                0x0001320a       0x2a
 .text.savefreshdatamemloc1
                0x0001320a       0x2a build/default/production/_ext/1360937237/app3.o
                0x0001320a                savefreshdatamemloc1

.text.savefreshdatamemloc2%369
                0x00013234       0x2a
 .text.savefreshdatamemloc2
                0x00013234       0x2a build/default/production/_ext/1360937237/app3.o
                0x00013234                savefreshdatamemloc2

.text.saveIPaddr%370
                0x0001325e       0x2a
 .text.saveIPaddr
                0x0001325e       0x2a build/default/production/_ext/1360937237/app3.o
                0x0001325e                saveIPaddr

.text.saveAPNaddr%371
                0x00013288       0x2a
 .text.saveAPNaddr
                0x00013288       0x2a build/default/production/_ext/1360937237/app3.o
                0x00013288                saveAPNaddr

.text.savesmr%372
                0x000132b2       0x2a
 .text.savesmr  0x000132b2       0x2a build/default/production/_ext/1360937237/app3.o
                0x000132b2                savesmr

.text.saveFLAG%373
                0x000132dc       0x2a
 .text.saveFLAG
                0x000132dc       0x2a build/default/production/_ext/1360937237/app3.o
                0x000132dc                saveFLAG

.text.savemaxmemloc%374
                0x00013306       0x2a
 .text.savemaxmemloc
                0x00013306       0x2a build/default/production/_ext/1360937237/app3.o
                0x00013306                savemaxmemloc

.text.saverecomemloc%375
                0x00013330       0x2a
 .text.saverecomemloc
                0x00013330       0x2a build/default/production/_ext/1360937237/app3.o
                0x00013330                saverecomemloc

.text.savenewmemloc%376
                0x0001335a       0x2a
 .text.savenewmemloc
                0x0001335a       0x2a build/default/production/_ext/1360937237/app3.o
                0x0001335a                savenewmemloc

.text.saveyet2sendmemloc%377
                0x00013384       0x2a
 .text.saveyet2sendmemloc
                0x00013384       0x2a build/default/production/_ext/1360937237/app3.o
                0x00013384                saveyet2sendmemloc

.text.strncpy%378
                0x000133ae       0x2a
 .text.strncpy  0x000133ae       0x2a c:/program files (x86)/microchip/xc32/v2.30/bin/bin/../../lib/gcc/pic32c/6.2.1/../../../../pic32c/lib\libc.a(lib_a-strncpy.o)
                0x000133ae                strncpy

.text.__hexdig_fun%379
                0x000133d8       0x2a
 .text.__hexdig_fun
                0x000133d8       0x2a c:/program files (x86)/microchip/xc32/v2.30/bin/bin/../../lib/gcc/pic32c/6.2.1/../../../../pic32c/lib\libc.a(lib_a-gdtoa-gethex.o)
                0x000133d8                __hexdig_fun

.rodata.can0ExtFilter%380
                0x00013404       0x28
 .rodata.can0ExtFilter
                0x00013404       0x28 build/default/production/_ext/60165182/plib_can0.o

.text.EIC_CallbackRegister%381
                0x0001342c       0x28
 .text.EIC_CallbackRegister
                0x0001342c       0x28 build/default/production/_ext/60167341/plib_eic.o
                0x0001342c                EIC_CallbackRegister

.text.SERCOM3_USART_ReadAbort%382
                0x00013454       0x28
 .text.SERCOM3_USART_ReadAbort
                0x00013454       0x28 build/default/production/_ext/504274921/plib_sercom3_usart.o
                0x00013454                SERCOM3_USART_ReadAbort

.text.SERCOM2_USART_ReadAbort%383
                0x0001347c       0x28
 .text.SERCOM2_USART_ReadAbort
                0x0001347c       0x28 build/default/production/_ext/504274921/plib_sercom2_usart.o
                0x0001347c                SERCOM2_USART_ReadAbort

.rodata.tinytens%384
                0x000134a8       0x28
 .rodata.tinytens
                0x000134a8       0x28 c:/program files (x86)/microchip/xc32/v2.30/bin/bin/../../lib/gcc/pic32c/6.2.1/../../../../pic32c/lib\libc.a(lib_a-strtod.o)

.text.strtol%385
                0x000134d0       0x28
 .text.strtol   0x000134d0       0x28 c:/program files (x86)/microchip/xc32/v2.30/bin/bin/../../lib/gcc/pic32c/6.2.1/../../../../pic32c/lib\libc.a(lib_a-strtol.o)
                0x000134d0                strtol

.text._fflush_r%386
                0x000134f8       0x28
 .text._fflush_r
                0x000134f8       0x28 c:/program files (x86)/microchip/xc32/v2.30/bin/bin/../../lib/gcc/pic32c/6.2.1/../../../../pic32c/lib\libc.a(lib_a-fflush.o)
                0x000134f8                _fflush_r

.text.__match%387
                0x00013520       0x28
 .text.__match  0x00013520       0x28 c:/program files (x86)/microchip/xc32/v2.30/bin/bin/../../lib/gcc/pic32c/6.2.1/../../../../pic32c/lib\libc.a(lib_a-gdtoa-hexnan.o)
                0x00013520                __match

.rodata.__mprec_bigtens%388
                0x00013548       0x28
 .rodata.__mprec_bigtens
                0x00013548       0x28 c:/program files (x86)/microchip/xc32/v2.30/bin/bin/../../lib/gcc/pic32c/6.2.1/../../../../pic32c/lib\libc.a(lib_a-mprec.o)
                0x00013548                __mprec_bigtens

.text.__sread%389
                0x00013570       0x28
 .text.__sread  0x00013570       0x28 c:/program files (x86)/microchip/xc32/v2.30/bin/bin/../../lib/gcc/pic32c/6.2.1/../../../../pic32c/lib\libc.a(lib_a-stdio.o)
                0x00013570                __sread

.text._write_r%390
                0x00013598       0x28
 .text._write_r
                0x00013598       0x28 c:/program files (x86)/microchip/xc32/v2.30/bin/bin/../../lib/gcc/pic32c/6.2.1/../../../../pic32c/lib\libc.a(lib_a-writer.o)
                0x00013598                _write_r

.text._lseek_r%391
                0x000135c0       0x28
 .text._lseek_r
                0x000135c0       0x28 c:/program files (x86)/microchip/xc32/v2.30/bin/bin/../../lib/gcc/pic32c/6.2.1/../../../../pic32c/lib\libc.a(lib_a-lseekr.o)
                0x000135c0                _lseek_r

.text._read_r%392
                0x000135e8       0x28
 .text._read_r  0x000135e8       0x28 c:/program files (x86)/microchip/xc32/v2.30/bin/bin/../../lib/gcc/pic32c/6.2.1/../../../../pic32c/lib\libc.a(lib_a-readr.o)
                0x000135e8                _read_r

.text.saveserialNo%393
                0x00013610       0x26
 .text.saveserialNo
                0x00013610       0x26 build/default/production/_ext/1360937237/app3.o
                0x00013610                saveserialNo

.text._DRV_USART_GetDriverObj%394
                0x00013638       0x24
 .text._DRV_USART_GetDriverObj
                0x00013638       0x24 build/default/production/_ext/869808652/drv_usart.o

.text._DRV_USART_RemoveTransferObjFromList%395
                0x0001365c       0x24
 .text._DRV_USART_RemoveTransferObjFromList
                0x0001365c       0x24 build/default/production/_ext/869808652/drv_usart.o

.text.SYSTICK_TimerInitialize%396
                0x00013680       0x24
 .text.SYSTICK_TimerInitialize
                0x00013680       0x24 build/default/production/_ext/1827571544/plib_systick.o
                0x00013680                SYSTICK_TimerInitialize

.text.SysTick_Handler%397
                0x000136a4       0x24
 .text.SysTick_Handler
                0x000136a4       0x24 build/default/production/_ext/1827571544/plib_systick.o
                0x000136a4                SysTick_Handler

.text.dev_timer_init%398
                0x000136c8       0x24
 .text.dev_timer_init
                0x000136c8       0x24 build/default/production/_ext/1360937237/dev_timer.o
                0x000136c8                dev_timer_init

.text.strtod%399
                0x000136ec       0x24
 .text.strtod   0x000136ec       0x24 c:/program files (x86)/microchip/xc32/v2.30/bin/bin/../../lib/gcc/pic32c/6.2.1/../../../../pic32c/lib\libc.a(lib_a-strtod.o)
                0x000136ec                strtod

.text.__ascii_mbtowc%400
                0x00013710       0x24
 .text.__ascii_mbtowc
                0x00013710       0x24 c:/program files (x86)/microchip/xc32/v2.30/bin/bin/../../lib/gcc/pic32c/6.2.1/../../../../pic32c/lib\libc.a(lib_a-mbtowc_r.o)
                0x00013710                __ascii_mbtowc

.text.memmove%401
                0x00013734       0x24
 .text.memmove  0x00013734       0x24 c:/program files (x86)/microchip/xc32/v2.30/bin/bin/../../lib/gcc/pic32c/6.2.1/../../../../pic32c/lib\libc.a(lib_a-memmove.o)
                0x00013734                memmove

.text._sbrk_r%402
                0x00013758       0x24
 .text._sbrk_r  0x00013758       0x24 c:/program files (x86)/microchip/xc32/v2.30/bin/bin/../../lib/gcc/pic32c/6.2.1/../../../../pic32c/lib\libc.a(lib_a-sbrkr.o)
                0x00013758                _sbrk_r

.text._close_r%403
                0x0001377c       0x24
 .text._close_r
                0x0001377c       0x24 c:/program files (x86)/microchip/xc32/v2.30/bin/bin/../../lib/gcc/pic32c/6.2.1/../../../../pic32c/lib\libc.a(lib_a-closer.o)
                0x0001377c                _close_r

.text._fstat_r%404
                0x000137a0       0x24
 .text._fstat_r
                0x000137a0       0x24 c:/program files (x86)/microchip/xc32/v2.30/bin/bin/../../lib/gcc/pic32c/6.2.1/../../../../pic32c/lib\libc.a(lib_a-fstatr.o)
                0x000137a0                _fstat_r

.text._isatty_r%405
                0x000137c4       0x24
 .text._isatty_r
                0x000137c4       0x24 c:/program files (x86)/microchip/xc32/v2.30/bin/bin/../../lib/gcc/pic32c/6.2.1/../../../../pic32c/lib\libc.a(lib_a-isattyr.o)
                0x000137c4                _isatty_r

.text._DRV_USART_ReadSubmit%406
                0x000137e8       0x22
 .text._DRV_USART_ReadSubmit
                0x000137e8       0x22 build/default/production/_ext/869808652/drv_usart.o

.text._DRV_USART_WriteSubmit%407
                0x0001380a       0x22
 .text._DRV_USART_WriteSubmit
                0x0001380a       0x22 build/default/production/_ext/869808652/drv_usart.o

.text.L_shift%408
                0x0001382c       0x22
 .text.L_shift  0x0001382c       0x22 c:/program files (x86)/microchip/xc32/v2.30/bin/bin/../../lib/gcc/pic32c/6.2.1/../../../../pic32c/lib\libc.a(lib_a-gdtoa-hexnan.o)

.text.strncmp%409
                0x0001384e       0x22
 .text.strncmp  0x0001384e       0x22 c:/program files (x86)/microchip/xc32/v2.30/bin/bin/../../lib/gcc/pic32c/6.2.1/../../../../pic32c/lib\libc.a(lib_a-strncmp.o)
                0x0001384e                strncmp

.text.WDT_Enable%410
                0x00013870       0x20
 .text.WDT_Enable
                0x00013870       0x20 build/default/production/_ext/60184501/plib_wdt.o
                0x00013870                WDT_Enable

.text.WDT_Disable%411
                0x00013890       0x20
 .text.WDT_Disable
                0x00013890       0x20 build/default/production/_ext/60184501/plib_wdt.o
                0x00013890                WDT_Disable

.text.exflash_erras%412
                0x000138b0       0x20
 .text.exflash_erras
                0x000138b0       0x20 build/default/production/_ext/1360937237/app3.o
                0x000138b0                exflash_erras

.text.SPI2_Exchange8bit%413
                0x000138d0       0x20
 .text.SPI2_Exchange8bit
                0x000138d0       0x20 build/default/production/_ext/1360937237/ext_flash.o
                0x000138d0                SPI2_Exchange8bit

.text.printf%414
                0x000138f0       0x20
 .text.printf   0x000138f0       0x20 c:/program files (x86)/microchip/xc32/v2.30/bin/bin/../../lib/gcc/pic32c/6.2.1/../../../../pic32c/lib\libc.a(lib_a-printf.o)
                0x000138f0                __printf_difgG
                0x000138f0                __printf_fgG
                0x000138f0                __printf_oxX
                0x000138f0                __printf_di
                0x000138f0                __printf_s
                0x000138f0                __printf_dis
                0x000138f0                printf

.text._fputwc_r%415
                0x00013910       0x1e
 .text._fputwc_r
                0x00013910       0x1e c:/program files (x86)/microchip/xc32/v2.30/bin/bin/../../lib/gcc/pic32c/6.2.1/../../../../pic32c/lib\libc.a(lib_a-fputwc.o)
                0x00013910                _fputwc_r

.text.TC0_TimerStart%416
                0x00013930       0x1c
 .text.TC0_TimerStart
                0x00013930       0x1c build/default/production/_ext/829342655/plib_tc0.o
                0x00013930                TC0_TimerStart

.text.TC3_TimerStop%417
                0x0001394c       0x1c
 .text.TC3_TimerStop
                0x0001394c       0x1c build/default/production/_ext/829342655/plib_tc3.o
                0x0001394c                TC3_TimerStop

.text.SYS_INT_SourceRestore%418
                0x00013968       0x1c
 .text.SYS_INT_SourceRestore
                0x00013968       0x1c build/default/production/_ext/1881668453/sys_int.o
                0x00013968                SYS_INT_SourceRestore

.text.ftoa%419  0x00013984       0x1c
 .text.ftoa     0x00013984       0x1c build/default/production/_ext/1360937237/myapp.o
                0x00013984                ftoa

.text.EIC_User_Handler%420
                0x000139a0       0x1c
 .text.EIC_User_Handler
                0x000139a0       0x1c build/default/production/_ext/1360937237/app.o
                0x000139a0                EIC_User_Handler

.rodata.APP_Tasks%421
                0x000139bc       0x1c
 .rodata.APP_Tasks
                0x000139bc       0x1c build/default/production/_ext/1360937237/app.o

.text.dev_hal_pwr_ctl%422
                0x000139d8       0x1c
 .text.dev_hal_pwr_ctl
                0x000139d8       0x1c build/default/production/_ext/1360937237/dev_hal.o
                0x000139d8                dev_hal_pwr_ctl

.text.SPI_Read_Status_Register%423
                0x000139f4       0x1c
 .text.SPI_Read_Status_Register
                0x000139f4       0x1c build/default/production/_ext/1360937237/ext_flash.o
                0x000139f4                SPI_Read_Status_Register

.text.strchr%424
                0x00013a10       0x1c
 .text.strchr   0x00013a10       0x1c c:/program files (x86)/microchip/xc32/v2.30/bin/bin/../../lib/gcc/pic32c/6.2.1/../../../../pic32c/lib\libc.a(lib_a-strchr.o)
                0x00013a10                strchr

.text.__locale_mb_cur_max%425
                0x00013a2c       0x1c
 .text.__locale_mb_cur_max
                0x00013a2c       0x1c c:/program files (x86)/microchip/xc32/v2.30/bin/bin/../../lib/gcc/pic32c/6.2.1/../../../../pic32c/lib\libc.a(lib_a-locale.o)
                0x00013a2c                __locale_mb_cur_max

.text._mon_getc%426
                0x00013a48       0x1a
 .text._mon_getc
                0x00013a48       0x1a build/default/production/_ext/163028504/xc32_monitor.o
                0x00013a48                _mon_getc

.text._mon_putc%427
                0x00013a62       0x1a
 .text._mon_putc
                0x00013a62       0x1a build/default/production/_ext/163028504/xc32_monitor.o
                0x00013a62                _mon_putc

.text.strcat%428
                0x00013a7c       0x1a
 .text.strcat   0x00013a7c       0x1a c:/program files (x86)/microchip/xc32/v2.30/bin/bin/../../lib/gcc/pic32c/6.2.1/../../../../pic32c/lib\libc.a(lib_a-strcat.o)
                0x00013a7c                strcat

.rodata.drvUsart0remapParity%429
                0x00013a98       0x18
 .rodata.drvUsart0remapParity
                0x00013a98       0x18 build/default/production/_ext/1171490990/initialization.o
                0x00013a98                drvUsart0remapParity

.rodata.drvUsart1remapParity%430
                0x00013ab0       0x18
 .rodata.drvUsart1remapParity
                0x00013ab0       0x18 build/default/production/_ext/1171490990/initialization.o
                0x00013ab0                drvUsart1remapParity

.text.dev_timer_start%431
                0x00013ac8       0x18
 .text.dev_timer_start
                0x00013ac8       0x18 build/default/production/_ext/1360937237/dev_timer.o
                0x00013ac8                dev_timer_start

.text%432       0x00013ae0       0x48
 .text          0x00013ae0       0x18 c:/program files (x86)/microchip/xc32/v2.30/bin/bin/../../lib/gcc/pic32c/6.2.1\libgcc.a(_lshrdi3.o)
                0x00013ae0                __lshrdi3
                0x00013ae0                __aeabi_llsr
 .text          0x00013af8       0x18 c:/program files (x86)/microchip/xc32/v2.30/bin/bin/../../lib/gcc/pic32c/6.2.1\libgcc.a(_ashldi3.o)
                0x00013af8                __aeabi_llsl
                0x00013af8                __ashldi3
 .text          0x00013b10       0x18 c:/program files (x86)/microchip/xc32/v2.30/bin/bin/../../lib/gcc/pic32c/6.2.1\libgcc.a(_clzdi2.o)
                0x00013b10                __clzdi2

.text._localeconv_r%435
                0x00013b28       0x18
 .text._localeconv_r
                0x00013b28       0x18 c:/program files (x86)/microchip/xc32/v2.30/bin/bin/../../lib/gcc/pic32c/6.2.1/../../../../pic32c/lib\libc.a(lib_a-localeconv.o)
                0x00013b28                _localeconv_r

.text.__ascii_wctomb%436
                0x00013b40       0x18
 .text.__ascii_wctomb
                0x00013b40       0x18 c:/program files (x86)/microchip/xc32/v2.30/bin/bin/../../lib/gcc/pic32c/6.2.1/../../../../pic32c/lib\libc.a(lib_a-wctomb_r.o)
                0x00013b40                __ascii_wctomb

.text.SPI_WREN%437
                0x00013b58       0x16
 .text.SPI_WREN
                0x00013b58       0x16 build/default/production/_ext/1360937237/ext_flash.o
                0x00013b58                SPI_WREN

.text.SPI_Chip_Erase%438
                0x00013b6e       0x16
 .text.SPI_Chip_Erase
                0x00013b6e       0x16 build/default/production/_ext/1360937237/ext_flash.o
                0x00013b6e                SPI_Chip_Erase

.text.datacpy%439
                0x00013b84       0x16
 .text.datacpy  0x00013b84       0x16 build/default/production/_ext/1360937237/app4.o
                0x00013b84                datacpy

.text.memchr%440
                0x00013b9a       0x16
 .text.memchr   0x00013b9a       0x16 c:/program files (x86)/microchip/xc32/v2.30/bin/bin/../../lib/gcc/pic32c/6.2.1/../../../../pic32c/lib\libc.a(lib_a-memchr-stub.o)
                0x00013b9a                memchr

.text.CAN0_RxFifoCallbackRegister%441
                0x00013bb0       0x14
 .text.CAN0_RxFifoCallbackRegister
                0x00013bb0       0x14 build/default/production/_ext/60165182/plib_can0.o
                0x00013bb0                CAN0_RxFifoCallbackRegister

.text.NVIC_INT_Restore%442
                0x00013bc4       0x14
 .text.NVIC_INT_Restore
                0x00013bc4       0x14 build/default/production/_ext/1865468468/plib_nvic.o
                0x00013bc4                NVIC_INT_Restore

.text.SYSTICK_TimerStart%443
                0x00013bd8       0x14
 .text.SYSTICK_TimerStart
                0x00013bd8       0x14 build/default/production/_ext/1827571544/plib_systick.o
                0x00013bd8                SYSTICK_TimerStart

.text.WDT_Clear%444
                0x00013bec       0x14
 .text.WDT_Clear
                0x00013bec       0x14 build/default/production/_ext/60184501/plib_wdt.o
                0x00013bec                WDT_Clear

.rodata.drvUSART0InterruptSources%445
                0x00013c00       0x14
 .rodata.drvUSART0InterruptSources
                0x00013c00       0x14 build/default/production/_ext/1171490990/initialization.o
                0x00013c00                drvUSART0InterruptSources

.rodata.drvUSART1InterruptSources%446
                0x00013c14       0x14
 .rodata.drvUSART1InterruptSources
                0x00013c14       0x14 build/default/production/_ext/1171490990/initialization.o
                0x00013c14                drvUSART1InterruptSources

.rodata.drvUsart0remapDataWidth%447
                0x00013c28       0x14
 .rodata.drvUsart0remapDataWidth
                0x00013c28       0x14 build/default/production/_ext/1171490990/initialization.o
                0x00013c28                drvUsart0remapDataWidth

.rodata.drvUsart1remapDataWidth%448
                0x00013c3c       0x14
 .rodata.drvUsart1remapDataWidth
                0x00013c3c       0x14 build/default/production/_ext/1171490990/initialization.o
                0x00013c3c                drvUsart1remapDataWidth

.text.SYS_Tasks%449
                0x00013c50       0x14
 .text.SYS_Tasks
                0x00013c50       0x14 build/default/production/_ext/1171490990/tasks.o
                0x00013c50                SYS_Tasks

.text.TC3_Callback_InterruptHandler%450
                0x00013c64       0x14
 .text.TC3_Callback_InterruptHandler
                0x00013c64       0x14 build/default/production/_ext/1360937237/app.o
                0x00013c64                TC3_Callback_InterruptHandler

.text.dev_timer_stop%451
                0x00013c78       0x14
 .text.dev_timer_stop
                0x00013c78       0x14 build/default/production/_ext/1360937237/dev_timer.o
                0x00013c78                dev_timer_stop

.text.readlogdata%452
                0x00013c8c       0x14
 .text.readlogdata
                0x00013c8c       0x14 build/default/production/_ext/1360937237/app3.o
                0x00013c8c                readlogdata

.text.smr_clear%453
                0x00013ca0       0x14
 .text.smr_clear
                0x00013ca0       0x14 build/default/production/_ext/1360937237/app3.o
                0x00013ca0                smr_clear

.text%454       0x00013cb4       0x28
 .text          0x00013cb4       0x14 c:/program files (x86)/microchip/xc32/v2.30/bin/bin/../../lib/gcc/pic32c/6.2.1\libgcc.a(_thumb1_case_uqi.o)
                0x00013cb4                __gnu_thumb1_case_uqi
 .text          0x00013cc8       0x14 c:/program files (x86)/microchip/xc32/v2.30/bin/bin/../../lib/gcc/pic32c/6.2.1\libgcc.a(_thumb1_case_uhi.o)
                0x00013cc8                __gnu_thumb1_case_uhi

.text.puts%456  0x00013cdc       0x14
 .text.puts     0x00013cdc       0x14 c:/program files (x86)/microchip/xc32/v2.30/bin/bin/../../lib/gcc/pic32c/6.2.1/../../../../pic32c/lib\libc.a(lib_a-puts.o)
                0x00013cdc                puts

.text%457       0x00013cf0       0x14
 .text          0x00013cf0       0x14 c:/program files (x86)/microchip/xc32/v2.30/bin/bin/../../lib/gcc/pic32c/6.2.1/../../../../pic32c/lib\libc.a(lib_a-strcmp.o)
                0x00013cf0                strcmp

.rodata.fpi.6142%458
                0x00013d04       0x14
 .rodata.fpi.6142
                0x00013d04       0x14 c:/program files (x86)/microchip/xc32/v2.30/bin/bin/../../lib/gcc/pic32c/6.2.1/../../../../pic32c/lib\libc.a(lib_a-strtod.o)

.rodata.fpinan.6178%459
                0x00013d18       0x14
 .rodata.fpinan.6178
                0x00013d18       0x14 c:/program files (x86)/microchip/xc32/v2.30/bin/bin/../../lib/gcc/pic32c/6.2.1/../../../../pic32c/lib\libc.a(lib_a-strtod.o)

.text.strtok%460
                0x00013d2c       0x14
 .text.strtok   0x00013d2c       0x14 c:/program files (x86)/microchip/xc32/v2.30/bin/bin/../../lib/gcc/pic32c/6.2.1/../../../../pic32c/lib\libc.a(lib_a-strtok.o)
                0x00013d2c                strtok

.text.malloc%461
                0x00013d40       0x14
 .text.malloc   0x00013d40       0x14 c:/program files (x86)/microchip/xc32/v2.30/bin/bin/../../lib/gcc/pic32c/6.2.1/../../../../pic32c/lib\libc.a(lib_a-malloc.o)
                0x00013d40                malloc

.text._Bfree%462
                0x00013d54       0x14
 .text._Bfree   0x00013d54       0x14 c:/program files (x86)/microchip/xc32/v2.30/bin/bin/../../lib/gcc/pic32c/6.2.1/../../../../pic32c/lib\libc.a(lib_a-mprec.o)
                0x00013d54                _Bfree

.text.NVIC_INT_Disable%463
                0x00013d68       0x12
 .text.NVIC_INT_Disable
                0x00013d68       0x12 build/default/production/_ext/1865468468/plib_nvic.o
                0x00013d68                NVIC_INT_Disable

.text.readfreshlogdata1%464
                0x00013d7a       0x12
 .text.readfreshlogdata1
                0x00013d7a       0x12 build/default/production/_ext/1360937237/app3.o
                0x00013d7a                readfreshlogdata1

.text.readfreshlogdata2%465
                0x00013d8c       0x12
 .text.readfreshlogdata2
                0x00013d8c       0x12 build/default/production/_ext/1360937237/app3.o
                0x00013d8c                readfreshlogdata2

.text.EXTFLASH_init%466
                0x00013d9e       0x12
 .text.EXTFLASH_init
                0x00013d9e       0x12 build/default/production/_ext/1360937237/ext_flash.o
                0x00013d9e                EXTFLASH_init

.text.SPI_Wait_Busy%467
                0x00013db0       0x12
 .text.SPI_Wait_Busy
                0x00013db0       0x12 build/default/production/_ext/1360937237/ext_flash.o
                0x00013db0                SPI_Wait_Busy

.text.memcpy%468
                0x00013dc2       0x12
 .text.memcpy   0x00013dc2       0x12 c:/program files (x86)/microchip/xc32/v2.30/bin/bin/../../lib/gcc/pic32c/6.2.1/../../../../pic32c/lib\libc.a(lib_a-memcpy-stub.o)
                0x00013dc2                memcpy

.text.setbuf%469
                0x00013dd4       0x12
 .text.setbuf   0x00013dd4       0x12 c:/program files (x86)/microchip/xc32/v2.30/bin/bin/../../lib/gcc/pic32c/6.2.1/../../../../pic32c/lib\libc.a(lib_a-setbuf.o)
                0x00013dd4                setbuf

.text.__i2b%470
                0x00013de6       0x12
 .text.__i2b    0x00013de6       0x12 c:/program files (x86)/microchip/xc32/v2.30/bin/bin/../../lib/gcc/pic32c/6.2.1/../../../../pic32c/lib\libc.a(lib_a-mprec.o)
                0x00013de6                __i2b

.text.DRV_USART_WriteBufferAdd%471
                0x00013df8       0x10
 .text.DRV_USART_WriteBufferAdd
                0x00013df8       0x10 build/default/production/_ext/869808652/drv_usart.o
                0x00013df8                DRV_USART_WriteBufferAdd

.text.DRV_USART_ReadBufferAdd%472
                0x00013e08       0x10
 .text.DRV_USART_ReadBufferAdd
                0x00013e08       0x10 build/default/production/_ext/869808652/drv_usart.o
                0x00013e08                DRV_USART_ReadBufferAdd

.text.SERCOM3_USART_ErrorGet%473
                0x00013e18       0x10
 .text.SERCOM3_USART_ErrorGet
                0x00013e18       0x10 build/default/production/_ext/504274921/plib_sercom3_usart.o
                0x00013e18                SERCOM3_USART_ErrorGet

.text.SERCOM3_USART_ReadIsBusy%474
                0x00013e28       0x10
 .text.SERCOM3_USART_ReadIsBusy
                0x00013e28       0x10 build/default/production/_ext/504274921/plib_sercom3_usart.o
                0x00013e28                SERCOM3_USART_ReadIsBusy

.text.SERCOM2_USART_ErrorGet%475
                0x00013e38       0x10
 .text.SERCOM2_USART_ErrorGet
                0x00013e38       0x10 build/default/production/_ext/504274921/plib_sercom2_usart.o
                0x00013e38                SERCOM2_USART_ErrorGet

.text.SERCOM2_USART_ReadIsBusy%476
                0x00013e48       0x10
 .text.SERCOM2_USART_ReadIsBusy
                0x00013e48       0x10 build/default/production/_ext/504274921/plib_sercom2_usart.o
                0x00013e48                SERCOM2_USART_ReadIsBusy

.text.TC4_Callback_InterruptHandler%477
                0x00013e58       0x10
 .text.TC4_Callback_InterruptHandler
                0x00013e58       0x10 build/default/production/_ext/1360937237/app.o
                0x00013e58                TC4_Callback_InterruptHandler

.text.memset%478
                0x00013e68       0x10
 .text.memset   0x00013e68       0x10 c:/program files (x86)/microchip/xc32/v2.30/bin/bin/../../lib/gcc/pic32c/6.2.1/../../../../pic32c/lib\libc.a(lib_a-memset.o)
                0x00013e68                memset

.text.strcpy%479
                0x00013e78       0x10
 .text.strcpy   0x00013e78       0x10 c:/program files (x86)/microchip/xc32/v2.30/bin/bin/../../lib/gcc/pic32c/6.2.1/../../../../pic32c/lib\libc.a(lib_a-strcpy.o)
                0x00013e78                strcpy

.rodata.blanks.7220%480
                0x00013e88       0x10
 .rodata.blanks.7220
                0x00013e88       0x10 c:/program files (x86)/microchip/xc32/v2.30/bin/bin/../../lib/gcc/pic32c/6.2.1/../../../../pic32c/lib\libc.a(lib_a-svfprintf.o)

.rodata.zeroes.7221%481
                0x00013e98       0x10
 .rodata.zeroes.7221
                0x00013e98       0x10 c:/program files (x86)/microchip/xc32/v2.30/bin/bin/../../lib/gcc/pic32c/6.2.1/../../../../pic32c/lib\libc.a(lib_a-svfprintf.o)

.rodata.blanks.7235%482
                0x00013ea8       0x10
 .rodata.blanks.7235
                0x00013ea8       0x10 c:/program files (x86)/microchip/xc32/v2.30/bin/bin/../../lib/gcc/pic32c/6.2.1/../../../../pic32c/lib\libc.a(lib_a-vfprintf.o)

.rodata.zeroes.7236%483
                0x00013eb8       0x10
 .rodata.zeroes.7236
                0x00013eb8       0x10 c:/program files (x86)/microchip/xc32/v2.30/bin/bin/../../lib/gcc/pic32c/6.2.1/../../../../pic32c/lib\libc.a(lib_a-vfprintf.o)

.text._cleanup_r%484
                0x00013ec8       0x10
 .text._cleanup_r
                0x00013ec8       0x10 c:/program files (x86)/microchip/xc32/v2.30/bin/bin/../../lib/gcc/pic32c/6.2.1/../../../../pic32c/lib\libc.a(lib_a-findfp.o)
                0x00013ec8                _cleanup_r

.rodata%485     0x00013ed8        0xf
 .rodata        0x00013ed8        0xf c:/program files (x86)/microchip/xc32/v2.30/bin/bin/../../lib/gcc/pic32c/6.2.1/../../../../pic32c/lib\libc.a(lib_a-dtoa.o)

.text._DRV_USART_TX_PLIB_CallbackHandler%486
                0x00013ee8        0xe
 .text._DRV_USART_TX_PLIB_CallbackHandler
                0x00013ee8        0xe build/default/production/_ext/869808652/drv_usart.o

.text%487       0x00013ef6        0xe
 .text          0x00013ef6        0xe c:/program files (x86)/microchip/xc32/v2.30/bin/bin/../../lib/gcc/pic32c/6.2.1/../../../../pic32c/lib\libc.a(lib_a-strlen.o)
                0x00013ef6                strlen

.text.NVMCTRL_Initialize%488
                0x00013f04        0xc
 .text.NVMCTRL_Initialize
                0x00013f04        0xc build/default/production/_ext/1593096446/plib_nvmctrl.o
                0x00013f04                NVMCTRL_Initialize

.text.SERCOM3_USART_WriteIsBusy%489
                0x00013f10        0xc
 .text.SERCOM3_USART_WriteIsBusy
                0x00013f10        0xc build/default/production/_ext/504274921/plib_sercom3_usart.o
                0x00013f10                SERCOM3_USART_WriteIsBusy

.text.SERCOM3_USART_WriteCountGet%490
                0x00013f1c        0xc
 .text.SERCOM3_USART_WriteCountGet
                0x00013f1c        0xc build/default/production/_ext/504274921/plib_sercom3_usart.o
                0x00013f1c                SERCOM3_USART_WriteCountGet

.text.SERCOM3_USART_WriteCallbackRegister%491
                0x00013f28        0xc
 .text.SERCOM3_USART_WriteCallbackRegister
                0x00013f28        0xc build/default/production/_ext/504274921/plib_sercom3_usart.o
                0x00013f28                SERCOM3_USART_WriteCallbackRegister

.text.SERCOM3_USART_ReadCountGet%492
                0x00013f34        0xc
 .text.SERCOM3_USART_ReadCountGet
                0x00013f34        0xc build/default/production/_ext/504274921/plib_sercom3_usart.o
                0x00013f34                SERCOM3_USART_ReadCountGet

.text.SERCOM3_USART_ReadCallbackRegister%493
                0x00013f40        0xc
 .text.SERCOM3_USART_ReadCallbackRegister
                0x00013f40        0xc build/default/production/_ext/504274921/plib_sercom3_usart.o
                0x00013f40                SERCOM3_USART_ReadCallbackRegister

.text.SERCOM2_USART_WriteIsBusy%494
                0x00013f4c        0xc
 .text.SERCOM2_USART_WriteIsBusy
                0x00013f4c        0xc build/default/production/_ext/504274921/plib_sercom2_usart.o
                0x00013f4c                SERCOM2_USART_WriteIsBusy

.text.SERCOM2_USART_WriteCountGet%495
                0x00013f58        0xc
 .text.SERCOM2_USART_WriteCountGet
                0x00013f58        0xc build/default/production/_ext/504274921/plib_sercom2_usart.o
                0x00013f58                SERCOM2_USART_WriteCountGet

.text.SERCOM2_USART_WriteCallbackRegister%496
                0x00013f64        0xc
 .text.SERCOM2_USART_WriteCallbackRegister
                0x00013f64        0xc build/default/production/_ext/504274921/plib_sercom2_usart.o
                0x00013f64                SERCOM2_USART_WriteCallbackRegister

.text.SERCOM2_USART_ReadCountGet%497
                0x00013f70        0xc
 .text.SERCOM2_USART_ReadCountGet
                0x00013f70        0xc build/default/production/_ext/504274921/plib_sercom2_usart.o
                0x00013f70                SERCOM2_USART_ReadCountGet

.text.SERCOM2_USART_ReadCallbackRegister%498
                0x00013f7c        0xc
 .text.SERCOM2_USART_ReadCallbackRegister
                0x00013f7c        0xc build/default/production/_ext/504274921/plib_sercom2_usart.o
                0x00013f7c                SERCOM2_USART_ReadCallbackRegister

.text.SYSTICK_TimerCallbackSet%499
                0x00013f88        0xc
 .text.SYSTICK_TimerCallbackSet
                0x00013f88        0xc build/default/production/_ext/1827571544/plib_systick.o
                0x00013f88                SYSTICK_TimerCallbackSet

.text.TC4_TimerCallbackRegister%500
                0x00013f94        0xc
 .text.TC4_TimerCallbackRegister
                0x00013f94        0xc build/default/production/_ext/829342655/plib_tc4.o
                0x00013f94                TC4_TimerCallbackRegister

.text.TC0_TimerCallbackRegister%501
                0x00013fa0        0xc
 .text.TC0_TimerCallbackRegister
                0x00013fa0        0xc build/default/production/_ext/829342655/plib_tc0.o
                0x00013fa0                TC0_TimerCallbackRegister

.text.TC3_TimerCallbackRegister%502
                0x00013fac        0xc
 .text.TC3_TimerCallbackRegister
                0x00013fac        0xc build/default/production/_ext/829342655/plib_tc3.o
                0x00013fac                TC3_TimerCallbackRegister

.rodata.drvUsart0remapError%503
                0x00013fb8        0xc
 .rodata.drvUsart0remapError
                0x00013fb8        0xc build/default/production/_ext/1171490990/initialization.o
                0x00013fb8                drvUsart0remapError

.rodata.drvUsart0remapStopBits%504
                0x00013fc4        0xc
 .rodata.drvUsart0remapStopBits
                0x00013fc4        0xc build/default/production/_ext/1171490990/initialization.o
                0x00013fc4                drvUsart0remapStopBits

.rodata.drvUsart1remapError%505
                0x00013fd0        0xc
 .rodata.drvUsart1remapError
                0x00013fd0        0xc build/default/production/_ext/1171490990/initialization.o
                0x00013fd0                drvUsart1remapError

.rodata.drvUsart1remapStopBits%506
                0x00013fdc        0xc
 .rodata.drvUsart1remapStopBits
                0x00013fdc        0xc build/default/production/_ext/1171490990/initialization.o
                0x00013fdc                drvUsart1remapStopBits

.text.APP_Initialize%507
                0x00013fe8        0xc
 .text.APP_Initialize
                0x00013fe8        0xc build/default/production/_ext/1360937237/app.o
                0x00013fe8                APP_Initialize

.rodata%508     0x00013ff4        0xc
 .rodata        0x00013ff4        0xc build/default/production/_ext/1360937237/dev_adapter.o

.text.dev_timer_load%509
                0x00014000        0xc
 .text.dev_timer_load
                0x00014000        0xc build/default/production/_ext/1360937237/dev_timer.o
                0x00014000                dev_timer_load

.text.APP2_Initialize%510
                0x0001400c        0xc
 .text.APP2_Initialize
                0x0001400c        0xc build/default/production/_ext/1360937237/app2.o
                0x0001400c                APP2_Initialize

.text.APP3_Initialize%511
                0x00014018        0xc
 .text.APP3_Initialize
                0x00014018        0xc build/default/production/_ext/1360937237/app3.o
                0x00014018                APP3_Initialize

.text.APP4_Initialize%512
                0x00014024        0xc
 .text.APP4_Initialize
                0x00014024        0xc build/default/production/_ext/1360937237/app4.o
                0x00014024                APP4_Initialize

.text.atol%513  0x00014030        0xc
 .text.atol     0x00014030        0xc c:/program files (x86)/microchip/xc32/v2.30/bin/bin/../../lib/gcc/pic32c/6.2.1/../../../../pic32c/lib\libc.a(lib_a-atol.o)
                0x00014030                atol

.rodata%514     0x0001403c        0xc
 .rodata        0x0001403c        0xc c:/program files (x86)/microchip/xc32/v2.30/bin/bin/../../lib/gcc/pic32c/6.2.1/../../../../pic32c/lib\libc.a(lib_a-strtod.o)

.rodata.p05.6056%515
                0x00014048        0xc
 .rodata.p05.6056
                0x00014048        0xc c:/program files (x86)/microchip/xc32/v2.30/bin/bin/../../lib/gcc/pic32c/6.2.1/../../../../pic32c/lib\libc.a(lib_a-mprec.o)

.text.__sclose%516
                0x00014054        0xc
 .text.__sclose
                0x00014054        0xc c:/program files (x86)/microchip/xc32/v2.30/bin/bin/../../lib/gcc/pic32c/6.2.1/../../../../pic32c/lib\libc.a(lib_a-stdio.o)
                0x00014054                __sclose

.text.fstat%517
                0x00014060        0xc
 .text.fstat    0x00014060        0xc c:/program files (x86)/microchip/xc32/v2.30/bin/bin/../../lib/gcc/pic32c/6.2.1/../../../../pic32c/lib\libpic32c.a(fstat.o)
                0x00014060                fstat

.rodata%518     0x0001406c        0xb
 .rodata        0x0001406c        0xb c:/program files (x86)/microchip/xc32/v2.30/bin/bin/../../lib/gcc/pic32c/6.2.1/../../../../pic32c/lib\libc.a(lib_a-locale.o)

.text.DRV_USART_WriteQueuePurge%519
                0x00014078        0xa
 .text.DRV_USART_WriteQueuePurge
                0x00014078        0xa build/default/production/_ext/869808652/drv_usart.o
                0x00014078                DRV_USART_WriteQueuePurge

.text.DRV_USART_ReadQueuePurge%520
                0x00014082        0xa
 .text.DRV_USART_ReadQueuePurge
                0x00014082        0xa build/default/production/_ext/869808652/drv_usart.o
                0x00014082                DRV_USART_ReadQueuePurge

.text.atof%521  0x0001408c        0xa
 .text.atof     0x0001408c        0xa c:/program files (x86)/microchip/xc32/v2.30/bin/bin/../../lib/gcc/pic32c/6.2.1/../../../../pic32c/lib\libc.a(lib_a-atof.o)
                0x0001408c                atof

.text.SYS_INT_Disable%522
                0x00014096        0x8
 .text.SYS_INT_Disable
                0x00014096        0x8 build/default/production/_ext/1881668453/sys_int.o
                0x00014096                SYS_INT_Disable

.text.SYS_INT_Restore%523
                0x0001409e        0x8
 .text.SYS_INT_Restore
                0x0001409e        0x8 build/default/production/_ext/1881668453/sys_int.o
                0x0001409e                SYS_INT_Restore

.rodata%524     0x000140a8        0x8
 .rodata        0x000140a8        0x8 build/default/production/_ext/1360937237/myapp.o

.text._close%525
                0x000140b0        0x8
 .text._close   0x000140b0        0x8 c:/program files (x86)/microchip/xc32/v2.30/bin/bin/../../lib/gcc/pic32c/6.2.1/../../../../pic32c/lib\libpic32c.a(_close.o)
                0x000140b0                _close

.text._fstat%526
                0x000140b8        0x8
 .text._fstat   0x000140b8        0x8 c:/program files (x86)/microchip/xc32/v2.30/bin/bin/../../lib/gcc/pic32c/6.2.1/../../../../pic32c/lib\libpic32c.a(_fstat.o)
                0x000140b8                _fstat

.text._isatty%527
                0x000140c0        0x8
 .text._isatty  0x000140c0        0x8 c:/program files (x86)/microchip/xc32/v2.30/bin/bin/../../lib/gcc/pic32c/6.2.1/../../../../pic32c/lib\libpic32c.a(_isatty.o)
                0x000140c0                _isatty

.text._lseek%528
                0x000140c8        0x8
 .text._lseek   0x000140c8        0x8 c:/program files (x86)/microchip/xc32/v2.30/bin/bin/../../lib/gcc/pic32c/6.2.1/../../../../pic32c/lib\libpic32c.a(_lseek.o)
                0x000140c8                _lseek

.text._read%529
                0x000140d0        0x8
 .text._read    0x000140d0        0x8 c:/program files (x86)/microchip/xc32/v2.30/bin/bin/../../lib/gcc/pic32c/6.2.1/../../../../pic32c/lib\libpic32c.a(_read.o)
                0x000140d0                _read

.text._write%530
                0x000140d8        0x8
 .text._write   0x000140d8        0x8 c:/program files (x86)/microchip/xc32/v2.30/bin/bin/../../lib/gcc/pic32c/6.2.1/../../../../pic32c/lib\libpic32c.a(_write.o)
                0x000140d8                _write

.text.close%531
                0x000140e0        0x8
 .text.close    0x000140e0        0x8 c:/program files (x86)/microchip/xc32/v2.30/bin/bin/../../lib/gcc/pic32c/6.2.1/../../../../pic32c/lib\libpic32c.a(close.o)
                0x000140e0                close

.text.__locale_ctype_ptr_l%532
                0x000140e8        0x6
 .text.__locale_ctype_ptr_l
                0x000140e8        0x6 c:/program files (x86)/microchip/xc32/v2.30/bin/bin/../../lib/gcc/pic32c/6.2.1/../../../../pic32c/lib\libc.a(lib_a-locale.o)
                0x000140e8                __locale_ctype_ptr_l

.text%533       0x0000fd24        0x4
 .text          0x0000fd24        0x4 c:/program files (x86)/microchip/xc32/v2.30/bin/bin/../../lib/gcc/pic32c/6.2.1\libgcc.a(_dvmd_tls.o)
                0x0000fd24                __aeabi_idiv0
                0x0000fd24                __aeabi_ldiv0

.text.__localeconv_l%534
                0x000134a4        0x4
 .text.__localeconv_l
                0x000134a4        0x4 c:/program files (x86)/microchip/xc32/v2.30/bin/bin/../../lib/gcc/pic32c/6.2.1/../../../../pic32c/lib\libc.a(lib_a-localeconv.o)
                0x000134a4                __localeconv_l

.text.isatty%535
                0x000140f0        0x4
 .text.isatty   0x000140f0        0x4 c:/program files (x86)/microchip/xc32/v2.30/bin/bin/../../lib/gcc/pic32c/6.2.1/../../../../pic32c/lib\libpic32c.a(isatty.o)
                0x000140f0                isatty

.text.lseek%536
                0x000140f4        0x4
 .text.lseek    0x000140f4        0x4 c:/program files (x86)/microchip/xc32/v2.30/bin/bin/../../lib/gcc/pic32c/6.2.1/../../../../pic32c/lib\libpic32c.a(lseek.o)
                0x000140f4                lseek

.text.EVSYS_Initialize%537
                0x000099be        0x2
 .text.EVSYS_Initialize
                0x000099be        0x2 build/default/production/_ext/1986646378/plib_evsys.o
                0x000099be                EVSYS_Initialize

.text.Dummy_Handler%538
                0x0000ed0e        0x2
 .text.Dummy_Handler
                0x0000ed0e        0x2 build/default/production/_ext/1171490990/interrupts.o
                0x0000ed0e                SVCall_Handler
                0x0000ed0e                DMAC_Handler
                0x0000ed0e                TC2_Handler
                0x0000ed0e                AC_Handler
                0x0000ed0e                PendSV_Handler
                0x0000ed0e                SERCOM1_Handler
                0x0000ed0e                TCC1_Handler
                0x0000ed0e                TCC0_Handler
                0x0000ed0e                RTC_Handler
                0x0000ed0e                ADC1_Handler
                0x0000ed0e                WDT_Handler
                0x0000ed0e                TC1_Handler
                0x0000ed0e                SDADC_Handler
                0x0000ed0e                Dummy_Handler
                0x0000ed0e                SERCOM5_Handler
                0x0000ed0e                CAN1_Handler
                0x0000ed0e                ADC0_Handler
                0x0000ed0e                TSENS_Handler
                0x0000ed0e                TCC2_Handler
                0x0000ed0e                EVSYS_Handler
                0x0000ed0e                SERCOM4_Handler
                0x0000ed0e                NVMCTRL_Handler
                0x0000ed0e                SYSTEM_Handler
                0x0000ed0e                SERCOM0_Handler
                0x0000ed0e                DAC_Handler
                0x0000ed0e                PTC_Handler
                0x0000ed0e                FREQM_Handler

.text.NonMaskableInt_Handler%539
                0x0000f086        0x2
 .text.NonMaskableInt_Handler
                0x0000f086        0x2 build/default/production/_ext/1171490990/exceptions.o
                0x0000f086                NonMaskableInt_Handler

.text.HardFault_Handler%540
                0x0000f9ca        0x2
 .text.HardFault_Handler
                0x0000f9ca        0x2 build/default/production/_ext/1171490990/exceptions.o
                0x0000f9ca                HardFault_Handler

.text.Dummy_App_Func%541
                0x0001034a        0x2
 .text.Dummy_App_Func
                0x0001034a        0x2 build/default/production/_ext/1171490990/startup_xc32.o
                0x0001034a                _on_reset
                0x0001034a                _on_bootstrap
                0x0001034a                __xc32_on_reset
                0x0001034a                Dummy_App_Func
                0x0001034a                __xc32_on_bootstrap

.text.dev_hal_cts_ctl%542
                0x00010d0a        0x2
 .text.dev_hal_cts_ctl
                0x00010d0a        0x2 build/default/production/_ext/1360937237/dev_hal.o
                0x00010d0a                dev_hal_cts_ctl

.text.dev_hal_init%543
                0x00011bea        0x2
 .text.dev_hal_init
                0x00011bea        0x2 build/default/production/_ext/1360937237/dev_hal.o
                0x00011bea                dev_hal_init

.text.gsm_gps_evn_default%544
                0x00011fa6        0x2
 .text.gsm_gps_evn_default
                0x00011fa6        0x2 build/default/production/_ext/1360937237/gsm_gps.o
                0x00011fa6                gsm_gps_evn_default

.rodata%545     0x000121ba        0x2
 .rodata        0x000121ba        0x2 c:/program files (x86)/microchip/xc32/v2.30/bin/bin/../../lib/gcc/pic32c/6.2.1/../../../../pic32c/lib\libc.a(lib_a-puts.o)

.text.__malloc_lock%546
                0x0001265a        0x2
 .text.__malloc_lock
                0x0001265a        0x2 c:/program files (x86)/microchip/xc32/v2.30/bin/bin/../../lib/gcc/pic32c/6.2.1/../../../../pic32c/lib\libc.a(lib_a-mlock.o)
                0x0001265a                __malloc_lock

.text.__malloc_unlock%547
                0x0001281a        0x2
 .text.__malloc_unlock
                0x0001281a        0x2 c:/program files (x86)/microchip/xc32/v2.30/bin/bin/../../lib/gcc/pic32c/6.2.1/../../../../pic32c/lib\libc.a(lib_a-mlock.o)
                0x0001281a                __malloc_unlock
